# Linker from Snapdragon LLVM ARM Compiler Version 4.0.3
# Linker based on LLVM version: 4.0
# Notable linker command/script options:
# CPU Architecture Version: 
# Target triple environment for the link: gnueabi
# Maximum GP size: 8
# Link type: Static
# ABI Page Size: 0x4
# CommandLine : C:\Users\nikol\projects\quectel\development\customer\threadx\tools\LLVM\4.0.3\bin\ld.qcld.exe -X --eh-frame-hdr -m armelf_linux_eabi -dynamic-linker /lib/ld-musl-arm.so.1 -o out/noomiojs.elf -mno-unaligned-access -entry=0x43000000 -entry=0x43000000 ./ldscripts/txm_module_preamble_llvm.o --wrap getchar --wrap gets --wrap printf --wrap puts --wrap malloc --wrap free --wrap realloc --wrap calloc -T ./ldscripts/sections.ld -Map=out/noomiojs.map -gc-sections -gc-sections ./out/common/src/retarget.o ./out/common/src/malloc.o ./out/common/src/stubs.o ./out/common/src/printf.o ./out/common/src/file.o ./out/common/src/cli.o ./out/common/src/time.o ./out/./src/noomiojs.o ./out/./src/dummy_date_provider.o ./out/./src/native/event_mngr.o ./out/./src/native/timers.o ./out/./src/native/console.o ./out/./src/native/gpio.o ./out/./src/native/at.o ./out/./src/native/i2c.o ./out/./src/duk_module_node.o ./out/src/duk/duktape.o ../../../../Quectel_BG96_QuecOpen_SDK_Package_V3.0.1-AUS/SDK/libs/llvm\azure_sdk.lib ../../../../Quectel_BG96_QuecOpen_SDK_Package_V3.0.1-AUS/SDK/libs/llvm\azure_sdk_port.lib ../../../../Quectel_BG96_QuecOpen_SDK_Package_V3.0.1-AUS/SDK/libs/llvm\diag_dam_lib.lib ../../../../Quectel_BG96_QuecOpen_SDK_Package_V3.0.1-AUS/SDK/libs/llvm\qapi_psm_lib.lib ../../../../Quectel_BG96_QuecOpen_SDK_Package_V3.0.1-AUS/SDK/libs/llvm\timer_dam_lib.lib ../../../../Quectel_BG96_QuecOpen_SDK_Package_V3.0.1-AUS/SDK/libs/llvm\txm_lib.lib -lm -lc -LC:\Users\nikol\projects\quectel\development\customer\threadx\tools\LLVM\4.0.3\armv7m-none-eabi\libc\lib -LC:\Users\nikol\projects\quectel\development\customer\threadx\tools\LLVM\4.0.3\armv7m-none-eabi\lib --start-group -lunwind -lc++ -lc++abi --end-group -LC:\Users\nikol\projects\quectel\development\customer\threadx\tools\LLVM\4.0.3\lib\clang\4.0.3\lib\baremetal --start-group -lc -lclang_rt.builtins-armv7m --end-group -lm -lc 
Archive member included because of file (symbol)
../../../../Quectel_BG96_QuecOpen_SDK_Package_V3.0.1-AUS/SDK/libs/llvm\txm_lib.lib(txm_module_thread_shell_entry.o)
		./out/common/src/retarget.o (_txm_module_kernel_call_dispatcher)
../../../../Quectel_BG96_QuecOpen_SDK_Package_V3.0.1-AUS/SDK/libs/llvm\txm_lib.lib(txm_module_callback_request_thread_entry.o)
		./ldscripts/txm_module_preamble_llvm.o (_txm_module_callback_request_thread_entry)
../../../../Quectel_BG96_QuecOpen_SDK_Package_V3.0.1-AUS/SDK/libs/llvm\txm_lib.lib(txm_module_system_call11.o)
		./out/./src/noomiojs.o (_txm_module_system_call11)
../../../../Quectel_BG96_QuecOpen_SDK_Package_V3.0.1-AUS/SDK/libs/llvm\txm_lib.lib(txm_module_system_call12.o)
		./out/common/src/file.o (_txm_module_system_call12)
../../../../Quectel_BG96_QuecOpen_SDK_Package_V3.0.1-AUS/SDK/libs/llvm\txm_lib.lib(txm_module_system_call4.o)
		./out/common/src/retarget.o (_txm_module_system_call4)
../../../../Quectel_BG96_QuecOpen_SDK_Package_V3.0.1-AUS/SDK/libs/llvm\txm_lib.lib(txm_module_system_call5.o)
		./out/common/src/retarget.o (_txm_module_system_call5)
../../../../Quectel_BG96_QuecOpen_SDK_Package_V3.0.1-AUS/SDK/libs/llvm\txm_lib.lib(txm_module_system_call6.o)
		./out/common/src/retarget.o (_txm_module_system_call6)
../../../../Quectel_BG96_QuecOpen_SDK_Package_V3.0.1-AUS/SDK/libs/llvm\txm_lib.lib(txm_module_system_call7.o)
		./out/common/src/cli.o (_txm_module_system_call7)
../../../../Quectel_BG96_QuecOpen_SDK_Package_V3.0.1-AUS/SDK/libs/llvm\txm_lib.lib(txm_module_system_call8.o)
		./out/./src/native/timers.o (_txm_module_system_call8)
C:\Users\nikol\projects\quectel\development\customer\threadx\tools\LLVM\4.0.3\armv7m-none-eabi\libc\lib/libc.a(setlocale.o)
		./out/common/src/retarget.o (setlocale)
C:\Users\nikol\projects\quectel\development\customer\threadx\tools\LLVM\4.0.3\armv7m-none-eabi\libc\lib/libc.a(__fpclassify.o)
		./out/src/duk/duktape.o (__fpclassify)
C:\Users\nikol\projects\quectel\development\customer\threadx\tools\LLVM\4.0.3\armv7m-none-eabi\libc\lib/libc.a(acos.o)
		./out/src/duk/duktape.o (acos)
C:\Users\nikol\projects\quectel\development\customer\threadx\tools\LLVM\4.0.3\armv7m-none-eabi\libc\lib/libc.a(sqrt.o)
		./out/src/duk/duktape.o (sqrt)
C:\Users\nikol\projects\quectel\development\customer\threadx\tools\LLVM\4.0.3\armv7m-none-eabi\libc\lib/libc.a(asin.o)
		./out/src/duk/duktape.o (asin)
C:\Users\nikol\projects\quectel\development\customer\threadx\tools\LLVM\4.0.3\armv7m-none-eabi\libc\lib/libc.a(atan.o)
		./out/src/duk/duktape.o (atan)
C:\Users\nikol\projects\quectel\development\customer\threadx\tools\LLVM\4.0.3\armv7m-none-eabi\libc\lib/libc.a(atan2.o)
		./out/src/duk/duktape.o (atan2)
C:\Users\nikol\projects\quectel\development\customer\threadx\tools\LLVM\4.0.3\armv7m-none-eabi\libc\lib/libc.a(ceil.o)
		./out/src/duk/duktape.o (ceil)
C:\Users\nikol\projects\quectel\development\customer\threadx\tools\LLVM\4.0.3\armv7m-none-eabi\libc\lib/libc.a(cos.o)
		./out/src/duk/duktape.o (cos)
C:\Users\nikol\projects\quectel\development\customer\threadx\tools\LLVM\4.0.3\armv7m-none-eabi\libc\lib/libc.a(exp.o)
		./out/src/duk/duktape.o (exp)
C:\Users\nikol\projects\quectel\development\customer\threadx\tools\LLVM\4.0.3\armv7m-none-eabi\libc\lib/libc.a(floor.o)
		./out/src/duk/duktape.o (floor)
C:\Users\nikol\projects\quectel\development\customer\threadx\tools\LLVM\4.0.3\armv7m-none-eabi\libc\lib/libc.a(fmod.o)
		./out/src/duk/duktape.o (fmod)
C:\Users\nikol\projects\quectel\development\customer\threadx\tools\LLVM\4.0.3\armv7m-none-eabi\libc\lib/libc.a(log.o)
		./out/src/duk/duktape.o (log)
C:\Users\nikol\projects\quectel\development\customer\threadx\tools\LLVM\4.0.3\armv7m-none-eabi\libc\lib/libc.a(pow.o)
		./out/src/duk/duktape.o (pow)
C:\Users\nikol\projects\quectel\development\customer\threadx\tools\LLVM\4.0.3\armv7m-none-eabi\libc\lib/libc.a(scalbn.o)
		C:\Users\nikol\projects\quectel\development\customer\threadx\tools\LLVM\4.0.3\armv7m-none-eabi\libc\lib/libc.a(exp.o) (scalbn)
C:\Users\nikol\projects\quectel\development\customer\threadx\tools\LLVM\4.0.3\armv7m-none-eabi\libc\lib/libc.a(sin.o)
		./out/src/duk/duktape.o (sin)
C:\Users\nikol\projects\quectel\development\customer\threadx\tools\LLVM\4.0.3\armv7m-none-eabi\libc\lib/libc.a(tan.o)
		./out/src/duk/duktape.o (tan)
C:\Users\nikol\projects\quectel\development\customer\threadx\tools\LLVM\4.0.3\armv7m-none-eabi\libc\lib/libc.a(getopt.o)
		./out/common/src/cli.o (getopt)
C:\Users\nikol\projects\quectel\development\customer\threadx\tools\LLVM\4.0.3\armv7m-none-eabi\libc\lib/libc.a(mbtowc.o)
		C:\Users\nikol\projects\quectel\development\customer\threadx\tools\LLVM\4.0.3\armv7m-none-eabi\libc\lib/libc.a(getopt.o) (mbtowc)
C:\Users\nikol\projects\quectel\development\customer\threadx\tools\LLVM\4.0.3\armv7m-none-eabi\libc\lib/libc.a(longjmp.o)
		./out/src/duk/duktape.o (longjmp)
C:\Users\nikol\projects\quectel\development\customer\threadx\tools\LLVM\4.0.3\armv7m-none-eabi\libc\lib/libc.a(setjmp.o)
		./out/src/duk/duktape.o (setjmp)
C:\Users\nikol\projects\quectel\development\customer\threadx\tools\LLVM\4.0.3\armv7m-none-eabi\libc\lib/libc.a(vfprintf.o)
		./out/src/duk/duktape.o (vsnprintf)
C:\Users\nikol\projects\quectel\development\customer\threadx\tools\LLVM\4.0.3\armv7m-none-eabi\libc\lib/libc.a(flockfile.o)
		C:\Users\nikol\projects\quectel\development\customer\threadx\tools\LLVM\4.0.3\armv7m-none-eabi\libc\lib/libc.a(getopt.o) (flockfile)
C:\Users\nikol\projects\quectel\development\customer\threadx\tools\LLVM\4.0.3\armv7m-none-eabi\libc\lib/libc.a(fputs.o)
		C:\Users\nikol\projects\quectel\development\customer\threadx\tools\LLVM\4.0.3\armv7m-none-eabi\libc\lib/libc.a(getopt.o) (fputs)
C:\Users\nikol\projects\quectel\development\customer\threadx\tools\LLVM\4.0.3\armv7m-none-eabi\libc\lib/libc.a(ftrylockfile.o)
		C:\Users\nikol\projects\quectel\development\customer\threadx\tools\LLVM\4.0.3\armv7m-none-eabi\libc\lib/libc.a(flockfile.o) (ftrylockfile)
C:\Users\nikol\projects\quectel\development\customer\threadx\tools\LLVM\4.0.3\armv7m-none-eabi\libc\lib/libc.a(funlockfile.o)
		C:\Users\nikol\projects\quectel\development\customer\threadx\tools\LLVM\4.0.3\armv7m-none-eabi\libc\lib/libc.a(getopt.o) (funlockfile)
C:\Users\nikol\projects\quectel\development\customer\threadx\tools\LLVM\4.0.3\armv7m-none-eabi\libc\lib/libc.a(fwrite.o)
		C:\Users\nikol\projects\quectel\development\customer\threadx\tools\LLVM\4.0.3\armv7m-none-eabi\libc\lib/libc.a(vfprintf.o) (__fwritex)
C:\Users\nikol\projects\quectel\development\customer\threadx\tools\LLVM\4.0.3\armv7m-none-eabi\libc\lib/libc.a(putc.o)
		C:\Users\nikol\projects\quectel\development\customer\threadx\tools\LLVM\4.0.3\armv7m-none-eabi\libc\lib/libc.a(getopt.o) (putc)
C:\Users\nikol\projects\quectel\development\customer\threadx\tools\LLVM\4.0.3\armv7m-none-eabi\libc\lib/libc.a(snprintf.o)
		./out/./src/native/timers.o (snprintf)
C:\Users\nikol\projects\quectel\development\customer\threadx\tools\LLVM\4.0.3\armv7m-none-eabi\libc\lib/libc.a(sprintf.o)
		./out/src/duk/duktape.o (sprintf)
C:\Users\nikol\projects\quectel\development\customer\threadx\tools\LLVM\4.0.3\armv7m-none-eabi\libc\lib/libc.a(sscanf.o)
		./out/src/duk/duktape.o (sscanf)
C:\Users\nikol\projects\quectel\development\customer\threadx\tools\LLVM\4.0.3\armv7m-none-eabi\libc\lib/libc.a(stderr.o)
		C:\Users\nikol\projects\quectel\development\customer\threadx\tools\LLVM\4.0.3\armv7m-none-eabi\libc\lib/libc.a(getopt.o) (stderr)
C:\Users\nikol\projects\quectel\development\customer\threadx\tools\LLVM\4.0.3\armv7m-none-eabi\libc\lib/libc.a(vsnprintf.o)
		C:\Users\nikol\projects\quectel\development\customer\threadx\tools\LLVM\4.0.3\armv7m-none-eabi\libc\lib/libc.a(vfprintf.o) (vsnprintf_full)
C:\Users\nikol\projects\quectel\development\customer\threadx\tools\LLVM\4.0.3\armv7m-none-eabi\libc\lib/libc.a(vsprintf.o)
		C:\Users\nikol\projects\quectel\development\customer\threadx\tools\LLVM\4.0.3\armv7m-none-eabi\libc\lib/libc.a(sprintf.o) (vsprintf)
C:\Users\nikol\projects\quectel\development\customer\threadx\tools\LLVM\4.0.3\armv7m-none-eabi\libc\lib/libc.a(vsscanf.o)
		C:\Users\nikol\projects\quectel\development\customer\threadx\tools\LLVM\4.0.3\armv7m-none-eabi\libc\lib/libc.a(sscanf.o) (vsscanf)
C:\Users\nikol\projects\quectel\development\customer\threadx\tools\LLVM\4.0.3\armv7m-none-eabi\libc\lib/libc.a(__aeabi_memclr.o)
		C:\Users\nikol\projects\quectel\development\customer\threadx\tools\LLVM\4.0.3\armv7m-none-eabi\libc\lib/libc.a(vfprintf.o) (__aeabi_memclr4)
C:\Users\nikol\projects\quectel\development\customer\threadx\tools\LLVM\4.0.3\armv7m-none-eabi\libc\lib/libc.a(__aeabi_memcpy.o)
		C:\Users\nikol\projects\quectel\development\customer\threadx\tools\LLVM\4.0.3\armv7m-none-eabi\libc\lib/libc.a(vsnprintf.o) (__aeabi_memcpy8)
C:\Users\nikol\projects\quectel\development\customer\threadx\tools\LLVM\4.0.3\armv7m-none-eabi\libc\lib/libc.a(memcpy_le.o)
		./out/common/src/malloc.o (memcpy)
C:\Users\nikol\projects\quectel\development\customer\threadx\tools\LLVM\4.0.3\armv7m-none-eabi\libc\lib/libc.a(memset_nofp_armv7.o)
		./out/common/src/malloc.o (memset)
C:\Users\nikol\projects\quectel\development\customer\threadx\tools\LLVM\4.0.3\armv7m-none-eabi\libc\lib/libc.a(memchr.o)
		./out/src/duk/duktape.o (memchr)
C:\Users\nikol\projects\quectel\development\customer\threadx\tools\LLVM\4.0.3\armv7m-none-eabi\libc\lib/libc.a(memcmp.o)
		./out/src/duk/duktape.o (memcmp)
C:\Users\nikol\projects\quectel\development\customer\threadx\tools\LLVM\4.0.3\armv7m-none-eabi\libc\lib/libc.a(memmove.o)
		./out/src/duk/duktape.o (memmove)
C:\Users\nikol\projects\quectel\development\customer\threadx\tools\LLVM\4.0.3\armv7m-none-eabi\libc\lib/libc.a(strchr.o)
		./out/common/src/cli.o (strchr)
C:\Users\nikol\projects\quectel\development\customer\threadx\tools\LLVM\4.0.3\armv7m-none-eabi\libc\lib/libc.a(strchrnul.o)
		C:\Users\nikol\projects\quectel\development\customer\threadx\tools\LLVM\4.0.3\armv7m-none-eabi\libc\lib/libc.a(setlocale.o) (__strchrnul)
C:\Users\nikol\projects\quectel\development\customer\threadx\tools\LLVM\4.0.3\armv7m-none-eabi\libc\lib/libc.a(strcmp.o)
		./out/common/src/file.o (strcmp)
C:\Users\nikol\projects\quectel\development\customer\threadx\tools\LLVM\4.0.3\armv7m-none-eabi\libc\lib/libc.a(strdup.o)
		./out/common/src/cli.o (strdup)
C:\Users\nikol\projects\quectel\development\customer\threadx\tools\LLVM\4.0.3\armv7m-none-eabi\libc\lib/libc.a(strlen.o)
		./out/common/src/retarget.o (strlen)
C:\Users\nikol\projects\quectel\development\customer\threadx\tools\LLVM\4.0.3\armv7m-none-eabi\libc\lib/libc.a(strncmp.o)
		./out/./src/native/gpio.o (strncmp)
C:\Users\nikol\projects\quectel\development\customer\threadx\tools\LLVM\4.0.3\armv7m-none-eabi\libc\lib/libc.a(strncpy.o)
		./out/common/src/file.o (strncpy)
C:\Users\nikol\projects\quectel\development\customer\threadx\tools\LLVM\4.0.3\armv7m-none-eabi\libc\lib/libc.a(strtok.o)
		./out/common/src/cli.o (strtok)
C:\Users\nikol\projects\quectel\development\customer\threadx\tools\LLVM\4.0.3\armv7m-none-eabi\libc\lib/libc.a(__lock.o)
		C:\Users\nikol\projects\quectel\development\customer\threadx\tools\LLVM\4.0.3\armv7m-none-eabi\libc\lib/libc.a(setlocale.o) (__lock)
C:\Users\nikol\projects\quectel\development\customer\threadx\tools\LLVM\4.0.3\armv7m-none-eabi\libc\lib/libc.a(__wait.o)
		C:\Users\nikol\projects\quectel\development\customer\threadx\tools\LLVM\4.0.3\armv7m-none-eabi\libc\lib/libc.a(flockfile.o) (__wait)
C:\Users\nikol\projects\quectel\development\customer\threadx\tools\LLVM\4.0.3\armv7m-none-eabi\libc\lib/libc.a(mktime.o)
		./out/src/duk/duktape.o (mktime)
C:\Users\nikol\projects\quectel\development\customer\threadx\tools\LLVM\4.0.3\armv7m-none-eabi\libc\lib/libc.a(strftime.o)
		./out/src/duk/duktape.o (strftime)
C:\Users\nikol\projects\quectel\development\customer\threadx\tools\LLVM\4.0.3\armv7m-none-eabi\libc\lib/libc.a(strptime.o)
		./out/src/duk/duktape.o (strptime)
C:\Users\nikol\projects\quectel\development\customer\threadx\tools\LLVM\4.0.3\armv7m-none-eabi\libc\lib/libc.a(write.o)
		./out/common/src/cli.o (write)
C:\Users\nikol\projects\quectel\development\customer\threadx\tools\LLVM\4.0.3\armv7m-none-eabi\libc\lib/libc.a(__errno_location.o)
		C:\Users\nikol\projects\quectel\development\customer\threadx\tools\LLVM\4.0.3\armv7m-none-eabi\libc\lib/libc.a(mbtowc.o) (__errno_location)
C:\Users\nikol\projects\quectel\development\customer\threadx\tools\LLVM\4.0.3\armv7m-none-eabi\libc\lib/libc.a(strerror.o)
		C:\Users\nikol\projects\quectel\development\customer\threadx\tools\LLVM\4.0.3\armv7m-none-eabi\libc\lib/libc.a(vfprintf.o) (strerror)
C:\Users\nikol\projects\quectel\development\customer\threadx\tools\LLVM\4.0.3\armv7m-none-eabi\libc\lib/libc.a(libc.o)
		C:\Users\nikol\projects\quectel\development\customer\threadx\tools\LLVM\4.0.3\armv7m-none-eabi\libc\lib/libc.a(setlocale.o) (__libc)
C:\Users\nikol\projects\quectel\development\customer\threadx\tools\LLVM\4.0.3\armv7m-none-eabi\libc\lib/libc.a(syscall_ret.o)
		C:\Users\nikol\projects\quectel\development\customer\threadx\tools\LLVM\4.0.3\armv7m-none-eabi\libc\lib/libc.a(write.o) (__syscall_ret)
C:\Users\nikol\projects\quectel\development\customer\threadx\tools\LLVM\4.0.3\armv7m-none-eabi\libc\lib/libc.a(__lctrans.o)
		C:\Users\nikol\projects\quectel\development\customer\threadx\tools\LLVM\4.0.3\armv7m-none-eabi\libc\lib/libc.a(strerror.o) (__lctrans)
C:\Users\nikol\projects\quectel\development\customer\threadx\tools\LLVM\4.0.3\armv7m-none-eabi\libc\lib/libc.a(langinfo.o)
		C:\Users\nikol\projects\quectel\development\customer\threadx\tools\LLVM\4.0.3\armv7m-none-eabi\libc\lib/libc.a(strftime.o) (__nl_langinfo_l)
C:\Users\nikol\projects\quectel\development\customer\threadx\tools\LLVM\4.0.3\armv7m-none-eabi\libc\lib/libc.a(locale_map.o)
		C:\Users\nikol\projects\quectel\development\customer\threadx\tools\LLVM\4.0.3\armv7m-none-eabi\libc\lib/libc.a(setlocale.o) (__get_locale)
C:\Users\nikol\projects\quectel\development\customer\threadx\tools\LLVM\4.0.3\armv7m-none-eabi\libc\lib/libc.a(__cos.o)
		C:\Users\nikol\projects\quectel\development\customer\threadx\tools\LLVM\4.0.3\armv7m-none-eabi\libc\lib/libc.a(cos.o) (__cos)
C:\Users\nikol\projects\quectel\development\customer\threadx\tools\LLVM\4.0.3\armv7m-none-eabi\libc\lib/libc.a(__rem_pio2.o)
		C:\Users\nikol\projects\quectel\development\customer\threadx\tools\LLVM\4.0.3\armv7m-none-eabi\libc\lib/libc.a(cos.o) (__rem_pio2)
C:\Users\nikol\projects\quectel\development\customer\threadx\tools\LLVM\4.0.3\armv7m-none-eabi\libc\lib/libc.a(__rem_pio2_large.o)
		C:\Users\nikol\projects\quectel\development\customer\threadx\tools\LLVM\4.0.3\armv7m-none-eabi\libc\lib/libc.a(__rem_pio2.o) (__rem_pio2_large)
C:\Users\nikol\projects\quectel\development\customer\threadx\tools\LLVM\4.0.3\armv7m-none-eabi\libc\lib/libc.a(__sin.o)
		C:\Users\nikol\projects\quectel\development\customer\threadx\tools\LLVM\4.0.3\armv7m-none-eabi\libc\lib/libc.a(cos.o) (__sin)
C:\Users\nikol\projects\quectel\development\customer\threadx\tools\LLVM\4.0.3\armv7m-none-eabi\libc\lib/libc.a(__tan.o)
		C:\Users\nikol\projects\quectel\development\customer\threadx\tools\LLVM\4.0.3\armv7m-none-eabi\libc\lib/libc.a(tan.o) (__tan)
C:\Users\nikol\projects\quectel\development\customer\threadx\tools\LLVM\4.0.3\armv7m-none-eabi\libc\lib/libc.a(fabs.o)
		C:\Users\nikol\projects\quectel\development\customer\threadx\tools\LLVM\4.0.3\armv7m-none-eabi\libc\lib/libc.a(asin.o) (fabs)
C:\Users\nikol\projects\quectel\development\customer\threadx\tools\LLVM\4.0.3\armv7m-none-eabi\libc\lib/libc.a(munmap.o)
		C:\Users\nikol\projects\quectel\development\customer\threadx\tools\LLVM\4.0.3\armv7m-none-eabi\libc\lib/libc.a(locale_map.o) (__munmap)
C:\Users\nikol\projects\quectel\development\customer\threadx\tools\LLVM\4.0.3\armv7m-none-eabi\libc\lib/libc.a(internal.o)
		C:\Users\nikol\projects\quectel\development\customer\threadx\tools\LLVM\4.0.3\armv7m-none-eabi\libc\lib/libc.a(mbtowc.o) (__fsmu8)
C:\Users\nikol\projects\quectel\development\customer\threadx\tools\LLVM\4.0.3\armv7m-none-eabi\libc\lib/libc.a(wctomb.o)
		C:\Users\nikol\projects\quectel\development\customer\threadx\tools\LLVM\4.0.3\armv7m-none-eabi\libc\lib/libc.a(vfprintf.o) (wctomb)
C:\Users\nikol\projects\quectel\development\customer\threadx\tools\LLVM\4.0.3\armv7m-none-eabi\libc\lib/libc.a(__overflow.o)
		C:\Users\nikol\projects\quectel\development\customer\threadx\tools\LLVM\4.0.3\armv7m-none-eabi\libc\lib/libc.a(putc.o) (__overflow)
C:\Users\nikol\projects\quectel\development\customer\threadx\tools\LLVM\4.0.3\armv7m-none-eabi\libc\lib/libc.a(__string_read.o)
		C:\Users\nikol\projects\quectel\development\customer\threadx\tools\LLVM\4.0.3\armv7m-none-eabi\libc\lib/libc.a(vsscanf.o) (__string_read)
C:\Users\nikol\projects\quectel\development\customer\threadx\tools\LLVM\4.0.3\armv7m-none-eabi\libc\lib/libc.a(__towrite.o)
		C:\Users\nikol\projects\quectel\development\customer\threadx\tools\LLVM\4.0.3\armv7m-none-eabi\libc\lib/libc.a(fwrite.o) (__towrite)
C:\Users\nikol\projects\quectel\development\customer\threadx\tools\LLVM\4.0.3\armv7m-none-eabi\libc\lib/libc.a(__lockfile.o)
		C:\Users\nikol\projects\quectel\development\customer\threadx\tools\LLVM\4.0.3\armv7m-none-eabi\libc\lib/libc.a(vfprintf.o) (__lockfile)
C:\Users\nikol\projects\quectel\development\customer\threadx\tools\LLVM\4.0.3\armv7m-none-eabi\libc\lib/libc.a(__stdio_close.o)
		C:\Users\nikol\projects\quectel\development\customer\threadx\tools\LLVM\4.0.3\armv7m-none-eabi\libc\lib/libc.a(stderr.o) (__stdio_close)
C:\Users\nikol\projects\quectel\development\customer\threadx\tools\LLVM\4.0.3\armv7m-none-eabi\libc\lib/libc.a(__stdio_seek.o)
		C:\Users\nikol\projects\quectel\development\customer\threadx\tools\LLVM\4.0.3\armv7m-none-eabi\libc\lib/libc.a(stderr.o) (__stdio_seek)
C:\Users\nikol\projects\quectel\development\customer\threadx\tools\LLVM\4.0.3\armv7m-none-eabi\libc\lib/libc.a(__stdio_write.o)
		C:\Users\nikol\projects\quectel\development\customer\threadx\tools\LLVM\4.0.3\armv7m-none-eabi\libc\lib/libc.a(stderr.o) (__stdio_write)
C:\Users\nikol\projects\quectel\development\customer\threadx\tools\LLVM\4.0.3\armv7m-none-eabi\libc\lib/libc.a(vfscanf.o)
		C:\Users\nikol\projects\quectel\development\customer\threadx\tools\LLVM\4.0.3\armv7m-none-eabi\libc\lib/libc.a(vsscanf.o) (vfscanf)
C:\Users\nikol\projects\quectel\development\customer\threadx\tools\LLVM\4.0.3\armv7m-none-eabi\libc\lib/libc.a(abs.o)
		C:\Users\nikol\projects\quectel\development\customer\threadx\tools\LLVM\4.0.3\armv7m-none-eabi\libc\lib/libc.a(strftime.o) (abs)
C:\Users\nikol\projects\quectel\development\customer\threadx\tools\LLVM\4.0.3\armv7m-none-eabi\libc\lib/libc.a(strtol.o)
		C:\Users\nikol\projects\quectel\development\customer\threadx\tools\LLVM\4.0.3\armv7m-none-eabi\libc\lib/libc.a(strftime.o) (strtoul)
C:\Users\nikol\projects\quectel\development\customer\threadx\tools\LLVM\4.0.3\armv7m-none-eabi\libc\lib/libc.a(stpncpy.o)
		C:\Users\nikol\projects\quectel\development\customer\threadx\tools\LLVM\4.0.3\armv7m-none-eabi\libc\lib/libc.a(strncpy.o) (__stpncpy)
C:\Users\nikol\projects\quectel\development\customer\threadx\tools\LLVM\4.0.3\armv7m-none-eabi\libc\lib/libc.a(strcspn.o)
		C:\Users\nikol\projects\quectel\development\customer\threadx\tools\LLVM\4.0.3\armv7m-none-eabi\libc\lib/libc.a(strtok.o) (strcspn)
C:\Users\nikol\projects\quectel\development\customer\threadx\tools\LLVM\4.0.3\armv7m-none-eabi\libc\lib/libc.a(strncasecmp.o)
		C:\Users\nikol\projects\quectel\development\customer\threadx\tools\LLVM\4.0.3\armv7m-none-eabi\libc\lib/libc.a(strptime.o) (strncasecmp)
C:\Users\nikol\projects\quectel\development\customer\threadx\tools\LLVM\4.0.3\armv7m-none-eabi\libc\lib/libc.a(strspn.o)
		C:\Users\nikol\projects\quectel\development\customer\threadx\tools\LLVM\4.0.3\armv7m-none-eabi\libc\lib/libc.a(strtok.o) (strspn)
C:\Users\nikol\projects\quectel\development\customer\threadx\tools\LLVM\4.0.3\armv7m-none-eabi\libc\lib/libc.a(__syscall_cp.o)
		C:\Users\nikol\projects\quectel\development\customer\threadx\tools\LLVM\4.0.3\armv7m-none-eabi\libc\lib/libc.a(write.o) (__syscall_cp)
C:\Users\nikol\projects\quectel\development\customer\threadx\tools\LLVM\4.0.3\armv7m-none-eabi\libc\lib/libc.a(__map_file.o)
		C:\Users\nikol\projects\quectel\development\customer\threadx\tools\LLVM\4.0.3\armv7m-none-eabi\libc\lib/libc.a(locale_map.o) (__map_file)
C:\Users\nikol\projects\quectel\development\customer\threadx\tools\LLVM\4.0.3\armv7m-none-eabi\libc\lib/libc.a(__secs_to_tm.o)
		C:\Users\nikol\projects\quectel\development\customer\threadx\tools\LLVM\4.0.3\armv7m-none-eabi\libc\lib/libc.a(mktime.o) (__secs_to_tm)
C:\Users\nikol\projects\quectel\development\customer\threadx\tools\LLVM\4.0.3\armv7m-none-eabi\libc\lib/libc.a(__tm_to_secs.o)
		C:\Users\nikol\projects\quectel\development\customer\threadx\tools\LLVM\4.0.3\armv7m-none-eabi\libc\lib/libc.a(mktime.o) (__tm_to_secs)
C:\Users\nikol\projects\quectel\development\customer\threadx\tools\LLVM\4.0.3\armv7m-none-eabi\libc\lib/libc.a(__tz.o)
		C:\Users\nikol\projects\quectel\development\customer\threadx\tools\LLVM\4.0.3\armv7m-none-eabi\libc\lib/libc.a(mktime.o) (__secs_to_zone)
C:\Users\nikol\projects\quectel\development\customer\threadx\tools\LLVM\4.0.3\armv7m-none-eabi\libc\lib/libc.a(__year_to_secs.o)
		C:\Users\nikol\projects\quectel\development\customer\threadx\tools\LLVM\4.0.3\armv7m-none-eabi\libc\lib/libc.a(__tm_to_secs.o) (__year_to_secs)
C:\Users\nikol\projects\quectel\development\customer\threadx\tools\LLVM\4.0.3\armv7m-none-eabi\libc\lib/libc.a(tolower.o)
		C:\Users\nikol\projects\quectel\development\customer\threadx\tools\LLVM\4.0.3\armv7m-none-eabi\libc\lib/libc.a(strncasecmp.o) (tolower)
C:\Users\nikol\projects\quectel\development\customer\threadx\tools\LLVM\4.0.3\armv7m-none-eabi\libc\lib/libc.a(getenv.o)
		C:\Users\nikol\projects\quectel\development\customer\threadx\tools\LLVM\4.0.3\armv7m-none-eabi\libc\lib/libc.a(locale_map.o) (getenv)
C:\Users\nikol\projects\quectel\development\customer\threadx\tools\LLVM\4.0.3\armv7m-none-eabi\libc\lib/libc.a(syscall.o)
		C:\Users\nikol\projects\quectel\development\customer\threadx\tools\LLVM\4.0.3\armv7m-none-eabi\libc\lib/libc.a(__syscall_cp.o) (__syscall)
C:\Users\nikol\projects\quectel\development\customer\threadx\tools\LLVM\4.0.3\armv7m-none-eabi\libc\lib/libc.a(floatscan.o)
		C:\Users\nikol\projects\quectel\development\customer\threadx\tools\LLVM\4.0.3\armv7m-none-eabi\libc\lib/libc.a(vfscanf.o) (__floatscan)
C:\Users\nikol\projects\quectel\development\customer\threadx\tools\LLVM\4.0.3\armv7m-none-eabi\libc\lib/libc.a(intscan.o)
		C:\Users\nikol\projects\quectel\development\customer\threadx\tools\LLVM\4.0.3\armv7m-none-eabi\libc\lib/libc.a(vfscanf.o) (__intscan)
C:\Users\nikol\projects\quectel\development\customer\threadx\tools\LLVM\4.0.3\armv7m-none-eabi\libc\lib/libc.a(shgetc.o)
		C:\Users\nikol\projects\quectel\development\customer\threadx\tools\LLVM\4.0.3\armv7m-none-eabi\libc\lib/libc.a(vfscanf.o) (__shlim)
C:\Users\nikol\projects\quectel\development\customer\threadx\tools\LLVM\4.0.3\armv7m-none-eabi\libc\lib/libc.a(__mo_lookup.o)
		C:\Users\nikol\projects\quectel\development\customer\threadx\tools\LLVM\4.0.3\armv7m-none-eabi\libc\lib/libc.a(locale_map.o) (__mo_lookup)
C:\Users\nikol\projects\quectel\development\customer\threadx\tools\LLVM\4.0.3\armv7m-none-eabi\libc\lib/libc.a(c_locale.o)
		C:\Users\nikol\projects\quectel\development\customer\threadx\tools\LLVM\4.0.3\armv7m-none-eabi\libc\lib/libc.a(locale_map.o) (__c_dot_utf8)
C:\Users\nikol\projects\quectel\development\customer\threadx\tools\LLVM\4.0.3\armv7m-none-eabi\libc\lib/libc.a(copysignl.o)
		C:\Users\nikol\projects\quectel\development\customer\threadx\tools\LLVM\4.0.3\armv7m-none-eabi\libc\lib/libc.a(floatscan.o) (copysignl)
C:\Users\nikol\projects\quectel\development\customer\threadx\tools\LLVM\4.0.3\armv7m-none-eabi\libc\lib/libc.a(fmodl.o)
		C:\Users\nikol\projects\quectel\development\customer\threadx\tools\LLVM\4.0.3\armv7m-none-eabi\libc\lib/libc.a(floatscan.o) (fmodl)
C:\Users\nikol\projects\quectel\development\customer\threadx\tools\LLVM\4.0.3\armv7m-none-eabi\libc\lib/libc.a(scalbnl.o)
		C:\Users\nikol\projects\quectel\development\customer\threadx\tools\LLVM\4.0.3\armv7m-none-eabi\libc\lib/libc.a(floatscan.o) (scalbnl)
C:\Users\nikol\projects\quectel\development\customer\threadx\tools\LLVM\4.0.3\armv7m-none-eabi\libc\lib/libc.a(mmap.o)
		C:\Users\nikol\projects\quectel\development\customer\threadx\tools\LLVM\4.0.3\armv7m-none-eabi\libc\lib/libc.a(__map_file.o) (__mmap)
C:\Users\nikol\projects\quectel\development\customer\threadx\tools\LLVM\4.0.3\armv7m-none-eabi\libc\lib/libc.a(mbrtowc.o)
		C:\Users\nikol\projects\quectel\development\customer\threadx\tools\LLVM\4.0.3\armv7m-none-eabi\libc\lib/libc.a(vfscanf.o) (mbrtowc)
C:\Users\nikol\projects\quectel\development\customer\threadx\tools\LLVM\4.0.3\armv7m-none-eabi\libc\lib/libc.a(mbsinit.o)
		C:\Users\nikol\projects\quectel\development\customer\threadx\tools\LLVM\4.0.3\armv7m-none-eabi\libc\lib/libc.a(vfscanf.o) (mbsinit)
C:\Users\nikol\projects\quectel\development\customer\threadx\tools\LLVM\4.0.3\armv7m-none-eabi\libc\lib/libc.a(wcrtomb.o)
		C:\Users\nikol\projects\quectel\development\customer\threadx\tools\LLVM\4.0.3\armv7m-none-eabi\libc\lib/libc.a(wctomb.o) (wcrtomb)
C:\Users\nikol\projects\quectel\development\customer\threadx\tools\LLVM\4.0.3\armv7m-none-eabi\libc\lib/libc.a(__stdio_exit.o)
		C:\Users\nikol\projects\quectel\development\customer\threadx\tools\LLVM\4.0.3\armv7m-none-eabi\libc\lib/libc.a(__towrite.o) (__stdio_exit_needed)
C:\Users\nikol\projects\quectel\development\customer\threadx\tools\LLVM\4.0.3\armv7m-none-eabi\libc\lib/libc.a(__uflow.o)
		C:\Users\nikol\projects\quectel\development\customer\threadx\tools\LLVM\4.0.3\armv7m-none-eabi\libc\lib/libc.a(shgetc.o) (__uflow)
C:\Users\nikol\projects\quectel\development\customer\threadx\tools\LLVM\4.0.3\armv7m-none-eabi\libc\lib/libc.a(ofl.o)
		C:\Users\nikol\projects\quectel\development\customer\threadx\tools\LLVM\4.0.3\armv7m-none-eabi\libc\lib/libc.a(__stdio_exit.o) (__ofl_lock)
C:\Users\nikol\projects\quectel\development\customer\threadx\tools\LLVM\4.0.3\armv7m-none-eabi\libc\lib/libc.a(__month_to_secs.o)
		C:\Users\nikol\projects\quectel\development\customer\threadx\tools\LLVM\4.0.3\armv7m-none-eabi\libc\lib/libc.a(__tm_to_secs.o) (__month_to_secs)
C:\Users\nikol\projects\quectel\development\customer\threadx\tools\LLVM\4.0.3\armv7m-none-eabi\libc\lib/libc.a(__environ.o)
		C:\Users\nikol\projects\quectel\development\customer\threadx\tools\LLVM\4.0.3\armv7m-none-eabi\libc\lib/libc.a(getenv.o) (__environ)
C:\Users\nikol\projects\quectel\development\customer\threadx\tools\LLVM\4.0.3\armv7m-none-eabi\libc\lib/libc.a(copysign.o)
		C:\Users\nikol\projects\quectel\development\customer\threadx\tools\LLVM\4.0.3\armv7m-none-eabi\libc\lib/libc.a(copysignl.o) (copysign)
C:\Users\nikol\projects\quectel\development\customer\threadx\tools\LLVM\4.0.3\armv7m-none-eabi\libc\lib/libc.a(__toread.o)
		C:\Users\nikol\projects\quectel\development\customer\threadx\tools\LLVM\4.0.3\armv7m-none-eabi\libc\lib/libc.a(__uflow.o) (__toread)
C:\Users\nikol\projects\quectel\development\customer\threadx\tools\LLVM\4.0.3\lib\clang\4.0.3\lib\baremetal/libclang_rt.builtins-armv7m.a(aeabi_dcmp.S.obj)
		./out/src/duk/duktape.o (__aeabi_dcmpeq)
C:\Users\nikol\projects\quectel\development\customer\threadx\tools\LLVM\4.0.3\lib\clang\4.0.3\lib\baremetal/libclang_rt.builtins-armv7m.a(aeabi_ldivmod.S.obj)
		./out/src/duk/duktape.o (__aeabi_ldivmod)
C:\Users\nikol\projects\quectel\development\customer\threadx\tools\LLVM\4.0.3\lib\clang\4.0.3\lib\baremetal/libclang_rt.builtins-armv7m.a(aeabi_uldivmod.S.obj)
		./out/common/src/printf.o (__aeabi_uldivmod)
C:\Users\nikol\projects\quectel\development\customer\threadx\tools\LLVM\4.0.3\lib\clang\4.0.3\lib\baremetal/libclang_rt.builtins-armv7m.a(adddf3.c.obj)
		./out/common/src/printf.o (__aeabi_dadd)
C:\Users\nikol\projects\quectel\development\customer\threadx\tools\LLVM\4.0.3\lib\clang\4.0.3\lib\baremetal/libclang_rt.builtins-armv7m.a(comparedf2.c.obj)
		./out/common/src/printf.o (__aeabi_dcmpun)
C:\Users\nikol\projects\quectel\development\customer\threadx\tools\LLVM\4.0.3\lib\clang\4.0.3\lib\baremetal/libclang_rt.builtins-armv7m.a(divdf3.c.obj)
		./out/common/src/printf.o (__aeabi_ddiv)
C:\Users\nikol\projects\quectel\development\customer\threadx\tools\LLVM\4.0.3\lib\clang\4.0.3\lib\baremetal/libclang_rt.builtins-armv7m.a(divmoddi4.c.obj)
		C:\Users\nikol\projects\quectel\development\customer\threadx\tools\LLVM\4.0.3\lib\clang\4.0.3\lib\baremetal/libclang_rt.builtins-armv7m.a(aeabi_ldivmod.S.obj) (__divmoddi4)
C:\Users\nikol\projects\quectel\development\customer\threadx\tools\LLVM\4.0.3\lib\clang\4.0.3\lib\baremetal/libclang_rt.builtins-armv7m.a(extendsfdf2.c.obj)
		./out/src/duk/duktape.o (__aeabi_f2d)
C:\Users\nikol\projects\quectel\development\customer\threadx\tools\LLVM\4.0.3\lib\clang\4.0.3\lib\baremetal/libclang_rt.builtins-armv7m.a(fixdfdi.c.obj)
		./out/src/duk/duktape.o (__aeabi_d2lz)
C:\Users\nikol\projects\quectel\development\customer\threadx\tools\LLVM\4.0.3\lib\clang\4.0.3\lib\baremetal/libclang_rt.builtins-armv7m.a(fixdfsi.c.obj)
		./out/common/src/printf.o (__aeabi_d2iz)
C:\Users\nikol\projects\quectel\development\customer\threadx\tools\LLVM\4.0.3\lib\clang\4.0.3\lib\baremetal/libclang_rt.builtins-armv7m.a(fixunsdfdi.c.obj)
		C:\Users\nikol\projects\quectel\development\customer\threadx\tools\LLVM\4.0.3\lib\clang\4.0.3\lib\baremetal/libclang_rt.builtins-armv7m.a(fixdfdi.c.obj) (__fixunsdfdi)
C:\Users\nikol\projects\quectel\development\customer\threadx\tools\LLVM\4.0.3\lib\clang\4.0.3\lib\baremetal/libclang_rt.builtins-armv7m.a(fixunsdfsi.c.obj)
		./out/common/src/printf.o (__aeabi_d2uiz)
C:\Users\nikol\projects\quectel\development\customer\threadx\tools\LLVM\4.0.3\lib\clang\4.0.3\lib\baremetal/libclang_rt.builtins-armv7m.a(floatdidf.c.obj)
		./out/src/duk/duktape.o (__aeabi_l2d)
C:\Users\nikol\projects\quectel\development\customer\threadx\tools\LLVM\4.0.3\lib\clang\4.0.3\lib\baremetal/libclang_rt.builtins-armv7m.a(floatsidf.c.obj)
		./out/common/src/printf.o (__aeabi_i2d)
C:\Users\nikol\projects\quectel\development\customer\threadx\tools\LLVM\4.0.3\lib\clang\4.0.3\lib\baremetal/libclang_rt.builtins-armv7m.a(floatsisf.c.obj)
		C:\Users\nikol\projects\quectel\development\customer\threadx\tools\LLVM\4.0.3\armv7m-none-eabi\libc\lib/libc.a(floatscan.o) (__aeabi_i2f)
C:\Users\nikol\projects\quectel\development\customer\threadx\tools\LLVM\4.0.3\lib\clang\4.0.3\lib\baremetal/libclang_rt.builtins-armv7m.a(floatunsidf.c.obj)
		./out/common/src/printf.o (__aeabi_ui2d)
C:\Users\nikol\projects\quectel\development\customer\threadx\tools\LLVM\4.0.3\lib\clang\4.0.3\lib\baremetal/libclang_rt.builtins-armv7m.a(muldf3.c.obj)
		./out/common/src/printf.o (__aeabi_dmul)
C:\Users\nikol\projects\quectel\development\customer\threadx\tools\LLVM\4.0.3\lib\clang\4.0.3\lib\baremetal/libclang_rt.builtins-armv7m.a(mulsf3.c.obj)
		C:\Users\nikol\projects\quectel\development\customer\threadx\tools\LLVM\4.0.3\armv7m-none-eabi\libc\lib/libc.a(floatscan.o) (__aeabi_fmul)
C:\Users\nikol\projects\quectel\development\customer\threadx\tools\LLVM\4.0.3\lib\clang\4.0.3\lib\baremetal/libclang_rt.builtins-armv7m.a(subdf3.c.obj)
		./out/common/src/printf.o (__aeabi_dsub)
C:\Users\nikol\projects\quectel\development\customer\threadx\tools\LLVM\4.0.3\lib\clang\4.0.3\lib\baremetal/libclang_rt.builtins-armv7m.a(truncdfsf2.c.obj)
		./out/src/duk/duktape.o (__aeabi_d2f)
C:\Users\nikol\projects\quectel\development\customer\threadx\tools\LLVM\4.0.3\lib\clang\4.0.3\lib\baremetal/libclang_rt.builtins-armv7m.a(udivmoddi4.c.obj)
		C:\Users\nikol\projects\quectel\development\customer\threadx\tools\LLVM\4.0.3\lib\clang\4.0.3\lib\baremetal/libclang_rt.builtins-armv7m.a(aeabi_uldivmod.S.obj) (__udivmoddi4)
C:\Users\nikol\projects\quectel\development\customer\threadx\tools\LLVM\4.0.3\lib\clang\4.0.3\lib\baremetal/libclang_rt.builtins-armv7m.a(divdi3.c.obj)
		C:\Users\nikol\projects\quectel\development\customer\threadx\tools\LLVM\4.0.3\lib\clang\4.0.3\lib\baremetal/libclang_rt.builtins-armv7m.a(divmoddi4.c.obj) (__divdi3)

Allocating common symbols
Common symbol	size	file

bytes	0x400	./out/common/src/retarget.o
recv_queue_mem	0x400	./out/common/src/retarget.o
in_buffer	0x2004	./out/common/src/retarget.o
out_tx_done_sem	0x4	./out/common/src/retarget.o
out_tx_mutex	0x4	./out/common/src/retarget.o
recv_queue	0x4	./out/common/src/retarget.o
mem_heap	0x80000	./out/common/src/malloc.o
byte_malloc_mem_pool	0x4	./out/common/src/malloc.o
at_msg_mem	0x80	./out/./src/noomiojs.o
event_mngr_msg_mem	0xc8	./out/./src/noomiojs.o
event_mngr_task_mem	0x3000	./out/./src/noomiojs.o
timer_mem	0x90	./out/./src/noomiojs.o
at_data_queue	0x4	./out/./src/noomiojs.o
at_msg_queue	0x4	./out/./src/noomiojs.o
event_mngr_msg_queue	0x4	./out/./src/noomiojs.o
event_mngr_task_byte_pool	0x4	./out/./src/noomiojs.o
event_mngr_thread_handle	0x4	./out/./src/noomiojs.o
event_mngr_thread_stack	0x4	./out/./src/noomiojs.o
evnt_gatekeeper	0x4	./out/./src/noomiojs.o
evnt_group	0x4	./out/./src/noomiojs.o
timer_pool	0x4	./out/./src/noomiojs.o
worker_thread_handle	0x4	./out/./src/noomiojs.o
worker_thread_stack	0x4	./out/./src/noomiojs.o
gpio_id_tbl	0x38	./out/./src/native/gpio.o
gpio_interrupt_id_tbl	0x38	./out/./src/native/gpio.o
tlmm_config	0x118	./out/./src/native/gpio.o
_txm_module_entry_info	0x4	../../../../Quectel_BG96_QuecOpen_SDK_Package_V3.0.1-AUS/SDK/libs/llvm\txm_lib.lib(txm_module_thread_shell_entry.o)
_txm_module_instance_ptr	0x4	../../../../Quectel_BG96_QuecOpen_SDK_Package_V3.0.1-AUS/SDK/libs/llvm\txm_lib.lib(txm_module_thread_shell_entry.o)
_txm_module_kernel_call_dispatcher	0x4	../../../../Quectel_BG96_QuecOpen_SDK_Package_V3.0.1-AUS/SDK/libs/llvm\txm_lib.lib(txm_module_thread_shell_entry.o)
__libc	0x40	C:\Users\nikol\projects\quectel\development\customer\threadx\tools\LLVM\4.0.3\armv7m-none-eabi\libc\lib/libc.a(libc.o)
__optpos	0x4	C:\Users\nikol\projects\quectel\development\customer\threadx\tools\LLVM\4.0.3\armv7m-none-eabi\libc\lib/libc.a(getopt.o)
optarg	0x4	C:\Users\nikol\projects\quectel\development\customer\threadx\tools\LLVM\4.0.3\armv7m-none-eabi\libc\lib/libc.a(getopt.o)
optopt	0x4	C:\Users\nikol\projects\quectel\development\customer\threadx\tools\LLVM\4.0.3\armv7m-none-eabi\libc\lib/libc.a(getopt.o)

Linker Script and memory map
LOAD ./ldscripts/txm_module_preamble_llvm.o[]
LOAD ./out/common/src/retarget.o[]
LOAD ./out/common/src/malloc.o[]
LOAD ./out/common/src/stubs.o[]
LOAD ./out/common/src/printf.o[]
LOAD ./out/common/src/file.o[]
LOAD ./out/common/src/cli.o[]
LOAD ./out/common/src/time.o[]
LOAD ./out/./src/noomiojs.o[]
LOAD ./out/./src/dummy_date_provider.o[]
LOAD ./out/./src/native/event_mngr.o[]
LOAD ./out/./src/native/timers.o[]
LOAD ./out/./src/native/console.o[]
LOAD ./out/./src/native/gpio.o[]
LOAD ./out/./src/native/at.o[]
LOAD ./out/./src/native/i2c.o[]
LOAD ./out/./src/duk_module_node.o[]
LOAD ./out/src/duk/duktape.o[]
LOAD ../../../../Quectel_BG96_QuecOpen_SDK_Package_V3.0.1-AUS/SDK/libs/llvm\txm_lib.lib(txm_module_thread_shell_entry.o) []
LOAD ../../../../Quectel_BG96_QuecOpen_SDK_Package_V3.0.1-AUS/SDK/libs/llvm\txm_lib.lib(txm_module_callback_request_thread_entry.o) []
LOAD ../../../../Quectel_BG96_QuecOpen_SDK_Package_V3.0.1-AUS/SDK/libs/llvm\txm_lib.lib(txm_module_system_call11.o) []
LOAD ../../../../Quectel_BG96_QuecOpen_SDK_Package_V3.0.1-AUS/SDK/libs/llvm\txm_lib.lib(txm_module_system_call12.o) []
LOAD ../../../../Quectel_BG96_QuecOpen_SDK_Package_V3.0.1-AUS/SDK/libs/llvm\txm_lib.lib(txm_module_system_call4.o) []
LOAD ../../../../Quectel_BG96_QuecOpen_SDK_Package_V3.0.1-AUS/SDK/libs/llvm\txm_lib.lib(txm_module_system_call5.o) []
LOAD ../../../../Quectel_BG96_QuecOpen_SDK_Package_V3.0.1-AUS/SDK/libs/llvm\txm_lib.lib(txm_module_system_call6.o) []
LOAD ../../../../Quectel_BG96_QuecOpen_SDK_Package_V3.0.1-AUS/SDK/libs/llvm\txm_lib.lib(txm_module_system_call7.o) []
LOAD ../../../../Quectel_BG96_QuecOpen_SDK_Package_V3.0.1-AUS/SDK/libs/llvm\txm_lib.lib(txm_module_system_call8.o) []
LOAD C:\Users\nikol\projects\quectel\development\customer\threadx\tools\LLVM\4.0.3\armv7m-none-eabi\libc\lib/libc.a(setlocale.o) []
LOAD C:\Users\nikol\projects\quectel\development\customer\threadx\tools\LLVM\4.0.3\armv7m-none-eabi\libc\lib/libc.a(__fpclassify.o) []
LOAD C:\Users\nikol\projects\quectel\development\customer\threadx\tools\LLVM\4.0.3\armv7m-none-eabi\libc\lib/libc.a(acos.o) []
LOAD C:\Users\nikol\projects\quectel\development\customer\threadx\tools\LLVM\4.0.3\armv7m-none-eabi\libc\lib/libc.a(sqrt.o) []
LOAD C:\Users\nikol\projects\quectel\development\customer\threadx\tools\LLVM\4.0.3\armv7m-none-eabi\libc\lib/libc.a(asin.o) []
LOAD C:\Users\nikol\projects\quectel\development\customer\threadx\tools\LLVM\4.0.3\armv7m-none-eabi\libc\lib/libc.a(atan.o) []
LOAD C:\Users\nikol\projects\quectel\development\customer\threadx\tools\LLVM\4.0.3\armv7m-none-eabi\libc\lib/libc.a(atan2.o) []
LOAD C:\Users\nikol\projects\quectel\development\customer\threadx\tools\LLVM\4.0.3\armv7m-none-eabi\libc\lib/libc.a(ceil.o) []
LOAD C:\Users\nikol\projects\quectel\development\customer\threadx\tools\LLVM\4.0.3\armv7m-none-eabi\libc\lib/libc.a(cos.o) []
LOAD C:\Users\nikol\projects\quectel\development\customer\threadx\tools\LLVM\4.0.3\armv7m-none-eabi\libc\lib/libc.a(exp.o) []
LOAD C:\Users\nikol\projects\quectel\development\customer\threadx\tools\LLVM\4.0.3\armv7m-none-eabi\libc\lib/libc.a(floor.o) []
LOAD C:\Users\nikol\projects\quectel\development\customer\threadx\tools\LLVM\4.0.3\armv7m-none-eabi\libc\lib/libc.a(fmod.o) []
LOAD C:\Users\nikol\projects\quectel\development\customer\threadx\tools\LLVM\4.0.3\armv7m-none-eabi\libc\lib/libc.a(log.o) []
LOAD C:\Users\nikol\projects\quectel\development\customer\threadx\tools\LLVM\4.0.3\armv7m-none-eabi\libc\lib/libc.a(pow.o) []
LOAD C:\Users\nikol\projects\quectel\development\customer\threadx\tools\LLVM\4.0.3\armv7m-none-eabi\libc\lib/libc.a(scalbn.o) []
LOAD C:\Users\nikol\projects\quectel\development\customer\threadx\tools\LLVM\4.0.3\armv7m-none-eabi\libc\lib/libc.a(sin.o) []
LOAD C:\Users\nikol\projects\quectel\development\customer\threadx\tools\LLVM\4.0.3\armv7m-none-eabi\libc\lib/libc.a(tan.o) []
LOAD C:\Users\nikol\projects\quectel\development\customer\threadx\tools\LLVM\4.0.3\armv7m-none-eabi\libc\lib/libc.a(getopt.o) []
LOAD C:\Users\nikol\projects\quectel\development\customer\threadx\tools\LLVM\4.0.3\armv7m-none-eabi\libc\lib/libc.a(mbtowc.o) []
LOAD C:\Users\nikol\projects\quectel\development\customer\threadx\tools\LLVM\4.0.3\armv7m-none-eabi\libc\lib/libc.a(longjmp.o) []
LOAD C:\Users\nikol\projects\quectel\development\customer\threadx\tools\LLVM\4.0.3\armv7m-none-eabi\libc\lib/libc.a(setjmp.o) []
LOAD C:\Users\nikol\projects\quectel\development\customer\threadx\tools\LLVM\4.0.3\armv7m-none-eabi\libc\lib/libc.a(vfprintf.o) []
LOAD C:\Users\nikol\projects\quectel\development\customer\threadx\tools\LLVM\4.0.3\armv7m-none-eabi\libc\lib/libc.a(flockfile.o) []
LOAD C:\Users\nikol\projects\quectel\development\customer\threadx\tools\LLVM\4.0.3\armv7m-none-eabi\libc\lib/libc.a(fputs.o) []
LOAD C:\Users\nikol\projects\quectel\development\customer\threadx\tools\LLVM\4.0.3\armv7m-none-eabi\libc\lib/libc.a(ftrylockfile.o) []
LOAD C:\Users\nikol\projects\quectel\development\customer\threadx\tools\LLVM\4.0.3\armv7m-none-eabi\libc\lib/libc.a(funlockfile.o) []
LOAD C:\Users\nikol\projects\quectel\development\customer\threadx\tools\LLVM\4.0.3\armv7m-none-eabi\libc\lib/libc.a(fwrite.o) []
LOAD C:\Users\nikol\projects\quectel\development\customer\threadx\tools\LLVM\4.0.3\armv7m-none-eabi\libc\lib/libc.a(putc.o) []
LOAD C:\Users\nikol\projects\quectel\development\customer\threadx\tools\LLVM\4.0.3\armv7m-none-eabi\libc\lib/libc.a(snprintf.o) []
LOAD C:\Users\nikol\projects\quectel\development\customer\threadx\tools\LLVM\4.0.3\armv7m-none-eabi\libc\lib/libc.a(sprintf.o) []
LOAD C:\Users\nikol\projects\quectel\development\customer\threadx\tools\LLVM\4.0.3\armv7m-none-eabi\libc\lib/libc.a(sscanf.o) []
LOAD C:\Users\nikol\projects\quectel\development\customer\threadx\tools\LLVM\4.0.3\armv7m-none-eabi\libc\lib/libc.a(stderr.o) []
LOAD C:\Users\nikol\projects\quectel\development\customer\threadx\tools\LLVM\4.0.3\armv7m-none-eabi\libc\lib/libc.a(vsnprintf.o) []
LOAD C:\Users\nikol\projects\quectel\development\customer\threadx\tools\LLVM\4.0.3\armv7m-none-eabi\libc\lib/libc.a(vsprintf.o) []
LOAD C:\Users\nikol\projects\quectel\development\customer\threadx\tools\LLVM\4.0.3\armv7m-none-eabi\libc\lib/libc.a(vsscanf.o) []
LOAD C:\Users\nikol\projects\quectel\development\customer\threadx\tools\LLVM\4.0.3\armv7m-none-eabi\libc\lib/libc.a(__aeabi_memclr.o) []
LOAD C:\Users\nikol\projects\quectel\development\customer\threadx\tools\LLVM\4.0.3\armv7m-none-eabi\libc\lib/libc.a(__aeabi_memcpy.o) []
LOAD C:\Users\nikol\projects\quectel\development\customer\threadx\tools\LLVM\4.0.3\armv7m-none-eabi\libc\lib/libc.a(memcpy_le.o) []
LOAD C:\Users\nikol\projects\quectel\development\customer\threadx\tools\LLVM\4.0.3\armv7m-none-eabi\libc\lib/libc.a(memset_nofp_armv7.o) []
LOAD C:\Users\nikol\projects\quectel\development\customer\threadx\tools\LLVM\4.0.3\armv7m-none-eabi\libc\lib/libc.a(memchr.o) []
LOAD C:\Users\nikol\projects\quectel\development\customer\threadx\tools\LLVM\4.0.3\armv7m-none-eabi\libc\lib/libc.a(memcmp.o) []
LOAD C:\Users\nikol\projects\quectel\development\customer\threadx\tools\LLVM\4.0.3\armv7m-none-eabi\libc\lib/libc.a(memmove.o) []
LOAD C:\Users\nikol\projects\quectel\development\customer\threadx\tools\LLVM\4.0.3\armv7m-none-eabi\libc\lib/libc.a(strchr.o) []
LOAD C:\Users\nikol\projects\quectel\development\customer\threadx\tools\LLVM\4.0.3\armv7m-none-eabi\libc\lib/libc.a(strchrnul.o) []
LOAD C:\Users\nikol\projects\quectel\development\customer\threadx\tools\LLVM\4.0.3\armv7m-none-eabi\libc\lib/libc.a(strcmp.o) []
LOAD C:\Users\nikol\projects\quectel\development\customer\threadx\tools\LLVM\4.0.3\armv7m-none-eabi\libc\lib/libc.a(strdup.o) []
LOAD C:\Users\nikol\projects\quectel\development\customer\threadx\tools\LLVM\4.0.3\armv7m-none-eabi\libc\lib/libc.a(strlen.o) []
LOAD C:\Users\nikol\projects\quectel\development\customer\threadx\tools\LLVM\4.0.3\armv7m-none-eabi\libc\lib/libc.a(strncmp.o) []
LOAD C:\Users\nikol\projects\quectel\development\customer\threadx\tools\LLVM\4.0.3\armv7m-none-eabi\libc\lib/libc.a(strncpy.o) []
LOAD C:\Users\nikol\projects\quectel\development\customer\threadx\tools\LLVM\4.0.3\armv7m-none-eabi\libc\lib/libc.a(strtok.o) []
LOAD C:\Users\nikol\projects\quectel\development\customer\threadx\tools\LLVM\4.0.3\armv7m-none-eabi\libc\lib/libc.a(__lock.o) []
LOAD C:\Users\nikol\projects\quectel\development\customer\threadx\tools\LLVM\4.0.3\armv7m-none-eabi\libc\lib/libc.a(__wait.o) []
LOAD C:\Users\nikol\projects\quectel\development\customer\threadx\tools\LLVM\4.0.3\armv7m-none-eabi\libc\lib/libc.a(mktime.o) []
LOAD C:\Users\nikol\projects\quectel\development\customer\threadx\tools\LLVM\4.0.3\armv7m-none-eabi\libc\lib/libc.a(strftime.o) []
LOAD C:\Users\nikol\projects\quectel\development\customer\threadx\tools\LLVM\4.0.3\armv7m-none-eabi\libc\lib/libc.a(strptime.o) []
LOAD C:\Users\nikol\projects\quectel\development\customer\threadx\tools\LLVM\4.0.3\armv7m-none-eabi\libc\lib/libc.a(write.o) []
LOAD C:\Users\nikol\projects\quectel\development\customer\threadx\tools\LLVM\4.0.3\armv7m-none-eabi\libc\lib/libc.a(__errno_location.o) []
LOAD C:\Users\nikol\projects\quectel\development\customer\threadx\tools\LLVM\4.0.3\armv7m-none-eabi\libc\lib/libc.a(strerror.o) []
LOAD C:\Users\nikol\projects\quectel\development\customer\threadx\tools\LLVM\4.0.3\armv7m-none-eabi\libc\lib/libc.a(libc.o) []
LOAD C:\Users\nikol\projects\quectel\development\customer\threadx\tools\LLVM\4.0.3\armv7m-none-eabi\libc\lib/libc.a(syscall_ret.o) []
LOAD C:\Users\nikol\projects\quectel\development\customer\threadx\tools\LLVM\4.0.3\armv7m-none-eabi\libc\lib/libc.a(__lctrans.o) []
LOAD C:\Users\nikol\projects\quectel\development\customer\threadx\tools\LLVM\4.0.3\armv7m-none-eabi\libc\lib/libc.a(langinfo.o) []
LOAD C:\Users\nikol\projects\quectel\development\customer\threadx\tools\LLVM\4.0.3\armv7m-none-eabi\libc\lib/libc.a(locale_map.o) []
LOAD C:\Users\nikol\projects\quectel\development\customer\threadx\tools\LLVM\4.0.3\armv7m-none-eabi\libc\lib/libc.a(__cos.o) []
LOAD C:\Users\nikol\projects\quectel\development\customer\threadx\tools\LLVM\4.0.3\armv7m-none-eabi\libc\lib/libc.a(__rem_pio2.o) []
LOAD C:\Users\nikol\projects\quectel\development\customer\threadx\tools\LLVM\4.0.3\armv7m-none-eabi\libc\lib/libc.a(__rem_pio2_large.o) []
LOAD C:\Users\nikol\projects\quectel\development\customer\threadx\tools\LLVM\4.0.3\armv7m-none-eabi\libc\lib/libc.a(__sin.o) []
LOAD C:\Users\nikol\projects\quectel\development\customer\threadx\tools\LLVM\4.0.3\armv7m-none-eabi\libc\lib/libc.a(__tan.o) []
LOAD C:\Users\nikol\projects\quectel\development\customer\threadx\tools\LLVM\4.0.3\armv7m-none-eabi\libc\lib/libc.a(fabs.o) []
LOAD C:\Users\nikol\projects\quectel\development\customer\threadx\tools\LLVM\4.0.3\armv7m-none-eabi\libc\lib/libc.a(munmap.o) []
LOAD C:\Users\nikol\projects\quectel\development\customer\threadx\tools\LLVM\4.0.3\armv7m-none-eabi\libc\lib/libc.a(internal.o) []
LOAD C:\Users\nikol\projects\quectel\development\customer\threadx\tools\LLVM\4.0.3\armv7m-none-eabi\libc\lib/libc.a(wctomb.o) []
LOAD C:\Users\nikol\projects\quectel\development\customer\threadx\tools\LLVM\4.0.3\armv7m-none-eabi\libc\lib/libc.a(__overflow.o) []
LOAD C:\Users\nikol\projects\quectel\development\customer\threadx\tools\LLVM\4.0.3\armv7m-none-eabi\libc\lib/libc.a(__string_read.o) []
LOAD C:\Users\nikol\projects\quectel\development\customer\threadx\tools\LLVM\4.0.3\armv7m-none-eabi\libc\lib/libc.a(__towrite.o) []
LOAD C:\Users\nikol\projects\quectel\development\customer\threadx\tools\LLVM\4.0.3\armv7m-none-eabi\libc\lib/libc.a(__lockfile.o) []
LOAD C:\Users\nikol\projects\quectel\development\customer\threadx\tools\LLVM\4.0.3\armv7m-none-eabi\libc\lib/libc.a(__stdio_close.o) []
LOAD C:\Users\nikol\projects\quectel\development\customer\threadx\tools\LLVM\4.0.3\armv7m-none-eabi\libc\lib/libc.a(__stdio_seek.o) []
LOAD C:\Users\nikol\projects\quectel\development\customer\threadx\tools\LLVM\4.0.3\armv7m-none-eabi\libc\lib/libc.a(__stdio_write.o) []
LOAD C:\Users\nikol\projects\quectel\development\customer\threadx\tools\LLVM\4.0.3\armv7m-none-eabi\libc\lib/libc.a(vfscanf.o) []
LOAD C:\Users\nikol\projects\quectel\development\customer\threadx\tools\LLVM\4.0.3\armv7m-none-eabi\libc\lib/libc.a(abs.o) []
LOAD C:\Users\nikol\projects\quectel\development\customer\threadx\tools\LLVM\4.0.3\armv7m-none-eabi\libc\lib/libc.a(strtol.o) []
LOAD C:\Users\nikol\projects\quectel\development\customer\threadx\tools\LLVM\4.0.3\armv7m-none-eabi\libc\lib/libc.a(stpncpy.o) []
LOAD C:\Users\nikol\projects\quectel\development\customer\threadx\tools\LLVM\4.0.3\armv7m-none-eabi\libc\lib/libc.a(strcspn.o) []
LOAD C:\Users\nikol\projects\quectel\development\customer\threadx\tools\LLVM\4.0.3\armv7m-none-eabi\libc\lib/libc.a(strncasecmp.o) []
LOAD C:\Users\nikol\projects\quectel\development\customer\threadx\tools\LLVM\4.0.3\armv7m-none-eabi\libc\lib/libc.a(strspn.o) []
LOAD C:\Users\nikol\projects\quectel\development\customer\threadx\tools\LLVM\4.0.3\armv7m-none-eabi\libc\lib/libc.a(__syscall_cp.o) []
LOAD C:\Users\nikol\projects\quectel\development\customer\threadx\tools\LLVM\4.0.3\armv7m-none-eabi\libc\lib/libc.a(__map_file.o) []
LOAD C:\Users\nikol\projects\quectel\development\customer\threadx\tools\LLVM\4.0.3\armv7m-none-eabi\libc\lib/libc.a(__secs_to_tm.o) []
LOAD C:\Users\nikol\projects\quectel\development\customer\threadx\tools\LLVM\4.0.3\armv7m-none-eabi\libc\lib/libc.a(__tm_to_secs.o) []
LOAD C:\Users\nikol\projects\quectel\development\customer\threadx\tools\LLVM\4.0.3\armv7m-none-eabi\libc\lib/libc.a(__tz.o) []
LOAD C:\Users\nikol\projects\quectel\development\customer\threadx\tools\LLVM\4.0.3\armv7m-none-eabi\libc\lib/libc.a(__year_to_secs.o) []
LOAD C:\Users\nikol\projects\quectel\development\customer\threadx\tools\LLVM\4.0.3\armv7m-none-eabi\libc\lib/libc.a(tolower.o) []
LOAD C:\Users\nikol\projects\quectel\development\customer\threadx\tools\LLVM\4.0.3\armv7m-none-eabi\libc\lib/libc.a(getenv.o) []
LOAD C:\Users\nikol\projects\quectel\development\customer\threadx\tools\LLVM\4.0.3\armv7m-none-eabi\libc\lib/libc.a(syscall.o) []
LOAD C:\Users\nikol\projects\quectel\development\customer\threadx\tools\LLVM\4.0.3\armv7m-none-eabi\libc\lib/libc.a(floatscan.o) []
LOAD C:\Users\nikol\projects\quectel\development\customer\threadx\tools\LLVM\4.0.3\armv7m-none-eabi\libc\lib/libc.a(intscan.o) []
LOAD C:\Users\nikol\projects\quectel\development\customer\threadx\tools\LLVM\4.0.3\armv7m-none-eabi\libc\lib/libc.a(shgetc.o) []
LOAD C:\Users\nikol\projects\quectel\development\customer\threadx\tools\LLVM\4.0.3\armv7m-none-eabi\libc\lib/libc.a(__mo_lookup.o) []
LOAD C:\Users\nikol\projects\quectel\development\customer\threadx\tools\LLVM\4.0.3\armv7m-none-eabi\libc\lib/libc.a(c_locale.o) []
LOAD C:\Users\nikol\projects\quectel\development\customer\threadx\tools\LLVM\4.0.3\armv7m-none-eabi\libc\lib/libc.a(copysignl.o) []
LOAD C:\Users\nikol\projects\quectel\development\customer\threadx\tools\LLVM\4.0.3\armv7m-none-eabi\libc\lib/libc.a(fmodl.o) []
LOAD C:\Users\nikol\projects\quectel\development\customer\threadx\tools\LLVM\4.0.3\armv7m-none-eabi\libc\lib/libc.a(scalbnl.o) []
LOAD C:\Users\nikol\projects\quectel\development\customer\threadx\tools\LLVM\4.0.3\armv7m-none-eabi\libc\lib/libc.a(mmap.o) []
LOAD C:\Users\nikol\projects\quectel\development\customer\threadx\tools\LLVM\4.0.3\armv7m-none-eabi\libc\lib/libc.a(mbrtowc.o) []
LOAD C:\Users\nikol\projects\quectel\development\customer\threadx\tools\LLVM\4.0.3\armv7m-none-eabi\libc\lib/libc.a(mbsinit.o) []
LOAD C:\Users\nikol\projects\quectel\development\customer\threadx\tools\LLVM\4.0.3\armv7m-none-eabi\libc\lib/libc.a(wcrtomb.o) []
LOAD C:\Users\nikol\projects\quectel\development\customer\threadx\tools\LLVM\4.0.3\armv7m-none-eabi\libc\lib/libc.a(__stdio_exit.o) []
LOAD C:\Users\nikol\projects\quectel\development\customer\threadx\tools\LLVM\4.0.3\armv7m-none-eabi\libc\lib/libc.a(__uflow.o) []
LOAD C:\Users\nikol\projects\quectel\development\customer\threadx\tools\LLVM\4.0.3\armv7m-none-eabi\libc\lib/libc.a(ofl.o) []
LOAD C:\Users\nikol\projects\quectel\development\customer\threadx\tools\LLVM\4.0.3\armv7m-none-eabi\libc\lib/libc.a(__month_to_secs.o) []
LOAD C:\Users\nikol\projects\quectel\development\customer\threadx\tools\LLVM\4.0.3\armv7m-none-eabi\libc\lib/libc.a(__environ.o) []
LOAD C:\Users\nikol\projects\quectel\development\customer\threadx\tools\LLVM\4.0.3\armv7m-none-eabi\libc\lib/libc.a(copysign.o) []
LOAD C:\Users\nikol\projects\quectel\development\customer\threadx\tools\LLVM\4.0.3\armv7m-none-eabi\libc\lib/libc.a(__toread.o) []
START GROUP
END GROUP
START GROUP
LOAD C:\Users\nikol\projects\quectel\development\customer\threadx\tools\LLVM\4.0.3\lib\clang\4.0.3\lib\baremetal/libclang_rt.builtins-armv7m.a(aeabi_dcmp.S.obj) []
LOAD C:\Users\nikol\projects\quectel\development\customer\threadx\tools\LLVM\4.0.3\lib\clang\4.0.3\lib\baremetal/libclang_rt.builtins-armv7m.a(aeabi_ldivmod.S.obj) []
LOAD C:\Users\nikol\projects\quectel\development\customer\threadx\tools\LLVM\4.0.3\lib\clang\4.0.3\lib\baremetal/libclang_rt.builtins-armv7m.a(aeabi_uldivmod.S.obj) []
LOAD C:\Users\nikol\projects\quectel\development\customer\threadx\tools\LLVM\4.0.3\lib\clang\4.0.3\lib\baremetal/libclang_rt.builtins-armv7m.a(adddf3.c.obj) []
LOAD C:\Users\nikol\projects\quectel\development\customer\threadx\tools\LLVM\4.0.3\lib\clang\4.0.3\lib\baremetal/libclang_rt.builtins-armv7m.a(comparedf2.c.obj) []
LOAD C:\Users\nikol\projects\quectel\development\customer\threadx\tools\LLVM\4.0.3\lib\clang\4.0.3\lib\baremetal/libclang_rt.builtins-armv7m.a(divdf3.c.obj) []
LOAD C:\Users\nikol\projects\quectel\development\customer\threadx\tools\LLVM\4.0.3\lib\clang\4.0.3\lib\baremetal/libclang_rt.builtins-armv7m.a(divmoddi4.c.obj) []
LOAD C:\Users\nikol\projects\quectel\development\customer\threadx\tools\LLVM\4.0.3\lib\clang\4.0.3\lib\baremetal/libclang_rt.builtins-armv7m.a(extendsfdf2.c.obj) []
LOAD C:\Users\nikol\projects\quectel\development\customer\threadx\tools\LLVM\4.0.3\lib\clang\4.0.3\lib\baremetal/libclang_rt.builtins-armv7m.a(fixdfdi.c.obj) []
LOAD C:\Users\nikol\projects\quectel\development\customer\threadx\tools\LLVM\4.0.3\lib\clang\4.0.3\lib\baremetal/libclang_rt.builtins-armv7m.a(fixdfsi.c.obj) []
LOAD C:\Users\nikol\projects\quectel\development\customer\threadx\tools\LLVM\4.0.3\lib\clang\4.0.3\lib\baremetal/libclang_rt.builtins-armv7m.a(fixunsdfdi.c.obj) []
LOAD C:\Users\nikol\projects\quectel\development\customer\threadx\tools\LLVM\4.0.3\lib\clang\4.0.3\lib\baremetal/libclang_rt.builtins-armv7m.a(fixunsdfsi.c.obj) []
LOAD C:\Users\nikol\projects\quectel\development\customer\threadx\tools\LLVM\4.0.3\lib\clang\4.0.3\lib\baremetal/libclang_rt.builtins-armv7m.a(floatdidf.c.obj) []
LOAD C:\Users\nikol\projects\quectel\development\customer\threadx\tools\LLVM\4.0.3\lib\clang\4.0.3\lib\baremetal/libclang_rt.builtins-armv7m.a(floatsidf.c.obj) []
LOAD C:\Users\nikol\projects\quectel\development\customer\threadx\tools\LLVM\4.0.3\lib\clang\4.0.3\lib\baremetal/libclang_rt.builtins-armv7m.a(floatsisf.c.obj) []
LOAD C:\Users\nikol\projects\quectel\development\customer\threadx\tools\LLVM\4.0.3\lib\clang\4.0.3\lib\baremetal/libclang_rt.builtins-armv7m.a(floatunsidf.c.obj) []
LOAD C:\Users\nikol\projects\quectel\development\customer\threadx\tools\LLVM\4.0.3\lib\clang\4.0.3\lib\baremetal/libclang_rt.builtins-armv7m.a(muldf3.c.obj) []
LOAD C:\Users\nikol\projects\quectel\development\customer\threadx\tools\LLVM\4.0.3\lib\clang\4.0.3\lib\baremetal/libclang_rt.builtins-armv7m.a(mulsf3.c.obj) []
LOAD C:\Users\nikol\projects\quectel\development\customer\threadx\tools\LLVM\4.0.3\lib\clang\4.0.3\lib\baremetal/libclang_rt.builtins-armv7m.a(subdf3.c.obj) []
LOAD C:\Users\nikol\projects\quectel\development\customer\threadx\tools\LLVM\4.0.3\lib\clang\4.0.3\lib\baremetal/libclang_rt.builtins-armv7m.a(truncdfsf2.c.obj) []
LOAD C:\Users\nikol\projects\quectel\development\customer\threadx\tools\LLVM\4.0.3\lib\clang\4.0.3\lib\baremetal/libclang_rt.builtins-armv7m.a(udivmoddi4.c.obj) []
LOAD C:\Users\nikol\projects\quectel\development\customer\threadx\tools\LLVM\4.0.3\lib\clang\4.0.3\lib\baremetal/libclang_rt.builtins-armv7m.a(divdi3.c.obj) []
END GROUP

Linker scripts used (including INCLUDE command)
./ldscripts/sections.ld

ER_RO	0x43000000	0x5561c # Offset: 0x60, LMA: 0x43000000
	Image$$ER_RO$$Base(0x43000000) = .( 0x43000000 );
*txm_module_preamble_llvm.o(.text .text.* )
*txm_module_preamble_llvm.o(Init )
Init	0x43000000	0x80	./ldscripts/txm_module_preamble_llvm.o	#SHT_PROGBITS,SHF_ALLOC|SHF_EXECINSTR,4
	0x43000000		.CODE32
	0x43000000		_txm_module_preamble
*txm_module_preamble_llvm.o(.rodata .rodata.* )
KEEP (*(.text .text.* ))
.text	0x43000080	0x684	./out/common/src/retarget.o	#SHT_PROGBITS,SHF_ALLOC|SHF_EXECINSTR,4
	0x43000080		$a.0
	0x43000080		task_main_entry
	0x43000220		$d.1
	0x43000264		$a.2
	0x43000264		putchar
	0x4300030c		$d.3
	0x43000320		$a.4
	0x43000320		_putchar
	0x43000324		__wrap_puts
	0x430003d4		$d.5
	0x430003e8		$a.6
	0x430003e8		__wrap_printf
	0x430004c0		$d.7
	0x430004d8		$a.8
	0x430004d8		__wrap_gets
	0x430004e0		__wrap_getchar
	0x43000530		$d.9
	0x4300053c		$a.10
	0x4300053c		__wrap_fprintf
	0x43000550		$d.11
	0x43000554		$a.12
	0x43000554		__wrap_write
	0x43000608		$d.13
	0x4300061c		$a.14
	0x4300061c		uart_rx_cb
	0x4300068c		$d.15
	0x430006a4		$a.16
	0x430006a4		uart_tx_cb
	0x430006c4		$d.17
	0x430006cc		$a.18
	0x430006cc		qapi_uart_tx_user_cb_dispatcher
	0x430006e8		qapi_uart_rx_user_cb_dispatcher
.text	0x43000704	0x1d0	./out/common/src/malloc.o	#SHT_PROGBITS,SHF_ALLOC|SHF_EXECINSTR,4
	0x43000704		$a.0
	0x43000704		memscpy
	0x43000728		malloc_byte_pool_init
	0x4300079c		$d.1
	0x430007b4		$a.2
	0x430007b4		malloc_get_pool
	0x430007c0		$d.3
	0x430007c4		$a.4
	0x430007c4		__wrap_malloc
	0x4300083c		$d.5
	0x43000844		$a.6
	0x43000844		__wrap_free
	0x43000884		$d.7
	0x4300088c		$a.8
	0x4300088c		__wrap_calloc
	0x430008c4		__wrap_realloc
	0x430008cc		memalign
.text	0x430008d4	0xf0	./out/common/src/stubs.o	#SHT_PROGBITS,SHF_ALLOC|SHF_EXECINSTR,4
	0x430008d4		$a.0
	0x430008d4		abort
	0x4300090c		$d.1
	0x43000910		$a.2
	0x43000910		exit
	0x43000948		$d.3
	0x4300094c		$a.4
	0x4300094c		_Exit
	0x43000984		$d.5
	0x43000988		$a.6
	0x43000988		quick_exit
	0x430009c0		$d.7
.text	0x430009c4	0x18f8	./out/common/src/printf.o	#SHT_PROGBITS,SHF_ALLOC|SHF_EXECINSTR,4
	0x430009c4		$a.0
	0x430009c4		printf_
	0x43000a08		$d.1
	0x43000a0c		$a.2
	0x43000a0c		_vsnprintf
	0x43000be0		$d.3
	0x43000c08		$a.4
	0x430011d0		$d.5
	0x4300122c		$a.6
	0x4300124c		$d.7
	0x43001254		_out_char
	0x43001254		$a.8
	0x43001260		sprintf_
	0x430012a0		$d.9
	0x430012a4		$a.10
	0x430012a4		_out_buffer
	0x430012b0		snprintf_
	0x430012ec		$d.11
	0x430012f0		$a.12
	0x430012f0		vprintf_
	0x43001314		$d.13
	0x43001318		$a.14
	0x43001318		vsnprintf_
	0x43001340		$d.15
	0x43001344		fctprintf
	0x43001344		$a.16
	0x4300138c		$d.17
	0x43001390		$a.18
	0x43001390		_out_fct
	0x430013a4		_out_null
	0x430013a8		_atoi
	0x430013e8		_ntoa_long_long
	0x430014cc		_ntoa_long
	0x43001588		_ftoa
	0x43001a80		$d.19
	0x43001aa0		$a.20
	0x43001aa0		_etoa
	0x43002020		$d.21
	0x43002060		$a.22
	0x43002060		_ntoa_format
	0x430021e0		_out_rev
.text	0x430022bc	0x894	./out/common/src/file.o	#SHT_PROGBITS,SHF_ALLOC|SHF_EXECINSTR,4
	0x430022bc		$a.0
	0x430022bc		fopen
	0x430023ec		$d.1
	0x4300240c		$a.2
	0x4300240c		fclose
	0x4300247c		fseek
	0x430024e8		$d.3
	0x430024ec		ftell
	0x430024ec		$a.4
	0x4300254c		fstat
	0x43002620		lstat
	0x430026f0		$d.5
	0x430026f4		$a.6
	0x430026f4		fread
	0x43002768		$d.7
	0x4300276c		__wrap_fwrite
	0x4300276c		$a.8
	0x430027d8		$d.9
	0x430027dc		$a.10
	0x430027dc		opendir
	0x43002848		$d.11
	0x4300284c		$a.12
	0x4300284c		readdir
	0x430028cc		$d.13
	0x430028d4		$a.14
	0x430028d4		closedir
	0x4300293c		rmdir
	0x430029a0		$d.15
	0x430029a4		$a.16
	0x430029a4		mkdir
	0x43002a0c		unlink
	0x43002a70		$d.17
	0x43002a74		$a.18
	0x43002a74		truncate
	0x43002ad4		$d.19
	0x43002ad8		$a.20
	0x43002ad8		rename
	0x43002b44		$d.21
	0x43002b48		$a.22
	0x43002b48		access
.text	0x43002b50	0x94c	./out/common/src/cli.o	#SHT_PROGBITS,SHF_ALLOC|SHF_EXECINSTR,4
	0x43002b50		$a.0
	0x43002b50		cli_free
	0x43002b6c		cli_new
	0x43002c80		$d.1
	0x43002ca0		$a.2
	0x43002ca0		cli_cmd_meminfo
	0x43002d70		$d.3
	0x43002d88		$a.4
	0x43002d88		cli_cmd_ls
	0x43002e90		$d.5
	0x43002e9c		$a.6
	0x43002e9c		cli_cmd_cat
	0x43002fb8		$d.7
	0x43002fc4		$a.8
	0x43002fc4		cli_cmd_rm
	0x43003048		$d.9
	0x43003058		$a.10
	0x43003058		cli_cmd_mkdir
	0x430030ac		$d.11
	0x430030b8		$a.12
	0x430030b8		cli_cmd_touch
	0x43003110		$d.13
	0x43003120		$a.14
	0x43003120		cli_cmd_echo
	0x430031f4		$d.15
	0x4300320c		$a.16
	0x4300320c		cli_register
	0x43003284		cli_input
	0x4300347c		$d.17
.text	0x4300349c	0x24	./out/common/src/time.o	#SHT_PROGBITS,SHF_ALLOC|SHF_EXECINSTR,4
	0x4300349c		$a.0
	0x4300349c		localtime
	0x430034bc		$d.1
.text	0x430034c0	0x8a4	./out/./src/noomiojs.o	#SHT_PROGBITS,SHF_ALLOC|SHF_EXECINSTR,4
	0x430034c0		$a.0
	0x430034c0		main
	0x43003a00		$d.1
	0x43003aac		$a.2
	0x43003aac		cb_resolve_module
	0x43003b08		$d.3
	0x43003b10		$a.4
	0x43003b10		cb_load_module
	0x43003cc0		$d.5
	0x43003cd4		$a.6
	0x43003cd4		wrapped_compile_execute
	0x43003d5c		$d.7
.text	0x43003d64	0x10	./out/./src/dummy_date_provider.o	#SHT_PROGBITS,SHF_ALLOC|SHF_EXECINSTR,4
	0x43003d64		$a.0
	0x43003d64		dummy_get_now
	0x43003d70		$d.1
.text	0x43003d74	0x77c	./out/./src/native/event_mngr.o	#SHT_PROGBITS,SHF_ALLOC|SHF_EXECINSTR,4
	0x43003d74		$a.0
	0x43003d74		event_mngr_task
	0x43003f5c		$d.1
	0x43003f88		$a.2
	0x4300433c		$d.3
	0x43004398		$a.4
	0x43004398		worker_task
	0x430044d8		$d.5
.text	0x430044f0	0x378	./out/./src/native/timers.o	#SHT_PROGBITS,SHF_ALLOC|SHF_EXECINSTR,4
	0x430044f0		$a.0
	0x430044f0		native_timer_set_timeout
	0x43004608		$d.1
	0x43004618		$a.2
	0x43004618		invoke_timer_cb
	0x43004668		$d.3
	0x43004678		$a.4
	0x43004678		native_timer_set_interval
	0x430047ac		$d.5
	0x430047bc		$a.6
	0x430047bc		native_timer_clear_interval
	0x43004864		$d.7
.text	0x43004868	0x5c	./out/./src/native/console.o	#SHT_PROGBITS,SHF_ALLOC|SHF_EXECINSTR,4
	0x43004868		$a.0
	0x43004868		native_print
	0x430048bc		$d.1
.text	0x430048c4	0x1104	./out/./src/native/gpio.o	#SHT_PROGBITS,SHF_ALLOC|SHF_EXECINSTR,4
	0x430048c4		$a.0
	0x430048c4		qapi_custom_cb_gpioint_dispatcher
	0x430048d4		native_digital_in
	0x43004a80		$d.1
	0x43004aa4		$a.2
	0x43004aa4		config
	0x43004c04		$d.3
	0x43004c18		finalizer
	0x43004c18		$a.4
	0x43004c28		read
	0x43004ce0		$d.5
	0x43004ce8		$a.6
	0x43004ce8		release
	0x43004dc0		$d.7
	0x43004dd8		$a.8
	0x43004dd8		native_digital_out
	0x43004fbc		$d.9
	0x43004fe4		write
	0x43004fe4		$a.10
	0x43005090		$d.11
	0x4300509c		$a.12
	0x4300509c		native_digital_in_out
	0x43005220		$d.13
	0x4300524c		$a.14
	0x4300524c		native_digital_interrupt_in
	0x43005490		$d.15
	0x430054d0		$a.16
	0x430054d0		on
	0x43005690		$d.17
	0x430056c8		$a.18
	0x430056c8		trigger
	0x43005750		$d.19
	0x43005760		$a.20
	0x43005760		enable_irq
	0x430057e8		$d.21
	0x430057f8		$a.22
	0x430057f8		disable_irq
	0x43005880		$d.23
	0x43005890		$a.24
	0x43005890		deactivate
	0x43005918		$d.25
	0x43005928		$a.26
	0x43005928		native_init_gpio_consts
	0x43005954		$d.27
	0x43005958		$a.28
	0x43005958		invoke_interrupt_cb
	0x430059b4		$d.29
.text	0x430059c8	0x5cc	./out/./src/native/at.o	#SHT_PROGBITS,SHF_ALLOC|SHF_EXECINSTR,4
	0x430059c8		$a.0
	0x430059c8		invoke_callback_pipe0
	0x430059fc		$d.1
	0x43005a08		$a.2
	0x43005a08		invoke_callback_pipe1
	0x43005a3c		$d.3
	0x43005a48		$a.4
	0x43005a48		native_at
	0x43005af8		$d.5
	0x43005b14		$a.6
	0x43005b14		write
	0x43005bd4		$d.7
	0x43005be8		$a.8
	0x43005be8		close
	0x43005cec		$d.9
	0x43005d08		$a.10
	0x43005d08		on
	0x43005f18		$d.11
	0x43005f50		$a.12
	0x43005f50		native_init_at_consts
	0x43005f7c		$d.13
	0x43005f80		$a.14
	0x43005f80		atc_pipe_cb_uspace_dispatcher
.text	0x43005f94	0x98c	./out/./src/native/i2c.o	#SHT_PROGBITS,SHF_ALLOC|SHF_EXECINSTR,4
	0x43005f94		$a.0
	0x43005f94		i2c_module_cb_manager
	0x43005fbc		native_i2c
	0x430060d0		$d.1
	0x43006100		$a.2
	0x43006100		start
	0x430061e0		$d.3
	0x430061f4		$a.4
	0x430061f4		transfer
	0x430063d4		$d.5
	0x430063f0		$a.6
	0x430063f0		stop
	0x430064d4		$d.7
	0x430064e8		$a.8
	0x430064e8		frequency
	0x43006534		$d.9
	0x43006538		$a.10
	0x43006538		on
	0x4300683c		$d.11
	0x43006870		$a.12
	0x43006870		native_init_i2c_consts
	0x4300689c		$d.13
	0x430068a0		$a.14
	0x430068a0		invoke_i2c_callback_1
	0x4300690c		$d.15
.text	0x43006920	0x76c	./out/./src/duk_module_node.o	#SHT_PROGBITS,SHF_ALLOC|SHF_EXECINSTR,4
	0x43006920		$a.0
	0x43006920		duk_module_node_peval_main
	0x43006960		$d.1
	0x43006964		$a.2
	0x43006964		duk__push_module_object
	0x43006a34		$d.3
	0x43006a4c		$a.4
	0x43006a4c		duk__eval_module_source
	0x43006b90		$d.5
	0x43006bb8		$a.6
	0x43006bb8		duk_module_node_init
	0x43006cd8		$d.7
	0x43006cf8		$a.8
	0x43006cf8		duk__push_require_function
	0x43006db8		$d.9
	0x43006dd8		$a.10
	0x43006dd8		duk__handle_require
	0x43007028		$d.11
	0x4300704c		$a.12
	0x4300704c		duk__del_cached_module
	0x43007088		$d.13
.text	0x4300708c	0x2e610	./out/src/duk/duktape.o	#SHT_PROGBITS,SHF_ALLOC|SHF_EXECINSTR,4
	0x4300708c		$a.0
	0x4300708c		duk_bi_object_constructor
	0x430070e4		$d.1
	0x430070e8		$a.2
	0x430070e8		duk_bi_function_constructor
	0x43007220		$d.3
	0x43007238		duk_bi_function_prototype
	0x43007238		$a.4
	0x43007240		duk_bi_array_constructor
	0x43007428		$d.5
	0x43007434		$a.6
	0x43007434		duk_bi_string_constructor
	0x43007540		$d.7
	0x4300754c		$a.8
	0x4300754c		duk_bi_boolean_constructor
	0x430075b0		duk_bi_number_constructor
	0x43007644		duk_bi_date_constructor
	0x4300776c		$d.9
	0x43007774		$a.10
	0x43007774		duk_bi_regexp_constructor
	0x430078c0		duk_bi_error_constructor_shared
	0x43007918		$d.11
	0x43007920		$a.12
	0x43007920		duk_bi_type_error_thrower
	0x43007928		duk_bi_global_object_parse_int
	0x430079a4		duk_bi_global_object_parse_float
	0x430079cc		duk_bi_pointer_constructor
	0x43007a48		$d.13
	0x43007a4c		duk_bi_arraybuffer_constructor
	0x43007a4c		$a.14
	0x43007abc		$d.15
	0x43007ac0		duk_bi_dataview_constructor
	0x43007ac0		$a.16
	0x43007b7c		duk_bi_typedarray_constructor
	0x43007e2c		$d.17
	0x43007e40		duk_bi_nodejs_buffer_constructor
	0x43007e40		$a.18
	0x43007e8c		duk_bi_global_object_eval
	0x43008004		duk_bi_global_object_is_nan
	0x43008044		duk_bi_global_object_is_finite
	0x43008080		duk_bi_global_object_decode_uri
	0x43008098		$d.19
	0x430080a0		duk_bi_global_object_decode_uri_component
	0x430080a0		$a.20
	0x430080b8		$d.21
	0x430080c0		duk_bi_global_object_encode_uri
	0x430080c0		$a.22
	0x430080d8		$d.23
	0x430080e0		$a.24
	0x430080e0		duk_bi_global_object_encode_uri_component
	0x430080f8		$d.25
	0x43008100		duk_bi_global_object_escape
	0x43008100		$a.26
	0x43008118		$d.27
	0x4300811c		$a.28
	0x4300811c		duk_bi_global_object_unescape
	0x43008134		$d.29
	0x43008138		$a.30
	0x43008138		duk_bi_object_getprototype_shared
	0x430081e0		duk_bi_object_setprototype_shared
	0x43008340		duk_bi_object_constructor_get_own_property_descriptor
	0x43008374		duk_bi_object_constructor_keys_shared
	0x430083c4		$d.31
	0x430083c8		$a.32
	0x430083c8		duk_bi_object_constructor_create
	0x43008424		$d.33
	0x43008428		$a.34
	0x43008428		duk_bi_object_constructor_define_property
	0x430084e0		duk_bi_object_constructor_define_properties
	0x430085dc		duk_bi_object_constructor_seal_freeze_shared
	0x43008600		duk_bi_object_constructor_prevent_extensions
	0x4300866c		duk_bi_object_constructor_is_sealed_frozen_shared
	0x4300878c		duk_bi_object_constructor_is_extensible
	0x430087e8		duk_bi_object_prototype_to_string
	0x430088b4		$d.35
	0x430088c4		duk_bi_object_prototype_to_locale_string
	0x430088c4		$a.36
	0x430088f8		duk_bi_object_prototype_value_of
	0x43008908		duk_bi_object_prototype_has_own_property
	0x4300891c		duk_bi_object_prototype_is_prototype_of
	0x43008970		duk_bi_object_prototype_property_is_enumerable
	0x43008984		duk_bi_function_prototype_to_string
	0x43008a48		$d.37
	0x43008a5c		$a.38
	0x43008a5c		duk_bi_function_prototype_apply
	0x43008a64		duk_bi_function_prototype_call
	0x43008a6c		duk_bi_function_prototype_bind
	0x43008d68		$d.39
	0x43008d78		$a.40
	0x43008d78		duk_bi_native_function_length
	0x43008de4		duk_bi_native_function_name
	0x43008e3c		duk_bi_array_constructor_is_array
	0x43008e60		duk_bi_array_prototype_to_string
	0x43008ec4		$d.41
	0x43008ec8		duk_bi_array_prototype_join_shared
	0x43008ec8		$a.42
	0x43009014		$d.43
	0x43009018		$a.44
	0x43009018		duk_bi_array_prototype_concat
	0x43009140		$d.45
	0x43009148		duk_bi_array_prototype_pop
	0x43009148		$a.46
	0x430091c4		duk_bi_array_prototype_push
	0x43009278		$d.47
	0x43009288		duk_bi_array_prototype_reverse
	0x43009288		$a.48
	0x43009348		duk_bi_array_prototype_shift
	0x4300941c		duk_bi_array_prototype_slice
	0x43009504		$d.49
	0x43009508		duk_bi_array_prototype_sort
	0x43009508		$a.50
	0x4300953c		duk_bi_array_prototype_splice
	0x430097b4		$d.51
	0x430097c8		$a.52
	0x430097c8		duk_bi_array_prototype_unshift
	0x430098d0		$d.53
	0x430098e0		$a.54
	0x430098e0		duk_bi_array_prototype_indexof_shared
	0x430099d0		duk_bi_array_prototype_iter_shared
	0x43009aa8		$d.55
	0x43009ab8		$a.56
	0x43009ba8		$d.57
	0x43009bac		duk_bi_array_prototype_reduce_shared
	0x43009bac		$a.58
	0x43009cbc		duk_bi_string_constructor_from_char_code
	0x43009d64		duk_bi_string_prototype_to_string
	0x43009dd4		$d.59
	0x43009dd8		$a.60
	0x43009dd8		duk_bi_string_prototype_char_at
	0x43009e0c		duk_bi_string_prototype_char_code_at
	0x43009e7c		duk_bi_string_prototype_concat
	0x43009eb0		duk_bi_string_prototype_indexof_shared
	0x4300a004		duk_bi_string_prototype_locale_compare
	0x4300a074		duk_bi_string_prototype_match
	0x4300a19c		duk_bi_string_prototype_replace
	0x4300a854		$d.61
	0x4300a858		duk_bi_string_prototype_search
	0x4300a858		$a.62
	0x4300a8c0		$d.63
	0x4300a8c4		$a.64
	0x4300a8c4		duk_bi_string_prototype_slice
	0x4300a954		duk_bi_string_prototype_split
	0x4300acf8		$d.65
	0x4300acfc		$a.66
	0x4300acfc		duk_bi_string_prototype_substring
	0x4300ad78		duk_bi_string_prototype_caseconv_shared
	0x4300ae7c		duk_bi_string_prototype_trim
	0x4300ae9c		duk_bi_string_prototype_substr
	0x4300af1c		duk_bi_boolean_prototype_tostring_shared
	0x4300afa0		$d.67
	0x4300afa4		$a.68
	0x4300afa4		duk_bi_number_prototype_to_string
	0x4300aff4		duk_bi_number_prototype_to_locale_string
	0x4300b004		duk_bi_number_prototype_value_of
	0x4300b014		duk_bi_number_prototype_to_fixed
	0x4300b0b4		$d.69
	0x4300b0c0		duk_bi_number_prototype_to_exponential
	0x4300b0c0		$a.70
	0x4300b148		duk_bi_number_prototype_to_precision
	0x4300b1cc		duk_bi_date_constructor_parse
	0x4300b1f0		duk_bi_date_constructor_utc
	0x4300b250		duk_bi_date_constructor_now
	0x4300b274		duk_bi_date_prototype_tostring_shared
	0x4300b4fc		$d.71
	0x4300b528		$a.72
	0x4300b528		duk_bi_date_prototype_to_json
	0x4300b5c8		$d.73
	0x4300b5cc		duk_bi_date_prototype_value_of
	0x4300b5cc		$a.74
	0x4300b5f4		duk_bi_date_prototype_get_shared
	0x4300b678		duk_bi_date_prototype_get_timezone_offset
	0x4300b6c0		duk_bi_date_prototype_set_time
	0x4300b70c		$d.75
	0x4300b710		$a.76
	0x4300b710		duk_bi_date_prototype_set_shared
	0x4300b848		$d.77
	0x4300b84c		duk_bi_regexp_prototype_exec
	0x4300b84c		$a.78
	0x4300b868		duk_bi_regexp_prototype_test
	0x4300b8a4		duk_bi_regexp_prototype_tostring
	0x4300b8f8		$d.79
	0x4300b8fc		duk_bi_regexp_prototype_flags
	0x4300b8fc		$a.80
	0x4300b990		duk_bi_regexp_prototype_shared_getter
	0x4300ba70		$d.81
	0x4300ba74		$a.82
	0x4300ba74		duk_bi_error_prototype_stack_getter
	0x4300ba84		duk_bi_error_prototype_stack_setter
	0x4300ba98		duk_bi_error_prototype_filename_getter
	0x4300baa0		duk_bi_error_prototype_filename_setter
	0x4300bab4		duk_bi_error_prototype_linenumber_getter
	0x4300babc		duk_bi_error_prototype_linenumber_setter
	0x4300bad0		duk_bi_error_prototype_to_string
	0x4300bbcc		$d.83
	0x4300bbdc		duk_bi_math_object_onearg_shared
	0x4300bbdc		$a.84
	0x4300bc1c		$d.85
	0x4300bc20		$a.86
	0x4300bc20		duk_bi_math_object_twoarg_shared
	0x4300bc94		$d.87
	0x4300bc98		$a.88
	0x4300bc98		duk_bi_math_object_max
	0x4300bcc0		$d.89
	0x4300bcc4		$a.90
	0x4300bcc4		duk_bi_math_object_min
	0x4300bcec		$d.91
	0x4300bcf0		$a.92
	0x4300bcf0		duk_bi_math_object_random
	0x4300bd14		duk_bi_json_object_parse
	0x4300bd30		duk_bi_json_object_stringify
	0x4300bd58		duk_bi_duktape_object_info
	0x4300bd6c		duk_bi_duktape_object_act
	0x4300bd90		duk_bi_duktape_object_gc
	0x4300bdbc		duk_bi_duktape_object_fin
	0x4300be14		duk_bi_duktape_object_enc
	0x4300beb4		$d.93
	0x4300bec0		duk_bi_duktape_object_dec
	0x4300bec0		$a.94
	0x4300bf54		$d.95
	0x4300bf60		$a.96
	0x4300bf60		duk_bi_duktape_object_compact
	0x4300bf74		duk_bi_pointer_prototype_tostring_shared
	0x4300bff8		$d.97
	0x4300bffc		duk_bi_arraybuffer_isview
	0x4300bffc		$a.98
	0x4300c074		duk_bi_typedarray_bytelength_getter
	0x4300c0a8		duk_bi_buffer_slice_shared
	0x4300c260		$d.99
	0x4300c264		$a.100
	0x4300c264		duk_bi_typedarray_byteoffset_getter
	0x4300c2a4		duk_bi_typedarray_buffer_getter
	0x4300c390		$d.101
	0x4300c39c		$a.102
	0x4300c39c		duk_bi_buffer_readfield
	0x4300c46c		$d.103
	0x4300c484		$a.104
	0x4300c6d8		$d.105
	0x4300c6dc		$a.106
	0x4300c6dc		duk_bi_buffer_writefield
	0x4300c824		$d.107
	0x4300c83c		$a.108
	0x4300ca40		$d.109
	0x4300ca48		duk_bi_typedarray_set
	0x4300ca48		$a.110
	0x4300cc78		$d.111
	0x4300cc7c		duk_bi_uint8array_allocplain
	0x4300cc7c		$a.112
	0x4300cc8c		duk_bi_uint8array_plainof
	0x4300ccc0		duk_bi_nodejs_buffer_concat
	0x4300cf0c		$d.113
	0x4300cf14		duk_bi_nodejs_buffer_is_encoding
	0x4300cf14		$a.114
	0x4300cf4c		$d.115
	0x4300cf50		duk_bi_nodejs_buffer_is_buffer
	0x4300cf50		$a.116
	0x4300cf98		duk_bi_nodejs_buffer_byte_length
	0x4300cfc4		duk_bi_buffer_compare_shared
	0x4300d0a0		duk_bi_nodejs_buffer_tostring
	0x4300d440		$d.117
	0x4300d460		duk_bi_nodejs_buffer_tojson
	0x4300d460		$a.118
	0x4300d52c		$d.119
	0x4300d530		$a.120
	0x4300d530		duk_bi_nodejs_buffer_fill
	0x4300d638		duk_bi_nodejs_buffer_copy
	0x4300d778		$d.121
	0x4300d77c		duk_bi_nodejs_buffer_write
	0x4300d77c		$a.122
	0x4300d824		duk_bi_cbor_encode
	0x4300d84c		duk_bi_cbor_decode
	0x4300d860		duk_resize_buffer
	0x4300d8b0		$d.123
	0x4300d8b8		duk_require_hbuffer
	0x4300d8b8		$a.124
	0x4300d8e8		$d.125
	0x4300d8ec		duk_err_handle_error
	0x4300d8ec		$a.126
	0x4300d8fc		duk_hbuffer_resize
	0x4300d980		$d.127
	0x4300d988		$a.128
	0x4300d988		duk_steal_buffer
	0x4300d9e0		$d.129
	0x4300d9e8		duk_config_buffer
	0x4300d9e8		$a.130
	0x4300da20		$d.131
	0x4300da28		$a.132
	0x4300da28		duk_dump_function
	0x4300da34		$d.133
	0x4300da3c		$a.134
	0x4300da3c		duk_load_function
	0x4300da48		$d.135
	0x4300da50		duk_call
	0x4300da50		$a.136
	0x4300da84		duk__call_get_idx_func
	0x4300dab8		duk_insert_undefined
	0x4300dad8		duk_handle_call_unprotected
	0x4300eb40		$d.137
	0x4300eb9c		duk_call_method
	0x4300eb9c		$a.138
	0x4300ebc0		duk_call_prop
	0x4300ec30		duk_require_normalize_index
	0x4300ec60		duk_err_type_invalid_args
	0x4300ec6c		$d.139
	0x4300ec70		$a.140
	0x4300ec70		duk__call_prop_prep_stack
	0x4300ecf8		duk_pcall
	0x4300ed38		$d.141
	0x4300ed3c		$a.142
	0x4300ed3c		duk_safe_call
	0x4300edfc		$d.143
	0x4300ee04		duk__pcall_raw
	0x4300ee04		$a.144
	0x4300ee44		duk_pcall_method
	0x4300ee84		$d.145
	0x4300ee88		duk_pcall_prop
	0x4300ee88		$a.146
	0x4300eec8		$d.147
	0x4300eecc		duk__pcall_prop_raw
	0x4300eecc		$a.148
	0x4300ef04		duk_debug_log
	0x4300f4c4		$d.149
	0x4300f4ec		$a.150
	0x4300f500		$d.151
	0x4300f56c		$a.152
	0x4300f56c		duk_handle_safe_call
	0x4300f7f8		$d.153
	0x4300f808		$a.154
	0x4300f808		duk_new
	0x4300f844		duk_push_object
	0x4300f864		$d.155
	0x4300f868		$a.156
	0x4300f868		duk_insert
	0x4300f8a0		duk_pnew
	0x4300f8d8		$d.157
	0x4300f8dc		$a.158
	0x4300f8dc		duk__pnew_helper
	0x4300f8f0		duk_is_constructor_call
	0x4300f910		duk_require_constructor_call
	0x4300f934		$d.159
	0x4300f93c		$a.160
	0x4300f93c		duk_is_strict_call
	0x4300f95c		duk_get_current_magic
	0x4300f990		duk_get_magic
	0x4300f9e8		$d.161
	0x4300f9f0		$a.162
	0x4300f9f0		duk_require_tval
	0x4300fa20		duk_set_magic
	0x4300fa64		$d.163
	0x4300fa68		$a.164
	0x4300fa68		duk_base64_encode
	0x4300fa74		$d.165
	0x4300fa7c		$a.166
	0x4300fa7c		duk_base64_decode
	0x4300fa88		$d.167
	0x4300fa90		$a.168
	0x4300fa90		duk_hex_encode
	0x4300fa9c		$d.169
	0x4300faa4		$a.170
	0x4300faa4		duk_hex_decode
	0x4300fab0		$d.171
	0x4300fab8		duk_json_encode
	0x4300fab8		$a.172
	0x4300fb00		duk_bi_json_stringify_helper
	0x4300fe4c		$d.173
	0x4300fe54		duk_replace
	0x4300fe54		$a.174
	0x4300feac		duk_get_string
	0x4300fec0		duk_json_decode
	0x4300fef4		duk_bi_json_parse_helper
	0x4300ffdc		$d.175
	0x4300ffe0		$a.176
	0x4300ffe0		duk_eval_raw
	0x4301004c		duk_compile_raw
	0x430100bc		$d.177
	0x430100c0		duk_push_global_object
	0x430100c0		$a.178
	0x430100c8		duk_pop
	0x430100d0		duk__do_compile
	0x430101ac		$d.179
	0x430101b4		duk_push_context_dump
	0x430101b4		$a.180
	0x43010258		$d.181
	0x4301025c		duk_get_top
	0x4301025c		$a.182
	0x43010270		duk_push_bare_array
	0x430102ac		duk_dup
	0x4301032c		duk_put_prop_index
	0x43010360		duk_get_top_index
	0x43010380		duk_push_sprintf
	0x430103a8		duk_safe_to_lstring
	0x4301045c		$d.183
	0x43010460		duk_debugger_attach
	0x43010460		$a.184
	0x4301046c		$d.185
	0x43010474		$a.186
	0x43010474		duk_debugger_detach
	0x43010480		$d.187
	0x43010488		duk_debugger_cooperate
	0x43010488		$a.188
	0x4301048c		duk_debugger_notify
	0x430104c8		$d.189
	0x430104cc		$a.190
	0x430104cc		duk_err_range
	0x430104d4		duk_pop_n
	0x43010554		$d.191
	0x43010558		$a.192
	0x43010558		duk_debugger_pause
	0x4301055c		duk_create_heap
	0x43011564		$d.193
	0x4301165c		$a.194
	0x43011b84		$d.195
	0x43011ba4		$a.196
	0x43011c68		$d.197
	0x43011c78		$a.198
	0x43011cf8		$d.199
	0x43011d00		$a.200
	0x43011d24		$d.201
	0x43011ea8		duk_default_alloc_function
	0x43011ea8		$a.202
	0x43011eb0		duk_default_realloc_function
	0x43011ebc		duk_default_free_function
	0x43011ec4		duk_default_fatal_handler
	0x43011f00		$d.203
	0x43011f10		$a.204
	0x43011f10		duk_destroy_heap
	0x43011f20		duk_heap_free
	0x43012398		$d.205
	0x430123ec		duk_suspend
	0x430123ec		$a.206
	0x43012470		duk_push_tval
	0x430124c4		duk_resume
	0x4301250c		duk_pop_2
	0x43012514		duk_set_global_object
	0x430125b8		$d.207
	0x430125c0		duk_get_tval
	0x430125c0		$a.208
	0x430125e4		duk_require_hobject
	0x43012614		$d.209
	0x43012618		$a.210
	0x43012618		duk_heaphdr_incref
	0x43012630		duk_heaphdr_decref
	0x43012654		duk_hobjenv_alloc
	0x43012664		duk_inspect_value
	0x4301287c		$d.211
	0x43012884		duk_get_tval_or_unused
	0x43012884		$a.212
	0x4301289c		$d.213
	0x430128a0		$a.214
	0x430128a0		duk_get_type_tval
	0x430128c4		$d.215
	0x430128e8		$a.216
	0x43012930		duk_push_bare_object
	0x43012950		$d.217
	0x43012954		duk_push_pointer
	0x43012954		$a.218
	0x43012984		duk_put_prop_string
	0x430129b8		duk_inspect_callstack_entry
	0x43012a6c		$d.219
	0x43012a74		$a.220
	0x43012a74		duk_hthread_get_activation_for_level
	0x43012ab0		duk_push_undefined
	0x43012ad0		duk_push_uint
	0x43012b00		duk_put_prop_stridx_short_raw
	0x43012b10		duk_alloc_raw
	0x43012b20		duk_free_raw
	0x43012b30		duk_realloc_raw
	0x43012b40		duk_alloc
	0x43012b48		duk_heap_mem_alloc
	0x43012c64		$d.221
	0x43012c84		duk_free
	0x43012c84		$a.222
	0x43012c8c		duk_heap_mem_free
	0x43012c98		duk_realloc
	0x43012db8		$d.223
	0x43012dd4		$a.224
	0x43012dd4		duk_get_memory_functions
	0x43012dfc		duk_gc
	0x43012e30		$d.225
	0x43012e38		duk_heap_mark_and_sweep
	0x43012e38		$a.226
	0x430137dc		$d.227
	0x430138ac		$a.228
	0x430138ac		duk_get_prop
	0x430138ec		duk_hobject_getprop
	0x4301395c		$d.229
	0x4301397c		$a.230
	0x43013e18		$d.231
	0x43013e3c		$a.232
	0x43013e3c		duk_remove_m2
	0x43013e44		duk_get_prop_string
	0x43013e74		duk_push_string
	0x43013eb4		duk_get_prop_lstring
	0x43013eec		duk_push_lstring
	0x43013f80		$d.233
	0x43013f84		duk_get_prop_index
	0x43013f84		$a.234
	0x43013fb4		duk_get_prop_heapptr
	0x43013fe4		duk_push_heapptr
	0x430140c0		$d.235
	0x430140c8		duk_put_prop
	0x430140c8		$a.236
	0x430140d0		duk__put_prop_shared
	0x4301413c		duk_normalize_index
	0x43014160		duk_put_prop_lstring
	0x4301419c		duk_put_prop_heapptr
	0x430141d0		duk_del_prop
	0x43014220		duk_hobject_delprop
	0x430142a0		$d.237
	0x430142b0		$a.238
	0x430143a8		$d.239
	0x430143b8		$a.240
	0x430143b8		duk_del_prop_string
	0x430143e8		duk_del_prop_lstring
	0x43014420		duk_del_prop_index
	0x43014450		duk_del_prop_heapptr
	0x43014480		duk_has_prop
	0x430144c0		duk_hobject_hasprop
	0x430145b0		$d.241
	0x430145bc		$a.242
	0x430145bc		duk_has_prop_string
	0x430145ec		duk_has_prop_lstring
	0x43014624		duk_has_prop_index
	0x43014654		duk_has_prop_heapptr
	0x43014684		duk_get_prop_desc
	0x43014688		duk_hobject_object_get_own_property_descriptor
	0x430147c8		$d.243
	0x430147cc		$a.244
	0x430147cc		duk_def_prop
	0x43014914		$d.245
	0x43014920		$a.246
	0x43014920		duk_check_type_mask
	0x43014960		$d.247
	0x43014968		$a.248
	0x43014968		duk_get_hobject_promote_mask
	0x43014970		duk_to_property_key_hstring
	0x430149a8		duk_require_valid_index
	0x430149d0		duk_hobject_define_property_helper
	0x43015658		$d.249
	0x4301568c		$a.250
	0x4301568c		duk_set_top
	0x43015730		duk_compact
	0x43015754		duk_get_hobject
	0x4301575c		duk_hobject_compact_props
	0x430158c8		$d.251
	0x430158e0		$a.252
	0x430158e0		duk_enum
	0x4301590c		duk_require_hobject_promote_mask
	0x43015914		duk_hobject_enumerator_create
	0x43015c14		$d.253
	0x43015c18		$a.254
	0x43015c18		duk_next
	0x43015c48		duk_hobject_enumerator_next
	0x43015d7c		$d.255
	0x43015d84		$a.256
	0x43015d84		duk_seal
	0x43015d8c		duk_seal_freeze_raw
	0x43015eac		$d.257
	0x43015ec4		$a.258
	0x43015ec4		duk_freeze
	0x43015ecc		duk_put_function_list
	0x43015f1c		duk_push_c_function
	0x43015f20		duk_put_number_list
	0x43015f78		duk_tval_set_number_chkfast_slow
	0x43016098		$d.259
	0x4301609c		duk_get_global_string
	0x4301609c		$a.260
	0x430160d4		duk_push_hobject
	0x430160f0		duk_get_global_lstring
	0x43016130		duk_get_global_heapptr
	0x43016168		duk_put_global_string
	0x430161ac		duk_put_global_lstring
	0x430161f8		duk_put_global_heapptr
	0x4301623c		duk_get_prototype
	0x43016268		duk_set_prototype
	0x430162cc		$d.261
	0x430162d4		duk_hobject_set_prototype_updref
	0x430162d4		$a.262
	0x43016308		duk_get_finalizer
	0x43016310		duk_get_prop_stridx
	0x43016344		$d.263
	0x43016348		duk_set_finalizer
	0x43016348		$a.264
	0x43016398		duk_is_function
	0x430163dc		duk_put_prop_stridx
	0x43016414		$d.265
	0x43016418		$a.266
	0x43016418		duk_random
	0x4301641c		duk_util_tinyrandom_get_double
	0x43016490		duk_err_range_index
	0x430164a4		$d.267
	0x430164a8		$a.268
	0x430164a8		duk_is_valid_index
	0x430164bc		duk_tval_decref_norz
	0x430164e4		duk_require_top_index
	0x4301650c		duk_check_stack
	0x43016544		duk_valstack_grow_check_nothrow
	0x43016578		duk_require_stack
	0x430165b0		duk_valstack_grow_check_throw
	0x430165e0		duk_check_stack_top
	0x43016618		duk_require_stack_top
	0x43016650		duk_swap
	0x43016684		duk_swap_top
	0x4301668c		duk_err_range_push_beyond
	0x43016698		$d.269
	0x4301669c		duk_tval_incref
	0x4301669c		$a.270
	0x430166c8		duk_dup_top
	0x430166d0		duk_pull
	0x4301670c		duk_tval_decref
	0x43016734		duk_copy
	0x4301677c		duk_remove
	0x430167d8		duk_xcopymove_raw
	0x430168d4		$d.271
	0x430168e4		$a.272
	0x430168e4		duk_require_undefined
	0x43016918		$d.273
	0x4301691c		$a.274
	0x4301691c		duk_err_require_type_index
	0x43016950		$d.275
	0x43016954		$a.276
	0x43016954		duk_require_null
	0x43016988		$d.277
	0x4301698c		$a.278
	0x4301698c		duk_get_boolean
	0x430169b0		duk_get_boolean_default
	0x430169d4		duk_require_boolean
	0x43016a0c		$d.279
	0x43016a10		$a.280
	0x43016a10		duk_opt_boolean
	0x43016a44		duk_get_number
	0x43016a94		duk_get_number_default
	0x43016ae8		duk_require_number
	0x43016b90		$d.281
	0x43016b94		$a.282
	0x43016b94		duk_opt_number
	0x43016bd0		duk_get_int
	0x43016bdc		duk__api_coerce_d2i
	0x43016d64		$d.283
	0x43016d70		$a.284
	0x43016d70		duk_get_uint
	0x43016d7c		duk__api_coerce_d2ui
	0x43016ef0		$d.285
	0x43016efc		$a.286
	0x43016efc		duk_get_int_default
	0x43016f04		duk_get_uint_default
	0x43016f0c		duk_require_int
	0x43016f18		duk_require_uint
	0x43016f24		duk_opt_int
	0x43016f58		duk_opt_uint
	0x43016f8c		duk_get_lstring
	0x43016fc4		duk_get_hstring
	0x43016fcc		duk_require_lstring
	0x43016fec		duk_require_hstring
	0x4301701c		$d.287
	0x43017020		duk_opt_lstring
	0x43017020		$a.288
	0x4301706c		duk_opt_string
	0x430170a0		duk_require_string
	0x430170a8		duk_get_lstring_default
	0x430170e0		duk_get_string_default
	0x430170fc		duk_require_object
	0x43017130		$d.289
	0x43017134		duk_get_pointer
	0x43017134		$a.290
	0x4301713c		duk__get_pointer_raw
	0x43017160		duk_opt_pointer
	0x43017194		duk_require_pointer
	0x430171cc		$d.291
	0x430171d0		$a.292
	0x430171d0		duk_get_pointer_default
	0x430171d4		duk_get_buffer
	0x430171f4		duk__get_buffer_helper
	0x43017280		$d.293
	0x43017284		duk_opt_buffer
	0x43017284		$a.294
	0x430172d0		duk_require_buffer
	0x430172f4		duk_get_buffer_default
	0x43017314		duk_get_buffer_data
	0x43017334		duk_get_buffer_data_raw
	0x43017418		$d.295
	0x4301741c		$a.296
	0x4301741c		duk_get_buffer_data_default
	0x4301743c		duk_opt_buffer_data
	0x43017488		duk_require_buffer_data
	0x430174ac		duk_get_c_function
	0x430174e0		duk_opt_c_function
	0x43017514		duk_require_c_function
	0x43017540		$d.297
	0x43017544		duk_get_c_function_default
	0x43017544		$a.298
	0x4301755c		duk_require_function
	0x43017588		$d.299
	0x4301758c		$a.300
	0x4301758c		duk_require_constructable
	0x430175cc		$d.301
	0x430175d0		$a.302
	0x430175d0		duk_require_hobject_accept_mask
	0x430175d8		duk_get_context
	0x43017600		duk_require_context
	0x43017640		$d.303
	0x43017644		duk_opt_context
	0x43017644		$a.304
	0x43017678		duk_get_context_default
	0x43017690		duk_get_heapptr
	0x430176b8		duk_opt_heapptr
	0x430176ec		duk_require_heapptr
	0x43017724		$d.305
	0x43017728		$a.306
	0x43017728		duk_get_heapptr_default
	0x43017740		duk_get_length
	0x430177c8		duk_to_number_m1
	0x430177d0		duk_pop_unsafe
	0x430177d8		duk_hobject_get_length
	0x4301788c		$d.307
	0x43017890		$a.308
	0x43017890		duk_set_length
	0x430178c4		duk_to_undefined
	0x430178f0		duk_to_null
	0x4301791c		duk_to_primitive
	0x43017a80		$d.309
	0x43017a94		$a.310
	0x43017a94		duk_to_boolean
	0x43017ae8		duk_js_toboolean
	0x43017b10		$d.311
	0x43017b38		$a.312
	0x43017ba0		duk_to_number
	0x43017bf8		duk_js_tonumber
	0x43017c28		$d.313
	0x43017c50		$a.314
	0x43017d94		$d.315
	0x43017da0		$a.316
	0x43017da0		duk_to_int
	0x43017dc8		duk__to_int_uint_helper
	0x43017e24		duk_js_tointeger
	0x43017e34		duk_to_uint
	0x43017e5c		duk_to_int32
	0x43017ed8		duk_to_uint32
	0x43017f30		duk_js_touint32
	0x43017f64		duk_to_uint16
	0x43017fc4		duk_to_lstring
	0x43017fec		duk_to_string
	0x43018030		$d.317
	0x43018050		$a.318
	0x43018130		$d.319
	0x4301813c		$a.320
	0x4301813c		duk__safe_to_string_raw
	0x43018150		duk_is_string
	0x43018158		duk_push_hstring_stridx
	0x43018164		$d.321
	0x43018168		$a.322
	0x43018168		duk_to_stacktrace
	0x430181d8		$d.323
	0x430181dc		$a.324
	0x430181dc		duk_is_object
	0x430181e4		duk_safe_to_stacktrace
	0x43018274		$d.325
	0x43018278		duk__safe_to_stacktrace_raw
	0x43018278		$a.326
	0x4301828c		duk_push_lightfunc_tostring
	0x430182d0		$d.327
	0x430182d8		duk_numconv_stringify
	0x430182d8		$a.328
	0x430182dc		duk_buffer_to_string
	0x43018328		duk_to_buffer_raw
	0x430183f4		duk_push_buffer_raw
	0x43018578		$d.329
	0x43018584		duk_to_pointer
	0x43018584		$a.330
	0x430185dc		duk_to_object
	0x4301861c		$d.331
	0x4301863c		$a.332
	0x43018774		$d.333
	0x43018784		duk_push_object_helper
	0x43018784		$a.334
	0x43018854		duk_xdef_prop_stridx_short_raw
	0x43018868		duk_get_type
	0x43018878		duk_check_type
	0x43018898		duk_get_type_mask
	0x430188a8		duk_get_type_mask_tval
	0x430188cc		$d.335
	0x430188f0		$a.336
	0x43018938		duk_is_undefined
	0x43018940		duk__tag_check
	0x43018960		duk_is_null
	0x43018968		duk_is_boolean
	0x43018970		duk_is_number
	0x43018990		duk_is_nan
	0x43018a4c		duk_is_buffer
	0x43018a54		duk_is_buffer_data
	0x43018a9c		duk_is_pointer
	0x43018aa4		duk_is_lightfunc
	0x43018aac		duk_is_symbol
	0x43018ad0		duk_is_array
	0x43018aec		duk_js_isarray
	0x43018b08		duk_is_constructable
	0x43018b4c		duk_is_c_function
	0x43018b54		duk__obj_flag_any_default_false
	0x43018b80		duk_is_ecmascript_function
	0x43018b88		duk_is_bound_function
	0x43018b90		duk_is_thread
	0x43018bc0		duk_is_fixed_buffer
	0x43018bf4		duk_is_dynamic_buffer
	0x43018c2c		duk_is_external_buffer
	0x43018c60		duk_get_error_code
	0x43018d1c		duk_push_null
	0x43018d44		duk_push_boolean
	0x43018d80		duk_push_true
	0x43018da8		$d.337
	0x43018dac		$a.338
	0x43018dac		duk_push_false
	0x43018dd8		duk_push_number
	0x43018e38		duk_push_int
	0x43018e68		duk_push_nan
	0x43018e98		duk_push_this
	0x43018ea0		duk__push_this_helper
	0x43018f18		$d.339
	0x43018f20		$a.340
	0x43018f20		duk_push_new_target
	0x43018f54		duk_push_current_function
	0x43018f68		duk_push_current_thread
	0x43018f80		duk_push_hobject_bidx
	0x43018f8c		duk_push_heap_stash
	0x43018fb0		duk__push_stash
	0x43018ff8		$d.341
	0x43019000		$a.342
	0x43019000		duk_push_global_stash
	0x43019018		duk_push_thread_stash
	0x43019070		duk_push_vsprintf
	0x4301917c		$d.343
	0x43019180		duk_push_hstring_empty
	0x43019180		$a.344
	0x43019188		$d.345
	0x4301918c		duk_known_hstring
	0x4301918c		$a.346
	0x43019190		duk_get_top_index_unsafe
	0x430191a8		duk_push_array
	0x430191fc		duk_harray_alloc
	0x43019208		$d.347
	0x4301920c		$a.348
	0x4301920c		duk_push_thread_raw
	0x43019344		duk_hthread_init_stacks
	0x430193d0		duk_err_error_alloc_failed
	0x430193dc		$d.349
	0x430193e0		duk_hthread_create_builtin_objects
	0x430193e0		$a.350
	0x430194b4		$d.351
	0x430194cc		$a.352
	0x430194cc		duk__push_c_function_raw
	0x43019590		$d.353
	0x43019594		duk_push_c_lightfunc
	0x43019594		$a.354
	0x43019620		duk_push_buffer_object
	0x43019780		$d.355
	0x43019790		$a.356
	0x43019790		duk_push_bufobj_raw
	0x43019858		duk_push_error_object_va_raw
	0x43019890		$d.357
	0x430198a8		$a.358
	0x43019924		$d.359
	0x4301992c		$a.360
	0x4301992c		duk_push_object_helper_proto
	0x43019954		duk_push_error_object_raw
	0x43019978		duk_push_proxy
	0x43019984		$d.361
	0x4301998c		duk_heap_remove_from_finalize_list
	0x4301998c		$a.362
	0x430199ac		duk_heap_insert_into_heap_allocated
	0x430199cc		duk_pop_3
	0x430199d4		duk_throw_raw
	0x43019a3c		duk_hthread_sync_and_null_currpc
	0x43019a60		duk_err_setup_ljstate1
	0x43019a80		duk_err_longjmp
	0x43019b4c		$d.363
	0x43019b60		$a.364
	0x43019b60		duk_fatal_raw
	0x43019bc8		$d.365
	0x43019bd8		$a.366
	0x43019bd8		duk_error_va_raw
	0x43019c00		duk_error_raw
	0x43019c2c		duk_equals
	0x43019c78		duk_js_equals_helper
	0x43019e84		$d.367
	0x43019e9c		$a.368
	0x4301a174		duk_strict_equals
	0x4301a1c0		duk_samevalue
	0x4301a20c		duk_instanceof
	0x4301a240		duk_js_instanceof
	0x4301a2c8		$d.369
	0x4301a2dc		$a.370
	0x4301a3b0		$d.371
	0x4301a3c8		duk_concat
	0x4301a3c8		$a.372
	0x4301a3d0		duk__concat_and_join_helper
	0x4301a568		$d.373
	0x4301a570		duk_join
	0x4301a570		$a.374
	0x4301a578		duk_decode_string
	0x4301a5d0		duk_unicode_decode_xutf8_checked
	0x4301a60c		duk_map_string
	0x4301a6f8		duk_bw_init_pushbuf
	0x4301a738		duk_bw_resize
	0x4301a824		$d.375
	0x4301a838		duk_unicode_encode_xutf8
	0x4301a838		$a.376
	0x4301a8c8		$d.377
	0x4301a8cc		duk_bw_compact
	0x4301a8cc		$a.378
	0x4301a8fc		duk_substring
	0x4301aa18		duk_hstring_get_charlen
	0x4301aa20		duk_heap_strcache_offset_char2byte
	0x4301ab9c		duk_push_hstring
	0x4301abb8		duk_trim
	0x4301acfc		duk_unicode_is_whitespace
	0x4301ada4		duk_char_code_at
	0x4301add8		duk_hstring_char_code_at_raw
	0x4301ae1c		duk_get_now
	0x4301ae20		duk_time_get_ecmascript_time
	0x4301ae24		duk_time_to_components
	0x4301aee8		duk_bi_date_timeval_to_parts
	0x4301b11c		$d.379
	0x4301b130		$a.380
	0x4301b130		duk_components_to_time
	0x4301b1d0		duk_bi_date_get_timeval_from_dparts
	0x4301b4ac		$d.381
	0x4301b4d4		$a.382
	0x4301b4d4		duk_cbor_encode
	0x4301b4d8		duk__cbor_encode
	0x4301b578		duk_cbor_decode
	0x4301b57c		duk__cbor_decode
	0x4301b608		$d.383
	0x4301b60c		$a.384
	0x4301b60c		duk_err_create_and_throw
	0x4301b734		$d.385
	0x4301b74c		$a.386
	0x4301b74c		duk_call_setup_propcall_error
	0x4301b804		$d.387
	0x4301b808		$a.388
	0x4301b808		duk_get_type_name
	0x4301b81c		$d.389
	0x4301b820		$a.390
	0x4301b820		duk_xdef_prop_stridx
	0x4301b850		$d.391
	0x4301b854		$a.392
	0x4301b854		duk_hobject_define_property_internal
	0x4301baac		$d.393
	0x4301bac4		$a.394
	0x4301bac4		duk_js_to_arrayindex_hstring_fast
	0x4301bad8		duk__get_own_propdesc_raw
	0x4301be94		$d.395
	0x4301bea0		duk__to_new_array_length_checked
	0x4301bea0		$a.396
	0x4301bef4		$d.397
	0x4301bef8		$a.398
	0x4301bef8		duk__obtain_arridx_slot
	0x4301bffc		$d.399
	0x4301c00c		duk__hobject_alloc_entry_checked
	0x4301c00c		$a.400
	0x4301c0f8		duk_err_error_internal
	0x4301c104		$d.401
	0x4301c108		duk_js_to_arrayindex_hstring_fast_known
	0x4301c108		$a.402
	0x4301c130		duk_hobject_find_entry
	0x4301c1f4		duk_hobject_get_internal_value_string
	0x4301c210		duk_hbufobj_push_validated_read
	0x4301c248		$d.403
	0x4301c264		$a.404
	0x4301c2cc		duk__check_arguments_map_for_get
	0x4301c344		duk_hobject_find_entry_tval_ptr_stridx
	0x4301c350		$d.405
	0x4301c354		duk_hobject_find_entry_tval_ptr
	0x4301c354		$a.406
	0x4301c3a4		duk__lookup_arguments_map
	0x4301c45c		$d.407
	0x4301c464		duk_hobject_get_own_propdesc
	0x4301c464		$a.408
	0x4301c4a8		duk__getvar_helper
	0x4301c594		$d.409
	0x4301c59c		duk__get_identifier_reference
	0x4301c59c		$a.410
	0x4301c804		$d.411
	0x4301c808		duk_err_handle_error_fmt
	0x4301c808		$a.412
	0x4301c858		duk_hobject_hasprop_raw
	0x4301c878		duk_hobject_get_varmap
	0x4301c884		duk__hobject_get_entry_object_stridx
	0x4301c8b0		duk__get_propdesc
	0x4301c97c		$d.413
	0x4301c980		duk__compute_a_stats
	0x4301c980		$a.414
	0x4301c9f0		duk__abandon_array_part
	0x4301cab0		$d.415
	0x4301cab8		duk__count_used_e_keys
	0x4301cab8		$a.416
	0x4301caec		duk__get_default_h_size
	0x4301cb2c		duk_hobject_realloc_props
	0x4301cf1c		$d.417
	0x4301cf28		duk_heap_strtable_intern_u32
	0x4301cf28		$a.418
	0x4301cf74		$d.419
	0x4301cf78		duk_pop_n_nodecref_unsafe
	0x4301cf78		$a.420
	0x4301cfa0		duk_heap_strtable_intern
	0x4301d25c		$d.421
	0x4301d264		$a.422
	0x4301d264		duk_memcmp_unsafe
	0x4301d268		duk__call_get_idx_func_unvalidated
	0x4301d27c		duk__pcall_method_raw
	0x4301d2ac		duk_handle_call_unprotected_nargs
	0x4301d2dc		duk_fb_put_byte
	0x4301d2f4		duk_fb_sprintf
	0x4301d380		duk__print_tval
	0x4301d454		$d.423
	0x4301d47c		$a.424
	0x4301d66c		$d.425
	0x4301d6a0		$a.426
	0x4301d6a0		duk_fb_put_cstring
	0x4301d6c8		duk_fb_put_bytes
	0x4301d714		duk_fb_is_full
	0x4301d728		duk__print_hstring
	0x4301d928		$d.427
	0x4301d948		$a.428
	0x4301d948		duk__print_hobject
	0x4301e780		$d.429
	0x4301e8c0		$a.430
	0x4301e8c0		duk__print_hbuffer
	0x4301e9a8		$d.431
	0x4301e9c8		$a.432
	0x4301e9c8		duk_fb_put_funcptr
	0x4301ea48		$d.433
	0x4301ea4c		$a.434
	0x4301ea4c		duk_js_compile
	0x4301eb00		$d.435
	0x4301eb10		duk_known_hobject
	0x4301eb10		$a.436
	0x4301eb14		duk_js_push_closure
	0x4301ee90		$d.437
	0x4301eebc		duk__js_compile_raw
	0x4301eebc		$a.438
	0x4301f048		$d.439
	0x4301f04c		$a.440
	0x4301f04c		duk_known_hbuffer
	0x4301f050		duk_lexer_setpoint
	0x4301f068		duk__init_func_valstack_slots
	0x4301f180		duk__advance
	0x4301f188		duk__advance_expect
	0x4301f18c		duk__parse_func_like_raw
	0x4301f348		$d.441
	0x4301f360		$a.442
	0x4301f360		duk__parse_func_body
	0x4301fb48		$d.443
	0x4301fb80		$a.444
	0x4301fb80		duk__convert_to_func_template
	0x4301fff8		$d.445
	0x43020020		duk__known_heaphdr
	0x43020020		$a.446
	0x43020038		duk__advance_bytes
	0x43020194		$d.447
	0x4302019c		duk__advance_helper
	0x4302019c		$a.448
	0x43020d9c		$d.449
	0x43020e78		$a.450
	0x43020e88		$d.451
	0x43020e98		$a.452
	0x43020ea4		$d.453
	0x43020f0c		$a.454
	0x43020f0c		duk__advance_chars
	0x43020f18		duk__initbuffer
	0x43020f58		duk__appendbuffer
	0x43020fa4		duk__internbuffer
	0x43020fe0		duk_unicode_is_identifier_part
	0x43021088		$d.455
	0x43021090		$a.456
	0x43021090		duk_unicode_is_identifier_start
	0x43021108		$d.457
	0x4302110c		$a.458
	0x4302110c		duk__lexer_parse_escape
	0x4302117c		$d.459
	0x43021184		duk_numconv_parse
	0x43021184		$a.460
	0x43021188		duk__bw_update_ptrs
	0x430211a4		duk_unicode_encode_cesu8
	0x43021278		duk__uni_range_match
	0x430212e4		duk__uni_decode_value
	0x4302134c		duk_bd_decode
	0x430213b8		duk__lexer_parse_legacy_octal
	0x43021440		duk__hexval_validate
	0x43021468		$d.461
	0x4302146c		$a.462
	0x4302146c		duk__numconv_parse_raw
	0x43021ab0		$d.463
	0x43021ad0		duk__bi_set_small
	0x43021ad0		$a.464
	0x43021af4		duk__bi_mul_small
	0x43021b2c		duk__bi_mul_small_copy
	0x43021b58		duk__dragon4_prepare
	0x43021d70		duk__dragon4_scale
	0x43021e8c		duk__dragon4_generate
	0x430220b4		duk__bi_mul
	0x43022178		duk__bi_normalize
	0x430221a4		duk__bi_add
	0x4302222c		duk__bi_copy
	0x4302223c		duk__bi_exp_small
	0x430222e4		duk__bi_mul_copy
	0x43022310		duk__bi_compare
	0x43022368		duk__dragon4_fixed_format_round
	0x43022414		duk__comp_recursion_increase
	0x4302243c		$d.465
	0x43022444		duk__alloctemp
	0x43022444		$a.466
	0x4302244c		duk__parse_stmts
	0x4302250c		duk__hstring_is_eval_or_arguments
	0x43022518		duk__emit_bc
	0x43022524		duk__emit_op_only
	0x43022528		duk__comp_recursion_decrease
	0x43022538		duk__alloctemps
	0x43022570		$d.467
	0x43022578		duk__parse_stmt
	0x43022578		$a.468
	0x43023550		$d.469
	0x43023568		$a.470
	0x43023a64		$d.471
	0x43023ad0		$a.472
	0x43023b74		$d.473
	0x43023bc8		$a.474
	0x43023bc8		duk__get_current_pc
	0x43023bdc		duk__stmt_label_site
	0x43023c24		duk__add_label
	0x43023ce4		$d.475
	0x43023cf0		duk__parse_func_like_fnum
	0x43023cf0		$a.476
	0x43024024		$d.477
	0x43024028		duk__patch_jump_here
	0x43024028		$a.478
	0x4302404c		duk__parse_var_stmt
	0x43024098		duk__update_label_flags
	0x430240cc		duk__exprtop
	0x43024130		$d.479
	0x43024138		duk__ivalue_toforcedreg
	0x43024138		$a.480
	0x43024140		duk__ivalue_toplain_ignore
	0x4302415c		duk__emit_invalid
	0x43024164		duk__patch_jump
	0x43024188		$d.481
	0x4302418c		duk__parse_var_decl
	0x4302418c		$a.482
	0x430242e4		$d.483
	0x430242ec		$a.484
	0x430242ec		duk__hstring_is_eval_or_arguments_in_strict_mode
	0x4302430c		duk__lookup_lhs
	0x43024404		$d.485
	0x43024408		$a.486
	0x43024408		duk__ivalue_toreg
	0x43024414		duk__emit_a_bc
	0x43024518		$d.487
	0x4302451c		$a.488
	0x4302451c		duk__getconst
	0x430245f8		$d.489
	0x43024600		$a.490
	0x43024600		duk__ivalue_toregconst_raw
	0x43024644		duk__ivalue_toplain_raw
	0x43024678		$d.491
	0x43024688		$a.492
	0x430247f8		$d.493
	0x43024810		$a.494
	0x43024a94		$d.495
	0x43024aa0		duk__ispec_toregconst_raw
	0x43024aa0		$a.496
	0x43024af8		$d.497
	0x43024b10		$a.498
	0x43024d94		$d.499
	0x43024d98		duk_double_div
	0x43024d98		$a.500
	0x43024da4		duk_js_arith_pow
	0x43024e24		duk__emit_a_b_c
	0x43025228		$d.501
	0x43025258		duk__emit
	0x43025258		$a.502
	0x430252c4		$d.503
	0x430252c8		$a.504
	0x430252c8		duk__emit_load_int32_noshuffle
	0x430252cc		duk__emit_abc
	0x430252f0		$d.505
	0x430252f4		duk__emit_load_int32
	0x430252f4		$a.506
	0x43025354		duk__exprtop_toregconst
	0x43025378		duk__emit_if_true_skip
	0x43025388		duk__emit_jump_empty
	0x430253ac		duk__ivalue_toregconst
	0x430253b8		duk__emit_if_false_skip
	0x430253c8		duk__emit_jump
	0x430253e8		$d.507
	0x430253ec		duk__expr_is_empty
	0x430253ec		$a.508
	0x43025414		duk__exprtop_toreg
	0x43025438		duk__lookup_active_label
	0x430254e8		$d.509
	0x430254f4		duk__exprtop_toforcedreg
	0x430254f4		$a.510
	0x43025520		duk__patch_trycatch
	0x430255bc		$d.511
	0x430255c8		$a.512
	0x430255c8		duk__expr
	0x43025fd4		$d.513
	0x43026124		$a.514
	0x4302657c		$d.515
	0x43026580		$a.516
	0x43026690		$d.517
	0x43026698		$a.518
	0x43026b78		$d.519
	0x43026ba0		$a.520
	0x43026bb0		$d.521
	0x43026bd0		$a.522
	0x43026c04		$d.523
	0x43026c48		duk__ivalue_plain_fromstack
	0x43026c48		$a.524
	0x43026c60		duk__copy_ivalue
	0x43026cc4		duk_regexp_compile
	0x43026ff4		$d.525
	0x4302701c		duk__nud_array_literal
	0x4302701c		$a.526
	0x430271bc		$d.527
	0x430271c4		$a.528
	0x430271c4		duk__nud_object_literal
	0x430273f0		$d.529
	0x43027400		duk__expr_toforcedreg
	0x43027400		$a.530
	0x43027428		duk__parse_arguments
	0x430274a0		duk__expr_toplain_ignore
	0x430274c4		duk_require_hstring_notsymbol
	0x43027500		$d.531
	0x43027504		$a.532
	0x43027504		duk__append_reop
	0x43027508		duk__append_7bit
	0x4302750c		duk__parse_disjunction
	0x43027a24		$d.533
	0x43027a80		$a.534
	0x43028460		$d.535
	0x4302848c		$a.536
	0x4302849c		$d.537
	0x430284f8		$a.538
	0x43028530		$d.539
	0x43028534		$a.540
	0x43028544		$d.541
	0x43028614		$a.542
	0x43028614		duk__insert_u32
	0x43028698		duk__get_tagged_heaphdr_raw
	0x430286bc		duk__append_u32
	0x43028708		duk__insert_jump_offset
	0x4302877c		$d.543
	0x43028780		duk__append_slice
	0x43028780		$a.544
	0x430287d8		duk__append_jump_offset
	0x430287ec		duk_unicode_re_canonicalize_char
	0x4302883c		duk__regexp_generate_ranges
	0x430289b0		$d.545
	0x430289c4		$a.546
	0x430289c4		duk__hexval
	0x430289c8		duk__case_transform_helper
	0x43028c74		$d.547
	0x43028c7c		$a.548
	0x43028c7c		duk_unicode_is_letter
	0x43028d04		$d.549
	0x43028d0c		$a.550
	0x43028d0c		duk__emit_u16_direct_ranges
	0x43028d40		duk__regexp_emit_range
	0x43028d6c		duk__objlit_flush_keys
	0x43028dc0		duk__objlit_load_key
	0x43028e3c		duk__ivalue_toplain
	0x43028e44		duk__copy_ispec
	0x43028e64		duk__ivalue_totempconst
	0x43028e70		duk__expr_toplain
	0x43028e90		duk__expr_toregconst
	0x43028eb4		duk_push_hcompfunc
	0x43028f6c		$d.551
	0x43028f70		duk_push_fixed_buffer_nozero
	0x43028f70		$a.552
	0x43028f78		duk_hobject_find_array_entry_tval_ptr
	0x43028fbc		duk_compact_m1
	0x43028fc4		duk__hobject_alloc_init
	0x4302902c		duk__init_object_parts
	0x4302903c		duk_hdecenv_alloc
	0x4302904c		duk_get_prop_stridx_short_raw
	0x4302905c		duk_dup_m4
	0x43029064		duk_xdef_prop
	0x430290a4		duk_xget_owndataprop_stridx_short_raw
	0x430290e0		$d.553
	0x430290e4		$a.554
	0x430290e4		duk_hobject_get_formals
	0x430290f0		duk_dup_m3
	0x430290f8		duk_xdef_prop_stridx_thrower
	0x43029140		duk_xget_owndataprop
	0x4302919c		duk_hobject_putprop
	0x4302922c		$d.555
	0x4302924c		$a.556
	0x43029c2c		$d.557
	0x43029cb0		$a.558
	0x43029cb0		duk__push_tval_to_property_key
	0x43029cd0		duk__tval_fastint_to_arr_idx
	0x43029cf8		duk__tval_number_to_arr_idx
	0x43029db4		duk_pop_n_unsafe
	0x43029db8		duk_hbufobj_validated_write
	0x43029de0		$d.559
	0x43029e00		$a.560
	0x43029f68		$d.561
	0x43029f6c		$a.562
	0x43029f6c		duk__to_property_key
	0x43029fb4		duk__handle_put_array_length_smaller
	0x4302a138		duk_hobject_delprop_raw
	0x4302a3ac		$d.563
	0x4302a3c4		$a.564
	0x4302a3c4		duk_heaphdr_decref_norz
	0x4302a3e8		duk_refzero_check_slow
	0x4302a3fc		duk_heaphdr_refzero_norz
	0x4302a404		duk__heaphdr_refzero_helper
	0x4302a5b8		$d.565
	0x4302a5c8		$a.566
	0x4302a5c8		duk_heap_strcache_string_remove
	0x4302a624		$d.567
	0x4302a62c		$a.568
	0x4302a62c		duk_free_hstring
	0x4302a630		duk_heap_remove_from_heap_allocated
	0x4302a650		duk_hobject_has_finalizer_fast_raw
	0x4302a6b4		$d.569
	0x4302a6c0		$a.570
	0x4302a6c0		duk_heap_insert_into_finalize_list
	0x4302a6e0		duk_heap_process_finalize_list
	0x4302a8a4		$d.571
	0x4302a8c8		duk_heap_run_finalizer
	0x4302a8c8		$a.572
	0x4302a96c		$d.573
	0x4302a97c		$a.574
	0x4302a97c		duk_hobject_refcount_finalize_norz
	0x4302ac98		$d.575
	0x4302aca4		duk_free_hobject
	0x4302aca4		$a.576
	0x4302ad48		duk__finalize_helper
	0x4302ad88		$d.577
	0x4302ad8c		duk_dup_m2
	0x4302ad8c		$a.578
	0x4302ad94		duk_free_hbuffer
	0x4302add0		duk_js_putvar_envrec
	0x4302adf4		duk__putvar_helper
	0x4302af10		$d.579
	0x4302af18		duk__valstack_grow
	0x4302af18		$a.580
	0x4302af90		$d.581
	0x4302af98		duk__resize_valstack
	0x4302af98		$a.582
	0x4302b224		$d.583
	0x4302b248		duk_heap_mem_realloc_indirect
	0x4302b248		$a.584
	0x4302b3d4		$d.585
	0x4302b3f4		$a.586
	0x4302b3f4		duk_hthread_get_valstack_ptr
	0x4302b3fc		duk__get_hobject_promote_mask_raw
	0x4302b46c		$d.587
	0x4302b470		$a.588
	0x4302b470		duk_to_hobject
	0x4302b490		duk__defaultvalue_coerce_attempt
	0x4302b510		duk_pop_nodecref_unsafe
	0x4302b518		duk_to_hstring
	0x4302b538		duk_push_lightfunc_name_raw
	0x4302b5c8		$d.589
	0x4302b5d4		$a.590
	0x4302b5d4		duk_unicode_decode_xutf8
	0x4302b6c8		duk_push_harray_with_size
	0x4302b710		duk_push_harray_with_size_outptr
	0x4302b738		duk_push_this_coercible_to_object
	0x4302b758		duk_js_isarray_hobject
	0x4302b770		duk_xdef_prop_index
	0x4302b81c		duk_pop_undefined
	0x4302b820		duk_push_uint_to_hstring
	0x4302b838		duk_to_hstring_m1
	0x4302b840		duk__push_this_obj_len_u32
	0x4302b868		$d.591
	0x4302b86c		duk_dup_0
	0x4302b86c		$a.592
	0x4302b874		duk__push_this_obj_len_u32_limited
	0x4302b898		$d.593
	0x4302b89c		$a.594
	0x4302b89c		duk__array_qsort
	0x4302b990		duk__array_sort_swap
	0x4302ba38		duk__array_sort_compare
	0x4302bbac		duk_pop_2_unsafe
	0x4302bbb4		duk_js_data_compare
	0x4302bc00		duk_to_int_clamped
	0x4302bc18		duk_to_int_clamped_raw
	0x4302bd14		$d.595
	0x4302bd18		$a.596
	0x4302bd18		duk_dup_1
	0x4302bd20		duk_dup_2
	0x4302bd28		duk_push_hbuffer
	0x4302bd44		duk__hbufobj_fixed_from_argvalue
	0x4302bd6c		$d.597
	0x4302bd7c		$a.598
	0x4302bf04		duk_push_fixed_buffer_zero
	0x4302bf0c		duk__set_bufobj_buffer
	0x4302bf30		duk_hbufobj_promote_plain
	0x4302bf58		duk__require_bufobj_value
	0x4302bfb4		$d.599
	0x4302bfbc		$a.600
	0x4302bfbc		duk__resolve_offset_opt_length
	0x4302c054		$d.601
	0x4302c058		$a.602
	0x4302c058		duk__clamp_startend_nonegidx_noshift
	0x4302c0b8		duk__getrequire_bufobj_this
	0x4302c1a0		$d.603
	0x4302c1b0		duk__require_bufobj_this
	0x4302c1b0		$a.604
	0x4302c1b8		duk_is_string_notsymbol
	0x4302c1cc		duk_get_hstring_notsymbol
	0x4302c1f0		duk__clamp_startend_negidx_shifted
	0x4302c290		duk_hbufobj_clamp_bytelength
	0x4302c2b4		duk_hobject_prototype_chain_contains
	0x4302c308		$d.605
	0x4302c30c		duk__autospawn_arraybuffer
	0x4302c30c		$a.606
	0x4302c338		duk__cbor_encode_req_stack
	0x4302c344		duk__cbor_encode_value
	0x4302c37c		$d.607
	0x4302c3a0		$a.608
	0x4302c8ec		$d.609
	0x4302c8f8		$a.610
	0x4302c8f8		duk__cbor_encode_ensure
	0x4302c910		duk__cbor_encode_string_top
	0x4302ca70		duk__cbor_encode_error
	0x4302ca88		$d.611
	0x4302ca8c		$a.612
	0x4302ca8c		duk__cbor_encode_ensure_slowpath
	0x4302cb84		$d.613
	0x4302cb9c		$a.614
	0x4302cb9c		duk__cbor_encode_uint32
	0x4302cc34		duk__cbor_decode_req_stack
	0x4302cc40		duk__cbor_decode_value
	0x4302cc78		$d.615
	0x4302cc94		$a.616
	0x4302cea0		$d.617
	0x4302cec0		$a.618
	0x4302d0d0		$d.619
	0x4302d0d4		$a.620
	0x4302d0d4		duk__cbor_decode_readbyte
	0x4302d0f8		duk__cbor_decode_push_aival_int
	0x4302d12c		$d.621
	0x4302d13c		$a.622
	0x4302d26c		duk__cbor_decode_and_join_strbuf
	0x4302d398		duk__cbor_decode_buffer
	0x4302d3fc		duk__cbor_decode_error
	0x4302d414		$d.623
	0x4302d418		$a.624
	0x4302d418		duk__cbor_decode_read_u16
	0x4302d450		duk__cbor_decode_read_u32
	0x4302d498		duk__cbor_decode_checkbreak
	0x4302d4d4		duk__cbor_decode_aival_uint32
	0x4302d504		$d.625
	0x4302d514		$a.626
	0x4302d550		duk__cbor_decode_consume
	0x4302d578		duk__cbor_decode_objarr_entry
	0x4302d5b0		$d.627
	0x4302d5b4		$a.628
	0x4302d5b4		duk__cbor_decode_objarr_exit
	0x4302d5c4		duk_bi_date_is_leap_year
	0x4302d608		duk__day_from_year
	0x4302d65c		$d.629
	0x4302d660		$a.630
	0x4302d660		duk__div_floor
	0x4302d674		duk_js_tointeger_number
	0x4302d6bc		duk__timeclip
	0x4302d740		$d.631
	0x4302d74c		$a.632
	0x4302d74c		duk_double_trunc_towards_zero
	0x4302d788		duk_time_get_ecmascript_time_nofrac
	0x4302d798		duk__parse_string
	0x4302da58		$d.633
	0x4302da6c		duk__set_parts_from_args
	0x4302da6c		$a.634
	0x4302dae4		duk__set_this_timeval_from_dparts
	0x4302db20		$d.635
	0x4302db24		duk__twodigit_year_fixup
	0x4302db24		$a.636
	0x4302dbe0		$d.637
	0x4302dbe8		$a.638
	0x4302dbe8		duk__date_get_indirect_magic
	0x4302dc00		$d.639
	0x4302dc04		duk__push_this_get_timeval_tzoffset
	0x4302dc04		$a.640
	0x4302dce0		$d.641
	0x4302dcf0		$a.642
	0x4302dcf0		duk__push_this_get_timeval
	0x4302dcf8		duk__error_setter_helper
	0x4302dd80		$d.643
	0x4302dd88		duk_heap_mem_alloc_checked
	0x4302dd88		$a.644
	0x4302ddbc		duk_copy_tvals_incref
	0x4302ddec		duk_js_init_activation_environment_records_delayed
	0x4302de3c		duk_create_activation_environment_record
	0x4302df1c		duk__transform_helper
	0x4302dfcc		duk__transform_callback_decode_uri
	0x4302e1cc		$d.645
	0x4302e1d4		duk__decode_hex_escape
	0x4302e1d4		$a.646
	0x4302e214		$d.647
	0x4302e218		$a.648
	0x4302e218		duk__transform_callback_encode_uri
	0x4302e348		$d.649
	0x4302e358		$a.650
	0x4302e358		duk__transform_callback_escape
	0x4302e464		$d.651
	0x4302e474		$a.652
	0x4302e474		duk__transform_callback_unescape
	0x4302e540		duk__json_dec_value
	0x4302e968		$d.653
	0x4302e96c		duk__json_dec_syntax_error
	0x4302e96c		$a.654
	0x4302e990		$d.655
	0x4302e998		duk__json_dec_reviver_walk
	0x4302e998		$a.656
	0x4302eb10		duk__json_dec_get_nonwhite
	0x4302eb28		duk__json_dec_string
	0x4302eca8		$d.657
	0x4302ecd4		duk__json_dec_req_stridx
	0x4302ecd4		$a.658
	0x4302ed0c		$d.659
	0x4302ed10		duk__json_dec_eat_white
	0x4302ed10		$a.660
	0x4302ed48		duk__json_dec_get
	0x4302ed5c		duk__json_dec_decode_hex_escape
	0x4302edb0		$d.661
	0x4302edb4		$a.662
	0x4302edb4		duk_raw_writeinc_xutf8
	0x4302eddc		duk__json_dec_objarr_entry
	0x4302ee1c		$d.663
	0x4302ee20		$a.664
	0x4302ee20		duk__json_dec_objarr_exit
	0x4302ee30		duk__json_enc_value
	0x4302f038		$d.665
	0x4302f060		$a.666
	0x4302f31c		$d.667
	0x4302f32c		duk__emit_stridx
	0x4302f32c		$a.668
	0x4302f384		$d.669
	0x4302f388		$a.670
	0x4302f388		duk__json_enc_quote_string
	0x4302f548		$d.671
	0x4302f54c		$a.672
	0x4302f54c		duk__json_enc_object
	0x4302f770		duk__json_enc_buffer_data
	0x4302f7f4		$d.673
	0x4302f7f8		$a.674
	0x4302f7f8		duk__emit_cstring
	0x4302f858		duk__emit_1
	0x4302f898		duk__emit_esc_auto_fast
	0x4302f914		$d.675
	0x4302f924		duk__json_enc_objarr_entry
	0x4302f924		$a.676
	0x4302fa40		$d.677
	0x4302fa58		duk__json_enc_newline_indent
	0x4302fa58		$a.678
	0x4302fa88		duk__json_enc_objarr_exit
	0x4302fae8		$d.679
	0x4302faec		duk__emit_hstring
	0x4302faec		$a.680
	0x4302fb40		duk_hobject_get_enumerated_keys
	0x4302fbbc		duk__json_enc_key_autoquote
	0x4302fc30		duk__fabs
	0x4302fc38		duk__acos
	0x4302fc3c		duk__asin
	0x4302fc40		duk__atan
	0x4302fc44		duk__ceil
	0x4302fc50		duk__cos
	0x4302fc54		duk__exp
	0x4302fc58		duk__floor
	0x4302fc64		duk__log
	0x4302fc68		duk__round_fixed
	0x4302fd1c		duk__sin
	0x4302fd20		duk__sqrt
	0x4302fd24		duk__tan
	0x4302fd28		duk__atan2_fixed
	0x4302fd2c		duk__math_minmax
	0x4302fde4		duk__fmax_fixed
	0x4302fe88		duk__fmin_fixed
	0x4302ff14		duk__push_this_number_plain
	0x4302ff8c		$d.681
	0x4302ff98		$a.682
	0x4302ff98		duk_to_int_check_range
	0x4302ffbc		duk_hobject_prepare_property_descriptor
	0x430301c0		$d.683
	0x430301c8		$a.684
	0x430301c8		duk_to_boolean_top_pop
	0x430301f0		duk_hobject_object_ownprop_helper
	0x43030258		duk_to_hstring_acceptsymbol
	0x4303028c		duk_regexp_create_instance
	0x43030310		$d.685
	0x43030314		$a.686
	0x43030314		duk__get_this_regexp
	0x4303033c		duk_regexp_match
	0x43030344		duk_require_hobject_with_class
	0x43030388		$d.687
	0x4303038c		duk__regexp_match_helper
	0x4303038c		$a.688
	0x43030710		$d.689
	0x43030730		duk__bc_get_u32
	0x43030730		$a.690
	0x43030744		duk__match_regexp
	0x430307c0		$d.691
	0x4303080c		$a.692
	0x43030f10		$d.693
	0x43030f2c		duk__inp_get_cp
	0x43030f2c		$a.694
	0x43030f6c		duk__inp_get_prev_cp
	0x43030f9c		duk_unicode_re_is_wordchar
	0x43030fe8		duk__bc_get_i32
	0x43031018		duk__inp_backtrack
	0x43031080		$d.695
	0x43031084		$a.696
	0x43031084		duk_get_prop_stridx_boolean
	0x430310a4		duk_push_this_coercible_to_string
	0x430310c0		duk_memcmp
	0x430310c4		duk_get_hobject_with_class
	0x430310f0		duk__to_regexp_helper
	0x43031144		duk_heap_mem_alloc_zeroed
	0x43031174		duk_hbuffer_get_dynalloc_ptr
	0x4303117c		duk_heap_free_freelists
	0x430311a8		$d.697
	0x430311b0		$a.698
	0x430311b0		duk_heap_free_heaphdr_raw
	0x430311d4		duk_hthread_alloc_unchecked
	0x4303123c		duk__mark_temproots_by_heap_scan
	0x4303130c		$d.699
	0x4303131c		$a.700
	0x4303131c		duk__mark_heaphdr
	0x4303169c		$d.701
	0x430316b4		duk__mark_tval
	0x430316b4		$a.702
	0x430316d8		duk__mark_heaphdr_nonnull
	0x430316dc		duk__handle_temproot
	0x4303170c		duk_valstack_shrink_check_nothrow
	0x43031784		$d.703
	0x43031790		duk__compact_object_list
	0x43031790		$a.704
	0x43031874		$d.705
	0x43031880		duk__protected_compact_object
	0x43031880		$a.706
	0x430318a4		duk_heaphdr_refzero
	0x430318ac		duk__scan_forwards
	0x430318e0		duk__scan_backwards
	0x43031914		duk_heap_strtable_intern_u32_checked
	0x43031938		duk__add_enum_key
	0x4303195c		duk__add_enum_key_stridx
	0x43031964		$d.707
	0x43031968		duk__sort_enum_keys_es6
	0x43031968		$a.708
	0x43031a30		duk__hstring_sort_key
	0x43031a44		duk_set_top_unsafe
	0x43031a48		duk_pop_3_unsafe
	0x43031a50		duk__call_thread_state_update
	0x43031a98		$d.709
	0x43031aa0		$a.710
	0x43031aa0		duk_set_top_and_wipe
	0x43031ac4		duk_js_execute_bytecode
	0x43031c80		$d.711
	0x43031c90		$a.712
	0x43031c90		duk_error_throw_from_negative_rc
	0x43031ca8		$d.713
	0x43031cac		$a.714
	0x43031cac		duk_call_construct_postprocess
	0x43031cdc		duk_hthread_activation_unwind_norz
	0x43031d0c		duk__call_c_recursion_limit_check_slowpath
	0x43031d40		$d.715
	0x43031d50		duk_reserve_gap
	0x43031d50		$a.716
	0x43031d80		duk_remove_n
	0x43031dac		duk__activation_unwind_nofree_norz
	0x43031edc		duk_hthread_catcher_unwind_norz
	0x43031f2c		duk_hthread_catcher_free
	0x43031f34		duk__call_callstack_limit_check_slowpath
	0x43031f68		$d.717
	0x43031f78		duk__js_execute_bytecode_inner
	0x43031f78		$a.718
	0x43032068		$d.719
	0x430323b8		$a.720
	0x43032e04		$d.721
	0x43032e14		$a.722
	0x43032f5c		$d.723
	0x43032f60		$a.724
	0x43033004		$d.725
	0x43033014		$a.726
	0x43033268		$d.727
	0x4303327c		$a.728
	0x43033440		$d.729
	0x43033444		$a.730
	0x4303369c		$d.731
	0x430336a0		$a.732
	0x43034358		$d.733
	0x43034378		$a.734
	0x43034378		duk_js_typeof_stridx
	0x430343a0		$d.735
	0x430343c0		$a.736
	0x43034420		duk_js_getvar_activation
	0x43034444		duk_js_compare_helper
	0x43034630		duk_js_putvar_activation
	0x43034654		duk__handle_return
	0x430348ec		$d.737
	0x430348fc		duk_hthread_catcher_alloc
	0x430348fc		$a.738
	0x43034904		duk__handle_break_or_continue
	0x43034a08		$d.739
	0x43034a18		$a.740
	0x43034a18		duk__executor_handle_call
	0x43034a4c		duk_to_number_tval
	0x43034a7c		duk_to_number_m2
	0x43034a84		duk_double_is_nan
	0x43034ab0		duk_concat_2
	0x43034ab8		duk__declvar_helper
	0x43034cac		$d.741
	0x43034cb4		$a.742
	0x43034cb4		duk__delvar_helper
	0x43034d2c		duk__handle_finally
	0x43034d74		duk__set_catcher_regs_norz
	0x43034dc8		duk__reconfig_valstack_ecma_catcher
	0x43034e18		duk__handle_longjmp
	0x43035104		$d.743
	0x43035134		$a.744
	0x43035134		duk__safe_call_adjust_valstack
	0x430351bc		$d.745
	0x430351c4		duk__toint32_touint32_helper
	0x430351c4		$a.746
	0x4303529c		duk__numconv_stringify_raw
	0x4303564c		$d.747
	0x43035654		duk__dragon4_format_uint32
	0x43035654		$a.748
	0x43035698		$d.749
.text._txm_module_thread_shell_entry	0x4303569c	0x94	../../../../Quectel_BG96_QuecOpen_SDK_Package_V3.0.1-AUS/SDK/libs/llvm\txm_lib.lib(txm_module_thread_shell_entry.o)	#SHT_PROGBITS,SHF_ALLOC|SHF_EXECINSTR,4
	0x4303569c		$a.0
	0x4303569c		_txm_module_thread_shell_entry
	0x43035724		$d.1
.text._txm_module_callback_request_thread_entry	0x43035730	0x108	../../../../Quectel_BG96_QuecOpen_SDK_Package_V3.0.1-AUS/SDK/libs/llvm\txm_lib.lib(txm_module_callback_request_thread_entry.o)	#SHT_PROGBITS,SHF_ALLOC|SHF_EXECINSTR,4
	0x43035730		$a.0
	0x43035730		_txm_module_callback_request_thread_entry
	0x43035788		$d.1
	0x4303579c		$a.2
	0x43035830		$d.3
.text._txm_module_system_call11	0x43035838	0x68	../../../../Quectel_BG96_QuecOpen_SDK_Package_V3.0.1-AUS/SDK/libs/llvm\txm_lib.lib(txm_module_system_call11.o)	#SHT_PROGBITS,SHF_ALLOC|SHF_EXECINSTR,4
	0x43035838		$a.0
	0x43035838		_txm_module_system_call11
	0x4303589c		$d.1
.text._txm_module_system_call12	0x430358a0	0x70	../../../../Quectel_BG96_QuecOpen_SDK_Package_V3.0.1-AUS/SDK/libs/llvm\txm_lib.lib(txm_module_system_call12.o)	#SHT_PROGBITS,SHF_ALLOC|SHF_EXECINSTR,4
	0x430358a0		$a.0
	0x430358a0		_txm_module_system_call12
	0x4303590c		$d.1
.text._txm_module_system_call4	0x43035910	0x2c	../../../../Quectel_BG96_QuecOpen_SDK_Package_V3.0.1-AUS/SDK/libs/llvm\txm_lib.lib(txm_module_system_call4.o)	#SHT_PROGBITS,SHF_ALLOC|SHF_EXECINSTR,4
	0x43035910		$a.0
	0x43035910		_txm_module_system_call4
	0x43035938		$d.1
.text._txm_module_system_call5	0x4303593c	0x34	../../../../Quectel_BG96_QuecOpen_SDK_Package_V3.0.1-AUS/SDK/libs/llvm\txm_lib.lib(txm_module_system_call5.o)	#SHT_PROGBITS,SHF_ALLOC|SHF_EXECINSTR,4
	0x4303593c		$a.0
	0x4303593c		_txm_module_system_call5
	0x4303596c		$d.1
.text._txm_module_system_call6	0x43035970	0x3c	../../../../Quectel_BG96_QuecOpen_SDK_Package_V3.0.1-AUS/SDK/libs/llvm\txm_lib.lib(txm_module_system_call6.o)	#SHT_PROGBITS,SHF_ALLOC|SHF_EXECINSTR,4
	0x43035970		$a.0
	0x43035970		_txm_module_system_call6
	0x430359a8		$d.1
.text._txm_module_system_call7	0x430359ac	0x44	../../../../Quectel_BG96_QuecOpen_SDK_Package_V3.0.1-AUS/SDK/libs/llvm\txm_lib.lib(txm_module_system_call7.o)	#SHT_PROGBITS,SHF_ALLOC|SHF_EXECINSTR,4
	0x430359ac		$a.0
	0x430359ac		_txm_module_system_call7
	0x430359ec		$d.1
.text._txm_module_system_call8	0x430359f0	0x4c	../../../../Quectel_BG96_QuecOpen_SDK_Package_V3.0.1-AUS/SDK/libs/llvm\txm_lib.lib(txm_module_system_call8.o)	#SHT_PROGBITS,SHF_ALLOC|SHF_EXECINSTR,4
	0x430359f0		$a.0
	0x430359f0		_txm_module_system_call8
	0x43035a38		$d.1
.text.setlocale	0x43035a3c	0xe8	C:\Users\nikol\projects\quectel\development\customer\threadx\tools\LLVM\4.0.3\armv7m-none-eabi\libc\lib/libc.a(setlocale.o)	#SHT_PROGBITS,SHF_ALLOC|SHF_EXECINSTR,4
	0x43035a3c		$t
	0x43035a3d		setlocale
	0x43035b14		$d
.text.setlocale_one_unlocked	0x43035b24	0x34	C:\Users\nikol\projects\quectel\development\customer\threadx\tools\LLVM\4.0.3\armv7m-none-eabi\libc\lib/libc.a(setlocale.o)	#SHT_PROGBITS,SHF_ALLOC|SHF_EXECINSTR,4
	0x43035b24		$t
	0x43035b25		setlocale_one_unlocked
	0x43035b50		$d
.text.__fpclassify	0x43035b58	0x32	C:\Users\nikol\projects\quectel\development\customer\threadx\tools\LLVM\4.0.3\armv7m-none-eabi\libc\lib/libc.a(__fpclassify.o)	#SHT_PROGBITS,SHF_ALLOC|SHF_EXECINSTR,2
	0x43035b58		$t
	0x43035b59		__fpclassify
PADDING_ALIGNMENT	0x43035b8a	0x2	0x0
.text.acos	0x43035b8c	0x1a4	C:\Users\nikol\projects\quectel\development\customer\threadx\tools\LLVM\4.0.3\armv7m-none-eabi\libc\lib/libc.a(acos.o)	#SHT_PROGBITS,SHF_ALLOC|SHF_EXECINSTR,4
	0x43035b8c		$t
	0x43035b8d		acos
	0x43035d04		$d
.text.R	0x43035d30	0x108	C:\Users\nikol\projects\quectel\development\customer\threadx\tools\LLVM\4.0.3\armv7m-none-eabi\libc\lib/libc.a(acos.o)	#SHT_PROGBITS,SHF_ALLOC|SHF_EXECINSTR,4
	0x43035d30		$t
	0x43035d31		R
	0x43035de8		$d
.text.sqrt	0x43035e38	0x164	C:\Users\nikol\projects\quectel\development\customer\threadx\tools\LLVM\4.0.3\armv7m-none-eabi\libc\lib/libc.a(sqrt.o)	#SHT_PROGBITS,SHF_ALLOC|SHF_EXECINSTR,4
	0x43035e38		$t
	0x43035e39		sqrt
	0x43035f90		$d
.text.asin	0x43035f9c	0x1f4	C:\Users\nikol\projects\quectel\development\customer\threadx\tools\LLVM\4.0.3\armv7m-none-eabi\libc\lib/libc.a(asin.o)	#SHT_PROGBITS,SHF_ALLOC|SHF_EXECINSTR,4
	0x43035f9c		$t
	0x43035f9d		asin
	0x4303615c		$d
.text.R	0x43036190	0x108	C:\Users\nikol\projects\quectel\development\customer\threadx\tools\LLVM\4.0.3\armv7m-none-eabi\libc\lib/libc.a(asin.o)	#SHT_PROGBITS,SHF_ALLOC|SHF_EXECINSTR,4
	0x43036190		$t
	0x43036191		R
	0x43036248		$d
.text.atan	0x43036298	0x340	C:\Users\nikol\projects\quectel\development\customer\threadx\tools\LLVM\4.0.3\armv7m-none-eabi\libc\lib/libc.a(atan.o)	#SHT_PROGBITS,SHF_ALLOC|SHF_EXECINSTR,4
	0x43036298		$t
	0x43036299		atan
	0x43036548		$d
.text.atan2	0x430365d8	0x184	C:\Users\nikol\projects\quectel\development\customer\threadx\tools\LLVM\4.0.3\armv7m-none-eabi\libc\lib/libc.a(atan2.o)	#SHT_PROGBITS,SHF_ALLOC|SHF_EXECINSTR,4
	0x430365d8		$t
	0x430365d9		atan2
	0x43036724		$d
.text.ceil	0x4303675c	0xd4	C:\Users\nikol\projects\quectel\development\customer\threadx\tools\LLVM\4.0.3\armv7m-none-eabi\libc\lib/libc.a(ceil.o)	#SHT_PROGBITS,SHF_ALLOC|SHF_EXECINSTR,4
	0x4303675c		$t
	0x4303675d		ceil
	0x43036824		$d
.text.cos	0x43036830	0xa0	C:\Users\nikol\projects\quectel\development\customer\threadx\tools\LLVM\4.0.3\armv7m-none-eabi\libc\lib/libc.a(cos.o)	#SHT_PROGBITS,SHF_ALLOC|SHF_EXECINSTR,4
	0x43036830		$t
	0x43036831		cos
	0x430368bc		$d
.text.exp	0x430368d0	0x280	C:\Users\nikol\projects\quectel\development\customer\threadx\tools\LLVM\4.0.3\armv7m-none-eabi\libc\lib/libc.a(exp.o)	#SHT_PROGBITS,SHF_ALLOC|SHF_EXECINSTR,4
	0x430368d0		$t
	0x430368d1		exp
	0x43036ad4		$d
.text.floor	0x43036b50	0xc4	C:\Users\nikol\projects\quectel\development\customer\threadx\tools\LLVM\4.0.3\armv7m-none-eabi\libc\lib/libc.a(floor.o)	#SHT_PROGBITS,SHF_ALLOC|SHF_EXECINSTR,4
	0x43036b50		$t
	0x43036b51		floor
	0x43036c08		$d
.text.fmod	0x43036c14	0x1f4	C:\Users\nikol\projects\quectel\development\customer\threadx\tools\LLVM\4.0.3\armv7m-none-eabi\libc\lib/libc.a(fmod.o)	#SHT_PROGBITS,SHF_ALLOC|SHF_EXECINSTR,4
	0x43036c14		$t
	0x43036c15		fmod
	0x43036e04		$d
.text.log	0x43036e08	0x248	C:\Users\nikol\projects\quectel\development\customer\threadx\tools\LLVM\4.0.3\armv7m-none-eabi\libc\lib/libc.a(log.o)	#SHT_PROGBITS,SHF_ALLOC|SHF_EXECINSTR,4
	0x43036e08		$t
	0x43036e09		log
	0x43036fe4		$d
.text.pow	0x43037050	0xaa0	C:\Users\nikol\projects\quectel\development\customer\threadx\tools\LLVM\4.0.3\armv7m-none-eabi\libc\lib/libc.a(pow.o)	#SHT_PROGBITS,SHF_ALLOC|SHF_EXECINSTR,4
	0x43037050		$t
	0x43037051		pow
	0x430379e0		$d
.text.scalbn	0x43037af0	0x94	C:\Users\nikol\projects\quectel\development\customer\threadx\tools\LLVM\4.0.3\armv7m-none-eabi\libc\lib/libc.a(scalbn.o)	#SHT_PROGBITS,SHF_ALLOC|SHF_EXECINSTR,4
	0x43037af0		$t
	0x43037af1		scalbn
	0x43037b70		$d
.text.sin	0x43037b84	0xdc	C:\Users\nikol\projects\quectel\development\customer\threadx\tools\LLVM\4.0.3\armv7m-none-eabi\libc\lib/libc.a(sin.o)	#SHT_PROGBITS,SHF_ALLOC|SHF_EXECINSTR,4
	0x43037b84		$t
	0x43037b85		sin
	0x43037c4c		$d
.text.tan	0x43037c60	0xa0	C:\Users\nikol\projects\quectel\development\customer\threadx\tools\LLVM\4.0.3\armv7m-none-eabi\libc\lib/libc.a(tan.o)	#SHT_PROGBITS,SHF_ALLOC|SHF_EXECINSTR,4
	0x43037c60		$t
	0x43037c61		tan
	0x43037cf0		$d
.text.__getopt_msg	0x43037d00	0x64	C:\Users\nikol\projects\quectel\development\customer\threadx\tools\LLVM\4.0.3\armv7m-none-eabi\libc\lib/libc.a(getopt.o)	#SHT_PROGBITS,SHF_ALLOC|SHF_EXECINSTR,4
	0x43037d00		$t
	0x43037d01		__getopt_msg
	0x43037d60		$d
.text.getopt	0x43037d64	0x174	C:\Users\nikol\projects\quectel\development\customer\threadx\tools\LLVM\4.0.3\armv7m-none-eabi\libc\lib/libc.a(getopt.o)	#SHT_PROGBITS,SHF_ALLOC|SHF_EXECINSTR,4
	0x43037d64		$t
	0x43037d65		getopt
	0x43037d65		__posix_getopt
	0x43037ec0		$d
.text.mbtowc	0x43037ed8	0xcc	C:\Users\nikol\projects\quectel\development\customer\threadx\tools\LLVM\4.0.3\armv7m-none-eabi\libc\lib/libc.a(mbtowc.o)	#SHT_PROGBITS,SHF_ALLOC|SHF_EXECINSTR,4
	0x43037ed8		$t
	0x43037ed9		mbtowc
	0x43037fa0		$d
.text	0x43037fa4	0x1e	C:\Users\nikol\projects\quectel\development\customer\threadx\tools\LLVM\4.0.3\armv7m-none-eabi\libc\lib/libc.a(longjmp.o)	#SHT_PROGBITS,SHF_ALLOC|SHF_EXECINSTR,2
	0x43037fa4		$t
	0x43037fa5		_longjmp
	0x43037fa5		longjmp
.text	0x43037fc2	0x18	C:\Users\nikol\projects\quectel\development\customer\threadx\tools\LLVM\4.0.3\armv7m-none-eabi\libc\lib/libc.a(setjmp.o)	#SHT_PROGBITS,SHF_ALLOC|SHF_EXECINSTR,2
	0x43037fc2		$t
	0x43037fc3		__setjmp
	0x43037fc3		_setjmp
	0x43037fc3		setjmp
.text.vfprintf	0x43037fda	0xd6	C:\Users\nikol\projects\quectel\development\customer\threadx\tools\LLVM\4.0.3\armv7m-none-eabi\libc\lib/libc.a(vfprintf.o)	#SHT_PROGBITS,SHF_ALLOC|SHF_EXECINSTR,2
	0x43037fda		$t
	0x43037fdb		vfprintf
.text.printf_core	0x430380b0	0x6a8	C:\Users\nikol\projects\quectel\development\customer\threadx\tools\LLVM\4.0.3\armv7m-none-eabi\libc\lib/libc.a(vfprintf.o)	#SHT_PROGBITS,SHF_ALLOC|SHF_EXECINSTR,4
	0x430380b0		$t
	0x430380b1		printf_core
	0x43038360		$d
	0x43038368		$t
	0x430385d0		$d
	0x430385f6		$t
	0x43038734		$d
.text.vsnprintf	0x43038758	0x1a4	C:\Users\nikol\projects\quectel\development\customer\threadx\tools\LLVM\4.0.3\armv7m-none-eabi\libc\lib/libc.a(vfprintf.o)	#SHT_PROGBITS,SHF_ALLOC|SHF_EXECINSTR,4
	0x43038758		$t
	0x43038759		vsnprintf
	0x430388f8		$d
.text.fmt_u32	0x430388fc	0x22	C:\Users\nikol\projects\quectel\development\customer\threadx\tools\LLVM\4.0.3\armv7m-none-eabi\libc\lib/libc.a(vfprintf.o)	#SHT_PROGBITS,SHF_ALLOC|SHF_EXECINSTR,2
	0x430388fc		$t
	0x430388fd		fmt_u32
.text.out	0x4303891e	0x14	C:\Users\nikol\projects\quectel\development\customer\threadx\tools\LLVM\4.0.3\armv7m-none-eabi\libc\lib/libc.a(vfprintf.o)	#SHT_PROGBITS,SHF_ALLOC|SHF_EXECINSTR,2
	0x4303891e		$t
	0x4303891f		out
.text.getint	0x43038932	0x1e	C:\Users\nikol\projects\quectel\development\customer\threadx\tools\LLVM\4.0.3\armv7m-none-eabi\libc\lib/libc.a(vfprintf.o)	#SHT_PROGBITS,SHF_ALLOC|SHF_EXECINSTR,2
	0x43038932		$t
	0x43038933		getint
.text.pop_arg	0x43038950	0x80	C:\Users\nikol\projects\quectel\development\customer\threadx\tools\LLVM\4.0.3\armv7m-none-eabi\libc\lib/libc.a(vfprintf.o)	#SHT_PROGBITS,SHF_ALLOC|SHF_EXECINSTR,4
	0x43038950		$t
	0x43038951		pop_arg
	0x4303895e		$d
	0x43038968		$t
.text.pad	0x430389d0	0x4e	C:\Users\nikol\projects\quectel\development\customer\threadx\tools\LLVM\4.0.3\armv7m-none-eabi\libc\lib/libc.a(vfprintf.o)	#SHT_PROGBITS,SHF_ALLOC|SHF_EXECINSTR,2
	0x430389d0		$t
	0x430389d1		pad
.text.flockfile	0x43038a1e	0x28	C:\Users\nikol\projects\quectel\development\customer\threadx\tools\LLVM\4.0.3\armv7m-none-eabi\libc\lib/libc.a(flockfile.o)	#SHT_PROGBITS,SHF_ALLOC|SHF_EXECINSTR,2
	0x43038a1e		$t
	0x43038a1f		flockfile
.text.fputs	0x43038a46	0x26	C:\Users\nikol\projects\quectel\development\customer\threadx\tools\LLVM\4.0.3\armv7m-none-eabi\libc\lib/libc.a(fputs.o)	#SHT_PROGBITS,SHF_ALLOC|SHF_EXECINSTR,2
	0x43038a46		$t
	0x43038a47		fputs
	0x43038a47		fputs_unlocked
.text.__do_orphaned_stdio_locks	0x43038a6c	0x1e	C:\Users\nikol\projects\quectel\development\customer\threadx\tools\LLVM\4.0.3\armv7m-none-eabi\libc\lib/libc.a(ftrylockfile.o)	#SHT_PROGBITS,SHF_ALLOC|SHF_EXECINSTR,2
	0x43038a6c		$t
	0x43038a6d		__do_orphaned_stdio_locks
.text.__unlist_locked_file	0x43038a8a	0x26	C:\Users\nikol\projects\quectel\development\customer\threadx\tools\LLVM\4.0.3\armv7m-none-eabi\libc\lib/libc.a(ftrylockfile.o)	#SHT_PROGBITS,SHF_ALLOC|SHF_EXECINSTR,2
	0x43038a8a		$t
	0x43038a8b		__unlist_locked_file
.text.ftrylockfile	0x43038ab0	0x80	C:\Users\nikol\projects\quectel\development\customer\threadx\tools\LLVM\4.0.3\armv7m-none-eabi\libc\lib/libc.a(ftrylockfile.o)	#SHT_PROGBITS,SHF_ALLOC|SHF_EXECINSTR,4
	0x43038ab0		$t
	0x43038ab1		ftrylockfile
	0x43038b2c		$d
.text.funlockfile	0x43038b30	0x24	C:\Users\nikol\projects\quectel\development\customer\threadx\tools\LLVM\4.0.3\armv7m-none-eabi\libc\lib/libc.a(funlockfile.o)	#SHT_PROGBITS,SHF_ALLOC|SHF_EXECINSTR,2
	0x43038b30		$t
	0x43038b31		funlockfile
.text.__fwritex	0x43038b54	0x76	C:\Users\nikol\projects\quectel\development\customer\threadx\tools\LLVM\4.0.3\armv7m-none-eabi\libc\lib/libc.a(fwrite.o)	#SHT_PROGBITS,SHF_ALLOC|SHF_EXECINSTR,2
	0x43038b54		$t
	0x43038b55		__fwritex
.text.fwrite	0x43038bca	0x58	C:\Users\nikol\projects\quectel\development\customer\threadx\tools\LLVM\4.0.3\armv7m-none-eabi\libc\lib/libc.a(fwrite.o)	#SHT_PROGBITS,SHF_ALLOC|SHF_EXECINSTR,2
	0x43038bca		$t
	0x43038bcb		fwrite
	0x43038bcb		fwrite_unlocked
.text.putc	0x43038c22	0x68	C:\Users\nikol\projects\quectel\development\customer\threadx\tools\LLVM\4.0.3\armv7m-none-eabi\libc\lib/libc.a(putc.o)	#SHT_PROGBITS,SHF_ALLOC|SHF_EXECINSTR,2
	0x43038c22		$t
	0x43038c23		putc
	0x43038c23		_IO_putc
.text.snprintf	0x43038c8a	0x16	C:\Users\nikol\projects\quectel\development\customer\threadx\tools\LLVM\4.0.3\armv7m-none-eabi\libc\lib/libc.a(snprintf.o)	#SHT_PROGBITS,SHF_ALLOC|SHF_EXECINSTR,2
	0x43038c8a		$t
	0x43038c8b		snprintf
.text.sprintf	0x43038ca0	0x18	C:\Users\nikol\projects\quectel\development\customer\threadx\tools\LLVM\4.0.3\armv7m-none-eabi\libc\lib/libc.a(sprintf.o)	#SHT_PROGBITS,SHF_ALLOC|SHF_EXECINSTR,2
	0x43038ca0		$t
	0x43038ca1		sprintf
.text.sscanf	0x43038cb8	0x18	C:\Users\nikol\projects\quectel\development\customer\threadx\tools\LLVM\4.0.3\armv7m-none-eabi\libc\lib/libc.a(sscanf.o)	#SHT_PROGBITS,SHF_ALLOC|SHF_EXECINSTR,2
	0x43038cb8		$t
	0x43038cb9		sscanf
	0x43038cb9		__isoc99_sscanf
.text.vsnprintf_full	0x43038cd0	0x74	C:\Users\nikol\projects\quectel\development\customer\threadx\tools\LLVM\4.0.3\armv7m-none-eabi\libc\lib/libc.a(vsnprintf.o)	#SHT_PROGBITS,SHF_ALLOC|SHF_EXECINSTR,4
	0x43038cd0		$t
	0x43038cd1		vsnprintf_full
	0x43038d3c		$d
.text.sn_write	0x43038d44	0x22	C:\Users\nikol\projects\quectel\development\customer\threadx\tools\LLVM\4.0.3\armv7m-none-eabi\libc\lib/libc.a(vsnprintf.o)	#SHT_PROGBITS,SHF_ALLOC|SHF_EXECINSTR,2
	0x43038d44		$t
	0x43038d45		sn_write
PADDING_ALIGNMENT	0x43038d66	0x2	0x0
.text.vsprintf	0x43038d68	0x10	C:\Users\nikol\projects\quectel\development\customer\threadx\tools\LLVM\4.0.3\armv7m-none-eabi\libc\lib/libc.a(vsprintf.o)	#SHT_PROGBITS,SHF_ALLOC|SHF_EXECINSTR,4
	0x43038d68		$t
	0x43038d69		vsprintf
	0x43038d74		$d
.text.vsscanf	0x43038d78	0x34	C:\Users\nikol\projects\quectel\development\customer\threadx\tools\LLVM\4.0.3\armv7m-none-eabi\libc\lib/libc.a(vsscanf.o)	#SHT_PROGBITS,SHF_ALLOC|SHF_EXECINSTR,4
	0x43038d78		$t
	0x43038d79		vsscanf
	0x43038d79		__isoc99_vsscanf
	0x43038da8		$d
.text.do_read	0x43038dac	0x4	C:\Users\nikol\projects\quectel\development\customer\threadx\tools\LLVM\4.0.3\armv7m-none-eabi\libc\lib/libc.a(vsscanf.o)	#SHT_PROGBITS,SHF_ALLOC|SHF_EXECINSTR,2
	0x43038dac		$t
	0x43038dad		do_read
.text.__aeabi_memclr	0x43038db0	0x8	C:\Users\nikol\projects\quectel\development\customer\threadx\tools\LLVM\4.0.3\armv7m-none-eabi\libc\lib/libc.a(__aeabi_memclr.o)	#SHT_PROGBITS,SHF_ALLOC|SHF_EXECINSTR,2
	0x43038db0		$t
	0x43038db1		__aeabi_memclr
	0x43038db1		__aeabi_memclr4
	0x43038db1		__aeabi_memclr8
.text.__aeabi_memcpy	0x43038db8	0x4	C:\Users\nikol\projects\quectel\development\customer\threadx\tools\LLVM\4.0.3\armv7m-none-eabi\libc\lib/libc.a(__aeabi_memcpy.o)	#SHT_PROGBITS,SHF_ALLOC|SHF_EXECINSTR,2
	0x43038db8		$t
	0x43038db9		__aeabi_memcpy
	0x43038db9		__aeabi_memcpy4
	0x43038db9		__aeabi_memcpy8
.text	0x43038dbc	0x2ee	C:\Users\nikol\projects\quectel\development\customer\threadx\tools\LLVM\4.0.3\armv7m-none-eabi\libc\lib/libc.a(memcpy_le.o)	#SHT_PROGBITS,SHF_ALLOC|SHF_EXECINSTR,2
	0x43038dbc		$t
	0x43038dbd		memcpy
	0x43038dfc		src_aligned
	0x43038e4a		congruent_aligned32
	0x43038e4a		cached_aligned32
	0x43038e60		less_than_32_left
	0x43038eae		non_congruent
	0x43038f2a		loop16
	0x43038f86		loop8
	0x43038fe2		loop24
	0x4303903a		less_than_thirtytwo
	0x43039064		partial_word_tail
	0x43039080		copy_last_3_and_return
PADDING_ALIGNMENT	0x430390aa	0x2	0x0
.text	0x430390ac	0x68	C:\Users\nikol\projects\quectel\development\customer\threadx\tools\LLVM\4.0.3\armv7m-none-eabi\libc\lib/libc.a(memset_nofp_armv7.o)	#SHT_PROGBITS,SHF_ALLOC|SHF_EXECINSTR,4
	0x430390ac		$t
	0x430390ad		memset
.text.memchr	0x43039114	0x5c	C:\Users\nikol\projects\quectel\development\customer\threadx\tools\LLVM\4.0.3\armv7m-none-eabi\libc\lib/libc.a(memchr.o)	#SHT_PROGBITS,SHF_ALLOC|SHF_EXECINSTR,2
	0x43039114		$t
	0x43039115		memchr
.text.memcmp	0x43039170	0x1c	C:\Users\nikol\projects\quectel\development\customer\threadx\tools\LLVM\4.0.3\armv7m-none-eabi\libc\lib/libc.a(memcmp.o)	#SHT_PROGBITS,SHF_ALLOC|SHF_EXECINSTR,2
	0x43039170		$t
	0x43039171		memcmp
.text.memmove	0x4303918c	0x82	C:\Users\nikol\projects\quectel\development\customer\threadx\tools\LLVM\4.0.3\armv7m-none-eabi\libc\lib/libc.a(memmove.o)	#SHT_PROGBITS,SHF_ALLOC|SHF_EXECINSTR,2
	0x4303918c		$t
	0x4303918d		memmove
.text.strchr	0x4303920e	0x14	C:\Users\nikol\projects\quectel\development\customer\threadx\tools\LLVM\4.0.3\armv7m-none-eabi\libc\lib/libc.a(strchr.o)	#SHT_PROGBITS,SHF_ALLOC|SHF_EXECINSTR,2
	0x4303920e		$t
	0x4303920f		strchr
.text.__strchrnul	0x43039222	0x5c	C:\Users\nikol\projects\quectel\development\customer\threadx\tools\LLVM\4.0.3\armv7m-none-eabi\libc\lib/libc.a(strchrnul.o)	#SHT_PROGBITS,SHF_ALLOC|SHF_EXECINSTR,2
	0x43039222		$t
	0x43039223		__strchrnul
	0x43039223		strchrnul
.text.strcmp	0x4303927e	0x14	C:\Users\nikol\projects\quectel\development\customer\threadx\tools\LLVM\4.0.3\armv7m-none-eabi\libc\lib/libc.a(strcmp.o)	#SHT_PROGBITS,SHF_ALLOC|SHF_EXECINSTR,2
	0x4303927e		$t
	0x4303927f		strcmp
.text.__strdup	0x43039292	0x22	C:\Users\nikol\projects\quectel\development\customer\threadx\tools\LLVM\4.0.3\armv7m-none-eabi\libc\lib/libc.a(strdup.o)	#SHT_PROGBITS,SHF_ALLOC|SHF_EXECINSTR,2
	0x43039292		$t
	0x43039293		__strdup
	0x43039293		strdup
.text.strlen	0x430392b4	0x34	C:\Users\nikol\projects\quectel\development\customer\threadx\tools\LLVM\4.0.3\armv7m-none-eabi\libc\lib/libc.a(strlen.o)	#SHT_PROGBITS,SHF_ALLOC|SHF_EXECINSTR,2
	0x430392b4		$t
	0x430392b5		strlen
.text.strncmp	0x430392e8	0x28	C:\Users\nikol\projects\quectel\development\customer\threadx\tools\LLVM\4.0.3\armv7m-none-eabi\libc\lib/libc.a(strncmp.o)	#SHT_PROGBITS,SHF_ALLOC|SHF_EXECINSTR,2
	0x430392e8		$t
	0x430392e9		strncmp
.text.strncpy	0x43039310	0xc	C:\Users\nikol\projects\quectel\development\customer\threadx\tools\LLVM\4.0.3\armv7m-none-eabi\libc\lib/libc.a(strncpy.o)	#SHT_PROGBITS,SHF_ALLOC|SHF_EXECINSTR,2
	0x43039310		$t
	0x43039311		strncpy
.text.strtok	0x4303931c	0x50	C:\Users\nikol\projects\quectel\development\customer\threadx\tools\LLVM\4.0.3\armv7m-none-eabi\libc\lib/libc.a(strtok.o)	#SHT_PROGBITS,SHF_ALLOC|SHF_EXECINSTR,4
	0x4303931c		$t
	0x4303931d		strtok
	0x43039368		$d
.text.__lock	0x4303936c	0x38	C:\Users\nikol\projects\quectel\development\customer\threadx\tools\LLVM\4.0.3\armv7m-none-eabi\libc\lib/libc.a(__lock.o)	#SHT_PROGBITS,SHF_ALLOC|SHF_EXECINSTR,4
	0x4303936c		$t
	0x4303936d		__lock
	0x430393a0		$d
.text.__unlock	0x430393a4	0x32	C:\Users\nikol\projects\quectel\development\customer\threadx\tools\LLVM\4.0.3\armv7m-none-eabi\libc\lib/libc.a(__lock.o)	#SHT_PROGBITS,SHF_ALLOC|SHF_EXECINSTR,2
	0x430393a4		$t
	0x430393a5		__unlock
.text.__syscall3	0x430393d6	0xa	C:\Users\nikol\projects\quectel\development\customer\threadx\tools\LLVM\4.0.3\armv7m-none-eabi\libc\lib/libc.a(__lock.o)	#SHT_PROGBITS,SHF_ALLOC|SHF_EXECINSTR,2
	0x430393d6		$t
	0x430393d7		__syscall3
.text.__wait	0x430393e0	0x64	C:\Users\nikol\projects\quectel\development\customer\threadx\tools\LLVM\4.0.3\armv7m-none-eabi\libc\lib/libc.a(__wait.o)	#SHT_PROGBITS,SHF_ALLOC|SHF_EXECINSTR,2
	0x430393e0		$t
	0x430393e1		__wait
.text.__syscall4	0x43039444	0xa	C:\Users\nikol\projects\quectel\development\customer\threadx\tools\LLVM\4.0.3\armv7m-none-eabi\libc\lib/libc.a(__wait.o)	#SHT_PROGBITS,SHF_ALLOC|SHF_EXECINSTR,2
	0x43039444		$t
	0x43039445		__syscall4
.text.a_fetch_add	0x4303944e	0x18	C:\Users\nikol\projects\quectel\development\customer\threadx\tools\LLVM\4.0.3\armv7m-none-eabi\libc\lib/libc.a(__wait.o)	#SHT_PROGBITS,SHF_ALLOC|SHF_EXECINSTR,2
	0x4303944e		$t
	0x4303944f		a_fetch_add
.text.mktime	0x43039466	0x9c	C:\Users\nikol\projects\quectel\development\customer\threadx\tools\LLVM\4.0.3\armv7m-none-eabi\libc\lib/libc.a(mktime.o)	#SHT_PROGBITS,SHF_ALLOC|SHF_EXECINSTR,2
	0x43039466		$t
	0x43039467		mktime
PADDING_ALIGNMENT	0x43039502	0x2	0x0
.text.__strftime_fmt_1	0x43039504	0x3a8	C:\Users\nikol\projects\quectel\development\customer\threadx\tools\LLVM\4.0.3\armv7m-none-eabi\libc\lib/libc.a(strftime.o)	#SHT_PROGBITS,SHF_ALLOC|SHF_EXECINSTR,4
	0x43039504		$t
	0x43039505		__strftime_fmt_1
	0x43039536		$d
	0x430395e2		$t
	0x43039874		$d
.text.week_num	0x430398ac	0xa4	C:\Users\nikol\projects\quectel\development\customer\threadx\tools\LLVM\4.0.3\armv7m-none-eabi\libc\lib/libc.a(strftime.o)	#SHT_PROGBITS,SHF_ALLOC|SHF_EXECINSTR,2
	0x430398ac		$t
	0x430398ad		week_num
.text.__strftime_l	0x43039950	0x12c	C:\Users\nikol\projects\quectel\development\customer\threadx\tools\LLVM\4.0.3\armv7m-none-eabi\libc\lib/libc.a(strftime.o)	#SHT_PROGBITS,SHF_ALLOC|SHF_EXECINSTR,4
	0x43039950		$t
	0x43039951		__strftime_l
	0x43039951		strftime_l
	0x43039a74		$d
.text.strftime	0x43039a7c	0x14	C:\Users\nikol\projects\quectel\development\customer\threadx\tools\LLVM\4.0.3\armv7m-none-eabi\libc\lib/libc.a(strftime.o)	#SHT_PROGBITS,SHF_ALLOC|SHF_EXECINSTR,2
	0x43039a7c		$t
	0x43039a7d		strftime
.text.is_leap	0x43039a90	0x44	C:\Users\nikol\projects\quectel\development\customer\threadx\tools\LLVM\4.0.3\armv7m-none-eabi\libc\lib/libc.a(strftime.o)	#SHT_PROGBITS,SHF_ALLOC|SHF_EXECINSTR,4
	0x43039a90		$t
	0x43039a91		is_leap
	0x43039ad0		$d
.text.strptime	0x43039ad4	0x394	C:\Users\nikol\projects\quectel\development\customer\threadx\tools\LLVM\4.0.3\armv7m-none-eabi\libc\lib/libc.a(strptime.o)	#SHT_PROGBITS,SHF_ALLOC|SHF_EXECINSTR,4
	0x43039ad4		$t
	0x43039ad5		strptime
	0x43039ba8		$d
	0x43039c1a		$t
	0x43039e5c		$d
.text.__isspace	0x43039e68	0x1e	C:\Users\nikol\projects\quectel\development\customer\threadx\tools\LLVM\4.0.3\armv7m-none-eabi\libc\lib/libc.a(strptime.o)	#SHT_PROGBITS,SHF_ALLOC|SHF_EXECINSTR,2
	0x43039e68		$t
	0x43039e69		__isspace
.text.write	0x43039e86	0x20	C:\Users\nikol\projects\quectel\development\customer\threadx\tools\LLVM\4.0.3\armv7m-none-eabi\libc\lib/libc.a(write.o)	#SHT_PROGBITS,SHF_ALLOC|SHF_EXECINSTR,2
	0x43039e86		$t
	0x43039e87		write
.text.__errno_location	0x43039ea6	0x8	C:\Users\nikol\projects\quectel\development\customer\threadx\tools\LLVM\4.0.3\armv7m-none-eabi\libc\lib/libc.a(__errno_location.o)	#SHT_PROGBITS,SHF_ALLOC|SHF_EXECINSTR,2
	0x43039ea6		$t
	0x43039ea7		__errno_location
PADDING_ALIGNMENT	0x43039eae	0x2	0x0
.text.__strerror_l	0x43039eb0	0x3c	C:\Users\nikol\projects\quectel\development\customer\threadx\tools\LLVM\4.0.3\armv7m-none-eabi\libc\lib/libc.a(strerror.o)	#SHT_PROGBITS,SHF_ALLOC|SHF_EXECINSTR,4
	0x43039eb0		$t
	0x43039eb1		__strerror_l
	0x43039eb1		strerror_l
	0x43039ee4		$d
.text.strerror	0x43039eec	0xc	C:\Users\nikol\projects\quectel\development\customer\threadx\tools\LLVM\4.0.3\armv7m-none-eabi\libc\lib/libc.a(strerror.o)	#SHT_PROGBITS,SHF_ALLOC|SHF_EXECINSTR,2
	0x43039eec		$t
	0x43039eed		strerror
.text.__syscall_ret	0x43039ef8	0x20	C:\Users\nikol\projects\quectel\development\customer\threadx\tools\LLVM\4.0.3\armv7m-none-eabi\libc\lib/libc.a(syscall_ret.o)	#SHT_PROGBITS,SHF_ALLOC|SHF_EXECINSTR,4
	0x43039ef8		$t
	0x43039ef9		__syscall_ret
	0x43039f14		$d
.text.dummy	0x43039f18	0x2	C:\Users\nikol\projects\quectel\development\customer\threadx\tools\LLVM\4.0.3\armv7m-none-eabi\libc\lib/libc.a(__lctrans.o)	#SHT_PROGBITS,SHF_ALLOC|SHF_EXECINSTR,2
	0x43039f18		$t
	0x43039f19		dummy
.text.__lctrans	0x43039f1a	0x4	C:\Users\nikol\projects\quectel\development\customer\threadx\tools\LLVM\4.0.3\armv7m-none-eabi\libc\lib/libc.a(__lctrans.o)	#SHT_PROGBITS,SHF_ALLOC|SHF_EXECINSTR,2
	0x43039f1a		$t
	0x43039f1b		__lctrans
.text.__lctrans_cur	0x43039f1e	0xe	C:\Users\nikol\projects\quectel\development\customer\threadx\tools\LLVM\4.0.3\armv7m-none-eabi\libc\lib/libc.a(__lctrans.o)	#SHT_PROGBITS,SHF_ALLOC|SHF_EXECINSTR,2
	0x43039f1e		$t
	0x43039f1f		__lctrans_cur
.text.__nl_langinfo_l	0x43039f2c	0x94	C:\Users\nikol\projects\quectel\development\customer\threadx\tools\LLVM\4.0.3\armv7m-none-eabi\libc\lib/libc.a(langinfo.o)	#SHT_PROGBITS,SHF_ALLOC|SHF_EXECINSTR,4
	0x43039f2c		$t
	0x43039f2d		__nl_langinfo_l
	0x43039f2d		nl_langinfo_l
	0x43039f5a		$d
	0x43039f5f		$d
	0x43039f60		$t
	0x43039fa8		$d
.text.__nl_langinfo	0x43039fc0	0xc	C:\Users\nikol\projects\quectel\development\customer\threadx\tools\LLVM\4.0.3\armv7m-none-eabi\libc\lib/libc.a(langinfo.o)	#SHT_PROGBITS,SHF_ALLOC|SHF_EXECINSTR,2
	0x43039fc0		$t
	0x43039fc1		__nl_langinfo
	0x43039fc1		nl_langinfo
.text.__lctrans_impl	0x43039fcc	0x1e	C:\Users\nikol\projects\quectel\development\customer\threadx\tools\LLVM\4.0.3\armv7m-none-eabi\libc\lib/libc.a(locale_map.o)	#SHT_PROGBITS,SHF_ALLOC|SHF_EXECINSTR,2
	0x43039fcc		$t
	0x43039fcd		__lctrans_impl
PADDING_ALIGNMENT	0x43039fea	0x2	0x0
.text.__get_locale	0x43039fec	0x1e8	C:\Users\nikol\projects\quectel\development\customer\threadx\tools\LLVM\4.0.3\armv7m-none-eabi\libc\lib/libc.a(locale_map.o)	#SHT_PROGBITS,SHF_ALLOC|SHF_EXECINSTR,4
	0x43039fec		$t
	0x43039fed		__get_locale
	0x4303a1b0		$d
.text.__cos	0x4303a1d4	0x164	C:\Users\nikol\projects\quectel\development\customer\threadx\tools\LLVM\4.0.3\armv7m-none-eabi\libc\lib/libc.a(__cos.o)	#SHT_PROGBITS,SHF_ALLOC|SHF_EXECINSTR,4
	0x4303a1d4		$t
	0x4303a1d5		__cos
	0x4303a300		$d
.text.__rem_pio2	0x4303a338	0x600	C:\Users\nikol\projects\quectel\development\customer\threadx\tools\LLVM\4.0.3\armv7m-none-eabi\libc\lib/libc.a(__rem_pio2.o)	#SHT_PROGBITS,SHF_ALLOC|SHF_EXECINSTR,4
	0x4303a338		$t
	0x4303a339		__rem_pio2
	0x4303a8a4		$d
.text.__rem_pio2_large	0x4303a938	0x6b4	C:\Users\nikol\projects\quectel\development\customer\threadx\tools\LLVM\4.0.3\armv7m-none-eabi\libc\lib/libc.a(__rem_pio2_large.o)	#SHT_PROGBITS,SHF_ALLOC|SHF_EXECINSTR,4
	0x4303a938		$t
	0x4303a939		__rem_pio2_large
	0x4303afbc		$d
.text.__sin	0x4303afec	0x174	C:\Users\nikol\projects\quectel\development\customer\threadx\tools\LLVM\4.0.3\armv7m-none-eabi\libc\lib/libc.a(__sin.o)	#SHT_PROGBITS,SHF_ALLOC|SHF_EXECINSTR,4
	0x4303afec		$t
	0x4303afed		__sin
	0x4303b128		$d
.text.__tan	0x4303b160	0x3ac	C:\Users\nikol\projects\quectel\development\customer\threadx\tools\LLVM\4.0.3\armv7m-none-eabi\libc\lib/libc.a(__tan.o)	#SHT_PROGBITS,SHF_ALLOC|SHF_EXECINSTR,4
	0x4303b160		$t
	0x4303b161		__tan
	0x4303b484		$d
.text.fabs	0x4303b50c	0x6	C:\Users\nikol\projects\quectel\development\customer\threadx\tools\LLVM\4.0.3\armv7m-none-eabi\libc\lib/libc.a(fabs.o)	#SHT_PROGBITS,SHF_ALLOC|SHF_EXECINSTR,2
	0x4303b50c		$t
	0x4303b50d		fabs
.text.dummy	0x4303b512	0x2	C:\Users\nikol\projects\quectel\development\customer\threadx\tools\LLVM\4.0.3\armv7m-none-eabi\libc\lib/libc.a(munmap.o)	#SHT_PROGBITS,SHF_ALLOC|SHF_EXECINSTR,2
	0x4303b512		$t
	0x4303b513		dummy
	0x4303b513		__vm_wait
.text.__munmap	0x4303b514	0x1a	C:\Users\nikol\projects\quectel\development\customer\threadx\tools\LLVM\4.0.3\armv7m-none-eabi\libc\lib/libc.a(munmap.o)	#SHT_PROGBITS,SHF_ALLOC|SHF_EXECINSTR,2
	0x4303b514		$t
	0x4303b515		__munmap
	0x4303b515		munmap
.text.wctomb	0x4303b52e	0xc	C:\Users\nikol\projects\quectel\development\customer\threadx\tools\LLVM\4.0.3\armv7m-none-eabi\libc\lib/libc.a(wctomb.o)	#SHT_PROGBITS,SHF_ALLOC|SHF_EXECINSTR,2
	0x4303b52e		$t
	0x4303b52f		wctomb
.text.__overflow	0x4303b53a	0x54	C:\Users\nikol\projects\quectel\development\customer\threadx\tools\LLVM\4.0.3\armv7m-none-eabi\libc\lib/libc.a(__overflow.o)	#SHT_PROGBITS,SHF_ALLOC|SHF_EXECINSTR,2
	0x4303b53a		$t
	0x4303b53b		__overflow
.text.__string_read	0x4303b58e	0x40	C:\Users\nikol\projects\quectel\development\customer\threadx\tools\LLVM\4.0.3\armv7m-none-eabi\libc\lib/libc.a(__string_read.o)	#SHT_PROGBITS,SHF_ALLOC|SHF_EXECINSTR,2
	0x4303b58e		$t
	0x4303b58f		__string_read
.text.__towrite	0x4303b5ce	0x38	C:\Users\nikol\projects\quectel\development\customer\threadx\tools\LLVM\4.0.3\armv7m-none-eabi\libc\lib/libc.a(__towrite.o)	#SHT_PROGBITS,SHF_ALLOC|SHF_EXECINSTR,2
	0x4303b5ce		$t
	0x4303b5cf		__towrite
.text.__towrite_needs_stdio_exit	0x4303b606	0x4	C:\Users\nikol\projects\quectel\development\customer\threadx\tools\LLVM\4.0.3\armv7m-none-eabi\libc\lib/libc.a(__towrite.o)	#SHT_PROGBITS,SHF_ALLOC|SHF_EXECINSTR,2
	0x4303b606		$t
	0x4303b607		__towrite_needs_stdio_exit
.text.__lockfile	0x4303b60a	0x4	C:\Users\nikol\projects\quectel\development\customer\threadx\tools\LLVM\4.0.3\armv7m-none-eabi\libc\lib/libc.a(__lockfile.o)	#SHT_PROGBITS,SHF_ALLOC|SHF_EXECINSTR,2
	0x4303b60a		$t
	0x4303b60b		__lockfile
.text.__unlockfile	0x4303b60e	0x2	C:\Users\nikol\projects\quectel\development\customer\threadx\tools\LLVM\4.0.3\armv7m-none-eabi\libc\lib/libc.a(__lockfile.o)	#SHT_PROGBITS,SHF_ALLOC|SHF_EXECINSTR,2
	0x4303b60e		$t
	0x4303b60f		__unlockfile
.text.dummy	0x4303b610	0x2	C:\Users\nikol\projects\quectel\development\customer\threadx\tools\LLVM\4.0.3\armv7m-none-eabi\libc\lib/libc.a(__stdio_close.o)	#SHT_PROGBITS,SHF_ALLOC|SHF_EXECINSTR,2
	0x4303b610		$t
	0x4303b611		dummy
	0x4303b611		__aio_close
.text.__stdio_close	0x4303b612	0x14	C:\Users\nikol\projects\quectel\development\customer\threadx\tools\LLVM\4.0.3\armv7m-none-eabi\libc\lib/libc.a(__stdio_close.o)	#SHT_PROGBITS,SHF_ALLOC|SHF_EXECINSTR,2
	0x4303b612		$t
	0x4303b613		__stdio_close
.text.__stdio_seek	0x4303b626	0x72	C:\Users\nikol\projects\quectel\development\customer\threadx\tools\LLVM\4.0.3\armv7m-none-eabi\libc\lib/libc.a(__stdio_seek.o)	#SHT_PROGBITS,SHF_ALLOC|SHF_EXECINSTR,2
	0x4303b626		$t
	0x4303b627		__stdio_seek
.text.__stdio_write	0x4303b698	0xfe	C:\Users\nikol\projects\quectel\development\customer\threadx\tools\LLVM\4.0.3\armv7m-none-eabi\libc\lib/libc.a(__stdio_write.o)	#SHT_PROGBITS,SHF_ALLOC|SHF_EXECINSTR,2
	0x4303b698		$t
	0x4303b699		__stdio_write
PADDING_ALIGNMENT	0x4303b796	0x2	0x0
.text.vfscanf	0x4303b798	0x748	C:\Users\nikol\projects\quectel\development\customer\threadx\tools\LLVM\4.0.3\armv7m-none-eabi\libc\lib/libc.a(vfscanf.o)	#SHT_PROGBITS,SHF_ALLOC|SHF_EXECINSTR,4
	0x4303b798		$t
	0x4303b799		vfscanf
	0x4303b799		__isoc99_vfscanf
	0x4303b960		$d
	0x4303b9d4		$t
	0x4303be7c		$d
	0x4303be9d		$d
	0x4303be9e		$t
.text.__isspace	0x4303bee0	0x1e	C:\Users\nikol\projects\quectel\development\customer\threadx\tools\LLVM\4.0.3\armv7m-none-eabi\libc\lib/libc.a(vfscanf.o)	#SHT_PROGBITS,SHF_ALLOC|SHF_EXECINSTR,2
	0x4303bee0		$t
	0x4303bee1		__isspace
PADDING_ALIGNMENT	0x4303befe	0x2	0x0
.text.store_int	0x4303bf00	0x28	C:\Users\nikol\projects\quectel\development\customer\threadx\tools\LLVM\4.0.3\armv7m-none-eabi\libc\lib/libc.a(vfscanf.o)	#SHT_PROGBITS,SHF_ALLOC|SHF_EXECINSTR,4
	0x4303bf00		$t
	0x4303bf01		store_int
	0x4303bf0e		$d
	0x4303bf14		$t
.text.abs	0x4303bf28	0x8	C:\Users\nikol\projects\quectel\development\customer\threadx\tools\LLVM\4.0.3\armv7m-none-eabi\libc\lib/libc.a(abs.o)	#SHT_PROGBITS,SHF_ALLOC|SHF_EXECINSTR,2
	0x4303bf28		$t
	0x4303bf29		abs
.text.strtoull	0x4303bf30	0x12	C:\Users\nikol\projects\quectel\development\customer\threadx\tools\LLVM\4.0.3\armv7m-none-eabi\libc\lib/libc.a(strtol.o)	#SHT_PROGBITS,SHF_ALLOC|SHF_EXECINSTR,2
	0x4303bf30		$t
	0x4303bf31		strtoull
	0x4303bf31		__strtoull_internal
PADDING_ALIGNMENT	0x4303bf42	0x2	0x0
.text.strtox	0x4303bf44	0x5c	C:\Users\nikol\projects\quectel\development\customer\threadx\tools\LLVM\4.0.3\armv7m-none-eabi\libc\lib/libc.a(strtol.o)	#SHT_PROGBITS,SHF_ALLOC|SHF_EXECINSTR,4
	0x4303bf44		$t
	0x4303bf45		strtox
	0x4303bf9c		$d
.text.strtoll	0x4303bfa0	0x14	C:\Users\nikol\projects\quectel\development\customer\threadx\tools\LLVM\4.0.3\armv7m-none-eabi\libc\lib/libc.a(strtol.o)	#SHT_PROGBITS,SHF_ALLOC|SHF_EXECINSTR,2
	0x4303bfa0		$t
	0x4303bfa1		strtoll
	0x4303bfa1		__strtoll_internal
.text.strtoul	0x4303bfb4	0x14	C:\Users\nikol\projects\quectel\development\customer\threadx\tools\LLVM\4.0.3\armv7m-none-eabi\libc\lib/libc.a(strtol.o)	#SHT_PROGBITS,SHF_ALLOC|SHF_EXECINSTR,2
	0x4303bfb4		$t
	0x4303bfb5		strtoul
	0x4303bfb5		__strtoul_internal
.text.strtol	0x4303bfc8	0x14	C:\Users\nikol\projects\quectel\development\customer\threadx\tools\LLVM\4.0.3\armv7m-none-eabi\libc\lib/libc.a(strtol.o)	#SHT_PROGBITS,SHF_ALLOC|SHF_EXECINSTR,2
	0x4303bfc8		$t
	0x4303bfc9		strtol
	0x4303bfc9		__strtol_internal
.text.strtoimax	0x4303bfdc	0x4	C:\Users\nikol\projects\quectel\development\customer\threadx\tools\LLVM\4.0.3\armv7m-none-eabi\libc\lib/libc.a(strtol.o)	#SHT_PROGBITS,SHF_ALLOC|SHF_EXECINSTR,2
	0x4303bfdc		$t
	0x4303bfdd		strtoimax
	0x4303bfdd		__strtoimax_internal
.text.strtoumax	0x4303bfe0	0x4	C:\Users\nikol\projects\quectel\development\customer\threadx\tools\LLVM\4.0.3\armv7m-none-eabi\libc\lib/libc.a(strtol.o)	#SHT_PROGBITS,SHF_ALLOC|SHF_EXECINSTR,2
	0x4303bfe0		$t
	0x4303bfe1		strtoumax
	0x4303bfe1		__strtoumax_internal
.text.__stpncpy	0x4303bfe4	0x68	C:\Users\nikol\projects\quectel\development\customer\threadx\tools\LLVM\4.0.3\armv7m-none-eabi\libc\lib/libc.a(stpncpy.o)	#SHT_PROGBITS,SHF_ALLOC|SHF_EXECINSTR,2
	0x4303bfe4		$t
	0x4303bfe5		__stpncpy
	0x4303bfe5		stpncpy
.text.strcspn	0x4303c04c	0x6a	C:\Users\nikol\projects\quectel\development\customer\threadx\tools\LLVM\4.0.3\armv7m-none-eabi\libc\lib/libc.a(strcspn.o)	#SHT_PROGBITS,SHF_ALLOC|SHF_EXECINSTR,2
	0x4303c04c		$t
	0x4303c04d		strcspn
.text.strncasecmp	0x4303c0b6	0x48	C:\Users\nikol\projects\quectel\development\customer\threadx\tools\LLVM\4.0.3\armv7m-none-eabi\libc\lib/libc.a(strncasecmp.o)	#SHT_PROGBITS,SHF_ALLOC|SHF_EXECINSTR,2
	0x4303c0b6		$t
	0x4303c0b7		strncasecmp
.text.__strncasecmp_l	0x4303c0fe	0x4	C:\Users\nikol\projects\quectel\development\customer\threadx\tools\LLVM\4.0.3\armv7m-none-eabi\libc\lib/libc.a(strncasecmp.o)	#SHT_PROGBITS,SHF_ALLOC|SHF_EXECINSTR,2
	0x4303c0fe		$t
	0x4303c0ff		__strncasecmp_l
	0x4303c0ff		strncasecmp_l
.text.strspn	0x4303c102	0x74	C:\Users\nikol\projects\quectel\development\customer\threadx\tools\LLVM\4.0.3\armv7m-none-eabi\libc\lib/libc.a(strspn.o)	#SHT_PROGBITS,SHF_ALLOC|SHF_EXECINSTR,2
	0x4303c102		$t
	0x4303c103		strspn
.text.sccp	0x4303c176	0x4	C:\Users\nikol\projects\quectel\development\customer\threadx\tools\LLVM\4.0.3\armv7m-none-eabi\libc\lib/libc.a(__syscall_cp.o)	#SHT_PROGBITS,SHF_ALLOC|SHF_EXECINSTR,2
	0x4303c176		$t
	0x4303c177		sccp
	0x4303c177		__syscall_cp_c
.text.__syscall_cp	0x4303c17a	0x4	C:\Users\nikol\projects\quectel\development\customer\threadx\tools\LLVM\4.0.3\armv7m-none-eabi\libc\lib/libc.a(__syscall_cp.o)	#SHT_PROGBITS,SHF_ALLOC|SHF_EXECINSTR,2
	0x4303c17a		$t
	0x4303c17b		__syscall_cp
PADDING_ALIGNMENT	0x4303c17e	0x2	0x0
.text.__map_file	0x4303c180	0x58	C:\Users\nikol\projects\quectel\development\customer\threadx\tools\LLVM\4.0.3\armv7m-none-eabi\libc\lib/libc.a(__map_file.o)	#SHT_PROGBITS,SHF_ALLOC|SHF_EXECINSTR,4
	0x4303c180		$t
	0x4303c181		__map_file
	0x4303c1d4		$d
.text.__secs_to_tm	0x4303c1d8	0x1d0	C:\Users\nikol\projects\quectel\development\customer\threadx\tools\LLVM\4.0.3\armv7m-none-eabi\libc\lib/libc.a(__secs_to_tm.o)	#SHT_PROGBITS,SHF_ALLOC|SHF_EXECINSTR,4
	0x4303c1d8		$t
	0x4303c1d9		__secs_to_tm
	0x4303c374		$d
.text.__tm_to_secs	0x4303c3a8	0x7c	C:\Users\nikol\projects\quectel\development\customer\threadx\tools\LLVM\4.0.3\armv7m-none-eabi\libc\lib/libc.a(__tm_to_secs.o)	#SHT_PROGBITS,SHF_ALLOC|SHF_EXECINSTR,4
	0x4303c3a8		$t
	0x4303c3a9		__tm_to_secs
	0x4303c420		$d
.text.__secs_to_zone	0x4303c424	0x340	C:\Users\nikol\projects\quectel\development\customer\threadx\tools\LLVM\4.0.3\armv7m-none-eabi\libc\lib/libc.a(__tz.o)	#SHT_PROGBITS,SHF_ALLOC|SHF_EXECINSTR,4
	0x4303c424		$t
	0x4303c425		__secs_to_zone
	0x4303c75c		$d
.text.zi_read32	0x4303c764	0x16	C:\Users\nikol\projects\quectel\development\customer\threadx\tools\LLVM\4.0.3\armv7m-none-eabi\libc\lib/libc.a(__tz.o)	#SHT_PROGBITS,SHF_ALLOC|SHF_EXECINSTR,2
	0x4303c764		$t
	0x4303c765		zi_read32
PADDING_ALIGNMENT	0x4303c77a	0x2	0x0
.text.rule_to_secs	0x4303c77c	0xc0	C:\Users\nikol\projects\quectel\development\customer\threadx\tools\LLVM\4.0.3\armv7m-none-eabi\libc\lib/libc.a(__tz.o)	#SHT_PROGBITS,SHF_ALLOC|SHF_EXECINSTR,4
	0x4303c77c		$t
	0x4303c77d		rule_to_secs
	0x4303c830		$d
.text.__tzset	0x4303c83c	0x20	C:\Users\nikol\projects\quectel\development\customer\threadx\tools\LLVM\4.0.3\armv7m-none-eabi\libc\lib/libc.a(__tz.o)	#SHT_PROGBITS,SHF_ALLOC|SHF_EXECINSTR,4
	0x4303c83c		$t
	0x4303c83d		__tzset
	0x4303c83d		tzset
	0x4303c858		$d
.text.__tm_to_tzname	0x4303c85c	0x58	C:\Users\nikol\projects\quectel\development\customer\threadx\tools\LLVM\4.0.3\armv7m-none-eabi\libc\lib/libc.a(__tz.o)	#SHT_PROGBITS,SHF_ALLOC|SHF_EXECINSTR,4
	0x4303c85c		$t
	0x4303c85d		__tm_to_tzname
	0x4303c8a8		$d
.text.do_tzset	0x4303c8b4	0x2f4	C:\Users\nikol\projects\quectel\development\customer\threadx\tools\LLVM\4.0.3\armv7m-none-eabi\libc\lib/libc.a(__tz.o)	#SHT_PROGBITS,SHF_ALLOC|SHF_EXECINSTR,4
	0x4303c8b4		$t
	0x4303c8b5		do_tzset
	0x4303cb88		$d
.text.getname	0x4303cba8	0x54	C:\Users\nikol\projects\quectel\development\customer\threadx\tools\LLVM\4.0.3\armv7m-none-eabi\libc\lib/libc.a(__tz.o)	#SHT_PROGBITS,SHF_ALLOC|SHF_EXECINSTR,2
	0x4303cba8		$t
	0x4303cba9		getname
.text.getoff	0x4303cbfc	0x60	C:\Users\nikol\projects\quectel\development\customer\threadx\tools\LLVM\4.0.3\armv7m-none-eabi\libc\lib/libc.a(__tz.o)	#SHT_PROGBITS,SHF_ALLOC|SHF_EXECINSTR,2
	0x4303cbfc		$t
	0x4303cbfd		getoff
.text.getrule	0x4303cc5c	0x6c	C:\Users\nikol\projects\quectel\development\customer\threadx\tools\LLVM\4.0.3\armv7m-none-eabi\libc\lib/libc.a(__tz.o)	#SHT_PROGBITS,SHF_ALLOC|SHF_EXECINSTR,2
	0x4303cc5c		$t
	0x4303cc5d		getrule
.text.getint	0x4303ccc8	0x1e	C:\Users\nikol\projects\quectel\development\customer\threadx\tools\LLVM\4.0.3\armv7m-none-eabi\libc\lib/libc.a(__tz.o)	#SHT_PROGBITS,SHF_ALLOC|SHF_EXECINSTR,2
	0x4303ccc8		$t
	0x4303ccc9		getint
PADDING_ALIGNMENT	0x4303cce6	0x2	0x0
.text.__year_to_secs	0x4303cce8	0x108	C:\Users\nikol\projects\quectel\development\customer\threadx\tools\LLVM\4.0.3\armv7m-none-eabi\libc\lib/libc.a(__year_to_secs.o)	#SHT_PROGBITS,SHF_ALLOC|SHF_EXECINSTR,4
	0x4303cce8		$t
	0x4303cce9		__year_to_secs
	0x4303cde0		$d
.text.tolower	0x4303cdf0	0xe	C:\Users\nikol\projects\quectel\development\customer\threadx\tools\LLVM\4.0.3\armv7m-none-eabi\libc\lib/libc.a(tolower.o)	#SHT_PROGBITS,SHF_ALLOC|SHF_EXECINSTR,2
	0x4303cdf0		$t
	0x4303cdf1		tolower
.text.__tolower_l	0x4303cdfe	0x4	C:\Users\nikol\projects\quectel\development\customer\threadx\tools\LLVM\4.0.3\armv7m-none-eabi\libc\lib/libc.a(tolower.o)	#SHT_PROGBITS,SHF_ALLOC|SHF_EXECINSTR,2
	0x4303cdfe		$t
	0x4303cdff		__tolower_l
	0x4303cdff		tolower_l
PADDING_ALIGNMENT	0x4303ce02	0x2	0x0
.text.getenv	0x4303ce04	0x5c	C:\Users\nikol\projects\quectel\development\customer\threadx\tools\LLVM\4.0.3\armv7m-none-eabi\libc\lib/libc.a(getenv.o)	#SHT_PROGBITS,SHF_ALLOC|SHF_EXECINSTR,4
	0x4303ce04		$t
	0x4303ce05		getenv
	0x4303ce5c		$d
.text	0x4303ce60	0x18	C:\Users\nikol\projects\quectel\development\customer\threadx\tools\LLVM\4.0.3\armv7m-none-eabi\libc\lib/libc.a(syscall.o)	#SHT_PROGBITS,SHF_ALLOC|SHF_EXECINSTR,2
	0x4303ce60		$t
	0x4303ce61		__syscall
.text.__floatscan	0x4303ce78	0xe68	C:\Users\nikol\projects\quectel\development\customer\threadx\tools\LLVM\4.0.3\armv7m-none-eabi\libc\lib/libc.a(floatscan.o)	#SHT_PROGBITS,SHF_ALLOC|SHF_EXECINSTR,4
	0x4303ce78		$t
	0x4303ce79		__floatscan
	0x4303dc20		$d
	0x4303dc24		$t
	0x4303dc9c		$d
.text.scanexp	0x4303dce0	0x130	C:\Users\nikol\projects\quectel\development\customer\threadx\tools\LLVM\4.0.3\armv7m-none-eabi\libc\lib/libc.a(floatscan.o)	#SHT_PROGBITS,SHF_ALLOC|SHF_EXECINSTR,4
	0x4303dce0		$t
	0x4303dce1		scanexp
	0x4303de04		$d
.text.__intscan	0x4303de10	0x418	C:\Users\nikol\projects\quectel\development\customer\threadx\tools\LLVM\4.0.3\armv7m-none-eabi\libc\lib/libc.a(intscan.o)	#SHT_PROGBITS,SHF_ALLOC|SHF_EXECINSTR,4
	0x4303de10		$t
	0x4303de11		__intscan
	0x4303e214		$d
.text.__shlim	0x4303e228	0x2a	C:\Users\nikol\projects\quectel\development\customer\threadx\tools\LLVM\4.0.3\armv7m-none-eabi\libc\lib/libc.a(shgetc.o)	#SHT_PROGBITS,SHF_ALLOC|SHF_EXECINSTR,2
	0x4303e228		$t
	0x4303e229		__shlim
.text.__shgetc	0x4303e252	0x8c	C:\Users\nikol\projects\quectel\development\customer\threadx\tools\LLVM\4.0.3\armv7m-none-eabi\libc\lib/libc.a(shgetc.o)	#SHT_PROGBITS,SHF_ALLOC|SHF_EXECINSTR,2
	0x4303e252		$t
	0x4303e253		__shgetc
PADDING_ALIGNMENT	0x4303e2de	0x2	0x0
.text.__mo_lookup	0x4303e2e0	0xd8	C:\Users\nikol\projects\quectel\development\customer\threadx\tools\LLVM\4.0.3\armv7m-none-eabi\libc\lib/libc.a(__mo_lookup.o)	#SHT_PROGBITS,SHF_ALLOC|SHF_EXECINSTR,4
	0x4303e2e0		$t
	0x4303e2e1		__mo_lookup
	0x4303e3b4		$d
.text.copysignl	0x4303e3b8	0x4	C:\Users\nikol\projects\quectel\development\customer\threadx\tools\LLVM\4.0.3\armv7m-none-eabi\libc\lib/libc.a(copysignl.o)	#SHT_PROGBITS,SHF_ALLOC|SHF_EXECINSTR,2
	0x4303e3b8		$t
	0x4303e3b9		copysignl
.text.fmodl	0x4303e3bc	0x4	C:\Users\nikol\projects\quectel\development\customer\threadx\tools\LLVM\4.0.3\armv7m-none-eabi\libc\lib/libc.a(fmodl.o)	#SHT_PROGBITS,SHF_ALLOC|SHF_EXECINSTR,2
	0x4303e3bc		$t
	0x4303e3bd		fmodl
.text.scalbnl	0x4303e3c0	0x4	C:\Users\nikol\projects\quectel\development\customer\threadx\tools\LLVM\4.0.3\armv7m-none-eabi\libc\lib/libc.a(scalbnl.o)	#SHT_PROGBITS,SHF_ALLOC|SHF_EXECINSTR,2
	0x4303e3c0		$t
	0x4303e3c1		scalbnl
.text.dummy	0x4303e3c4	0x2	C:\Users\nikol\projects\quectel\development\customer\threadx\tools\LLVM\4.0.3\armv7m-none-eabi\libc\lib/libc.a(mmap.o)	#SHT_PROGBITS,SHF_ALLOC|SHF_EXECINSTR,2
	0x4303e3c4		$t
	0x4303e3c5		dummy
PADDING_ALIGNMENT	0x4303e3c6	0x2	0x0
.text.__mmap	0x4303e3c8	0x60	C:\Users\nikol\projects\quectel\development\customer\threadx\tools\LLVM\4.0.3\armv7m-none-eabi\libc\lib/libc.a(mmap.o)	#SHT_PROGBITS,SHF_ALLOC|SHF_EXECINSTR,4
	0x4303e3c8		$t
	0x4303e3c9		__mmap
	0x4303e3c9		mmap
	0x4303e3c9		mmap64
	0x4303e424		$d
.text.mbrtowc	0x4303e428	0xcc	C:\Users\nikol\projects\quectel\development\customer\threadx\tools\LLVM\4.0.3\armv7m-none-eabi\libc\lib/libc.a(mbrtowc.o)	#SHT_PROGBITS,SHF_ALLOC|SHF_EXECINSTR,4
	0x4303e428		$t
	0x4303e429		mbrtowc
	0x4303e4ec		$d
.text.mbsinit	0x4303e4f4	0x12	C:\Users\nikol\projects\quectel\development\customer\threadx\tools\LLVM\4.0.3\armv7m-none-eabi\libc\lib/libc.a(mbsinit.o)	#SHT_PROGBITS,SHF_ALLOC|SHF_EXECINSTR,2
	0x4303e4f4		$t
	0x4303e4f5		mbsinit
.text.wcrtomb	0x4303e506	0xb0	C:\Users\nikol\projects\quectel\development\customer\threadx\tools\LLVM\4.0.3\armv7m-none-eabi\libc\lib/libc.a(wcrtomb.o)	#SHT_PROGBITS,SHF_ALLOC|SHF_EXECINSTR,2
	0x4303e506		$t
	0x4303e507		wcrtomb
PADDING_ALIGNMENT	0x4303e5b6	0x2	0x0
.text.__stdio_exit	0x4303e5b8	0x30	C:\Users\nikol\projects\quectel\development\customer\threadx\tools\LLVM\4.0.3\armv7m-none-eabi\libc\lib/libc.a(__stdio_exit.o)	#SHT_PROGBITS,SHF_ALLOC|SHF_EXECINSTR,4
	0x4303e5b8		$t
	0x4303e5b9		__stdio_exit
	0x4303e5b9		__stdio_exit_needed
	0x4303e5e0		$d
.text.close_file	0x4303e5e8	0x3c	C:\Users\nikol\projects\quectel\development\customer\threadx\tools\LLVM\4.0.3\armv7m-none-eabi\libc\lib/libc.a(__stdio_exit.o)	#SHT_PROGBITS,SHF_ALLOC|SHF_EXECINSTR,2
	0x4303e5e8		$t
	0x4303e5e9		close_file
.text.__uflow	0x4303e624	0x2a	C:\Users\nikol\projects\quectel\development\customer\threadx\tools\LLVM\4.0.3\armv7m-none-eabi\libc\lib/libc.a(__uflow.o)	#SHT_PROGBITS,SHF_ALLOC|SHF_EXECINSTR,2
	0x4303e624		$t
	0x4303e625		__uflow
PADDING_ALIGNMENT	0x4303e64e	0x2	0x0
.text.__ofl_lock	0x4303e650	0x8	C:\Users\nikol\projects\quectel\development\customer\threadx\tools\LLVM\4.0.3\armv7m-none-eabi\libc\lib/libc.a(ofl.o)	#SHT_PROGBITS,SHF_ALLOC|SHF_EXECINSTR,4
	0x4303e650		$t
	0x4303e651		__ofl_lock
	0x4303e654		$d
.text.__ofl_unlock	0x4303e658	0x2	C:\Users\nikol\projects\quectel\development\customer\threadx\tools\LLVM\4.0.3\armv7m-none-eabi\libc\lib/libc.a(ofl.o)	#SHT_PROGBITS,SHF_ALLOC|SHF_EXECINSTR,2
	0x4303e658		$t
	0x4303e659		__ofl_unlock
PADDING_ALIGNMENT	0x4303e65a	0x2	0x0
.text.__month_to_secs	0x4303e65c	0x20	C:\Users\nikol\projects\quectel\development\customer\threadx\tools\LLVM\4.0.3\armv7m-none-eabi\libc\lib/libc.a(__month_to_secs.o)	#SHT_PROGBITS,SHF_ALLOC|SHF_EXECINSTR,4
	0x4303e65c		$t
	0x4303e65d		__month_to_secs
	0x4303e674		$d
.text.copysign	0x4303e67c	0x8	C:\Users\nikol\projects\quectel\development\customer\threadx\tools\LLVM\4.0.3\armv7m-none-eabi\libc\lib/libc.a(copysign.o)	#SHT_PROGBITS,SHF_ALLOC|SHF_EXECINSTR,2
	0x4303e67c		$t
	0x4303e67d		copysign
.text.__toread	0x4303e684	0x50	C:\Users\nikol\projects\quectel\development\customer\threadx\tools\LLVM\4.0.3\armv7m-none-eabi\libc\lib/libc.a(__toread.o)	#SHT_PROGBITS,SHF_ALLOC|SHF_EXECINSTR,2
	0x4303e684		$t
	0x4303e685		__toread
.text.__toread_needs_stdio_exit	0x4303e6d4	0x4	C:\Users\nikol\projects\quectel\development\customer\threadx\tools\LLVM\4.0.3\armv7m-none-eabi\libc\lib/libc.a(__toread.o)	#SHT_PROGBITS,SHF_ALLOC|SHF_EXECINSTR,2
	0x4303e6d4		$t
	0x4303e6d5		__toread_needs_stdio_exit
.text	0x4303e6d8	0x62	C:\Users\nikol\projects\quectel\development\customer\threadx\tools\LLVM\4.0.3\lib\clang\4.0.3\lib\baremetal/libclang_rt.builtins-armv7m.a(aeabi_dcmp.S.obj)	#SHT_PROGBITS,SHF_ALLOC|SHF_EXECINSTR,4
	0x4303e6d8		$t.0
	0x4303e6d9		__aeabi_dcmpeq
	0x4303e6ed		__aeabi_dcmplt
	0x4303e701		__aeabi_dcmple
	0x4303e715		__aeabi_dcmpge
	0x4303e729		__aeabi_dcmpgt
PADDING_ALIGNMENT	0x4303e73a	0x2	0x0
.text	0x4303e73c	0x14	C:\Users\nikol\projects\quectel\development\customer\threadx\tools\LLVM\4.0.3\lib\clang\4.0.3\lib\baremetal/libclang_rt.builtins-armv7m.a(aeabi_ldivmod.S.obj)	#SHT_PROGBITS,SHF_ALLOC|SHF_EXECINSTR,4
	0x4303e73c		$t.0
	0x4303e73d		__aeabi_ldivmod
.text	0x4303e750	0x14	C:\Users\nikol\projects\quectel\development\customer\threadx\tools\LLVM\4.0.3\lib\clang\4.0.3\lib\baremetal/libclang_rt.builtins-armv7m.a(aeabi_uldivmod.S.obj)	#SHT_PROGBITS,SHF_ALLOC|SHF_EXECINSTR,4
	0x4303e750		$t.0
	0x4303e751		__aeabi_uldivmod
.text.__adddf3	0x4303e764	0x340	C:\Users\nikol\projects\quectel\development\customer\threadx\tools\LLVM\4.0.3\lib\clang\4.0.3\lib\baremetal/libclang_rt.builtins-armv7m.a(adddf3.c.obj)	#SHT_PROGBITS,SHF_ALLOC|SHF_EXECINSTR,4
	0x4303e764		$t.0
	0x4303e765		__adddf3
	0x4303e765		__aeabi_dadd
	0x4303ea94		$d.1
.text.fromRep	0x4303eaa4	0x2	C:\Users\nikol\projects\quectel\development\customer\threadx\tools\LLVM\4.0.3\lib\clang\4.0.3\lib\baremetal/libclang_rt.builtins-armv7m.a(adddf3.c.obj)	#SHT_PROGBITS,SHF_ALLOC|SHF_EXECINSTR,2
	0x4303eaa4		$t.2
	0x4303eaa5		fromRep
.text.normalize	0x4303eaa6	0x44	C:\Users\nikol\projects\quectel\development\customer\threadx\tools\LLVM\4.0.3\lib\clang\4.0.3\lib\baremetal/libclang_rt.builtins-armv7m.a(adddf3.c.obj)	#SHT_PROGBITS,SHF_ALLOC|SHF_EXECINSTR,2
	0x4303eaa6		$t.3
	0x4303eaa7		normalize
.text.rep_clz	0x4303eaea	0x10	C:\Users\nikol\projects\quectel\development\customer\threadx\tools\LLVM\4.0.3\lib\clang\4.0.3\lib\baremetal/libclang_rt.builtins-armv7m.a(adddf3.c.obj)	#SHT_PROGBITS,SHF_ALLOC|SHF_EXECINSTR,2
	0x4303eaea		$t.4
	0x4303eaeb		rep_clz
.text.__ledf2	0x4303eafc	0x74	C:\Users\nikol\projects\quectel\development\customer\threadx\tools\LLVM\4.0.3\lib\clang\4.0.3\lib\baremetal/libclang_rt.builtins-armv7m.a(comparedf2.c.obj)	#SHT_PROGBITS,SHF_ALLOC|SHF_EXECINSTR,4
	0x4303eafc		$t.0
	0x4303eafd		__cmpdf2
	0x4303eafd		__ledf2
	0x4303eb6c		$d.1
.text.__gedf2	0x4303eb70	0x7c	C:\Users\nikol\projects\quectel\development\customer\threadx\tools\LLVM\4.0.3\lib\clang\4.0.3\lib\baremetal/libclang_rt.builtins-armv7m.a(comparedf2.c.obj)	#SHT_PROGBITS,SHF_ALLOC|SHF_EXECINSTR,4
	0x4303eb70		$t.2
	0x4303eb71		__gedf2
	0x4303ebe8		$d.3
.text.__unorddf2	0x4303ebec	0x44	C:\Users\nikol\projects\quectel\development\customer\threadx\tools\LLVM\4.0.3\lib\clang\4.0.3\lib\baremetal/libclang_rt.builtins-armv7m.a(comparedf2.c.obj)	#SHT_PROGBITS,SHF_ALLOC|SHF_EXECINSTR,4
	0x4303ebec		$t.4
	0x4303ebed		__aeabi_dcmpun
	0x4303ebed		__unorddf2
	0x4303ec28		$d.5
.text.__eqdf2	0x4303ec30	0x8	C:\Users\nikol\projects\quectel\development\customer\threadx\tools\LLVM\4.0.3\lib\clang\4.0.3\lib\baremetal/libclang_rt.builtins-armv7m.a(comparedf2.c.obj)	#SHT_PROGBITS,SHF_ALLOC|SHF_EXECINSTR,2
	0x4303ec30		$t.6
	0x4303ec31		__eqdf2
.text.__ltdf2	0x4303ec38	0x8	C:\Users\nikol\projects\quectel\development\customer\threadx\tools\LLVM\4.0.3\lib\clang\4.0.3\lib\baremetal/libclang_rt.builtins-armv7m.a(comparedf2.c.obj)	#SHT_PROGBITS,SHF_ALLOC|SHF_EXECINSTR,2
	0x4303ec38		$t.7
	0x4303ec39		__ltdf2
.text.__nedf2	0x4303ec40	0x8	C:\Users\nikol\projects\quectel\development\customer\threadx\tools\LLVM\4.0.3\lib\clang\4.0.3\lib\baremetal/libclang_rt.builtins-armv7m.a(comparedf2.c.obj)	#SHT_PROGBITS,SHF_ALLOC|SHF_EXECINSTR,2
	0x4303ec40		$t.8
	0x4303ec41		__nedf2
.text.__gtdf2	0x4303ec48	0x8	C:\Users\nikol\projects\quectel\development\customer\threadx\tools\LLVM\4.0.3\lib\clang\4.0.3\lib\baremetal/libclang_rt.builtins-armv7m.a(comparedf2.c.obj)	#SHT_PROGBITS,SHF_ALLOC|SHF_EXECINSTR,2
	0x4303ec48		$t.9
	0x4303ec49		__gtdf2
.text.__divdf3	0x4303ec50	0x3b8	C:\Users\nikol\projects\quectel\development\customer\threadx\tools\LLVM\4.0.3\lib\clang\4.0.3\lib\baremetal/libclang_rt.builtins-armv7m.a(divdf3.c.obj)	#SHT_PROGBITS,SHF_ALLOC|SHF_EXECINSTR,4
	0x4303ec50		$t.0
	0x4303ec51		__aeabi_ddiv
	0x4303ec51		__divdf3
	0x4303eff0		$d.1
.text.fromRep	0x4303f008	0x2	C:\Users\nikol\projects\quectel\development\customer\threadx\tools\LLVM\4.0.3\lib\clang\4.0.3\lib\baremetal/libclang_rt.builtins-armv7m.a(divdf3.c.obj)	#SHT_PROGBITS,SHF_ALLOC|SHF_EXECINSTR,2
	0x4303f008		$t.2
	0x4303f009		fromRep
.text.normalize	0x4303f00a	0x46	C:\Users\nikol\projects\quectel\development\customer\threadx\tools\LLVM\4.0.3\lib\clang\4.0.3\lib\baremetal/libclang_rt.builtins-armv7m.a(divdf3.c.obj)	#SHT_PROGBITS,SHF_ALLOC|SHF_EXECINSTR,2
	0x4303f00a		$t.3
	0x4303f00b		normalize
.text.__divmoddi4	0x4303f050	0x2c	C:\Users\nikol\projects\quectel\development\customer\threadx\tools\LLVM\4.0.3\lib\clang\4.0.3\lib\baremetal/libclang_rt.builtins-armv7m.a(divmoddi4.c.obj)	#SHT_PROGBITS,SHF_ALLOC|SHF_EXECINSTR,2
	0x4303f050		$t.0
	0x4303f051		__divmoddi4
.text.__extendsfdf2	0x4303f07c	0x78	C:\Users\nikol\projects\quectel\development\customer\threadx\tools\LLVM\4.0.3\lib\clang\4.0.3\lib\baremetal/libclang_rt.builtins-armv7m.a(extendsfdf2.c.obj)	#SHT_PROGBITS,SHF_ALLOC|SHF_EXECINSTR,4
	0x4303f07c		$t.0
	0x4303f07d		__aeabi_f2d
	0x4303f07d		__extendsfdf2
	0x4303f0f0		$d.1
.text.__fixdfdi	0x4303f0f4	0x2e	C:\Users\nikol\projects\quectel\development\customer\threadx\tools\LLVM\4.0.3\lib\clang\4.0.3\lib\baremetal/libclang_rt.builtins-armv7m.a(fixdfdi.c.obj)	#SHT_PROGBITS,SHF_ALLOC|SHF_EXECINSTR,2
	0x4303f0f4		$t.0
	0x4303f0f5		__aeabi_d2lz
	0x4303f0f5		__fixdfdi
.text.__fixdfsi	0x4303f124	0x68	C:\Users\nikol\projects\quectel\development\customer\threadx\tools\LLVM\4.0.3\lib\clang\4.0.3\lib\baremetal/libclang_rt.builtins-armv7m.a(fixdfsi.c.obj)	#SHT_PROGBITS,SHF_ALLOC|SHF_EXECINSTR,4
	0x4303f124		$t.0
	0x4303f125		__aeabi_d2iz
	0x4303f125		__fixdfsi
	0x4303f184		$d.1
.text.__fixunsdfdi	0x4303f18c	0x58	C:\Users\nikol\projects\quectel\development\customer\threadx\tools\LLVM\4.0.3\lib\clang\4.0.3\lib\baremetal/libclang_rt.builtins-armv7m.a(fixunsdfdi.c.obj)	#SHT_PROGBITS,SHF_ALLOC|SHF_EXECINSTR,4
	0x4303f18c		$t.0
	0x4303f18d		__aeabi_d2ulz
	0x4303f18d		__fixunsdfdi
	0x4303f1dc		$d.1
.text.__fixunsdfsi	0x4303f1e4	0x58	C:\Users\nikol\projects\quectel\development\customer\threadx\tools\LLVM\4.0.3\lib\clang\4.0.3\lib\baremetal/libclang_rt.builtins-armv7m.a(fixunsdfsi.c.obj)	#SHT_PROGBITS,SHF_ALLOC|SHF_EXECINSTR,4
	0x4303f1e4		$t.0
	0x4303f1e5		__aeabi_d2uiz
	0x4303f1e5		__fixunsdfsi
	0x4303f238		$d.1
.text.__floatdidf	0x4303f23c	0x30	C:\Users\nikol\projects\quectel\development\customer\threadx\tools\LLVM\4.0.3\lib\clang\4.0.3\lib\baremetal/libclang_rt.builtins-armv7m.a(floatdidf.c.obj)	#SHT_PROGBITS,SHF_ALLOC|SHF_EXECINSTR,4
	0x4303f23c		$t.0
	0x4303f23d		__aeabi_l2d
	0x4303f23d		__floatdidf
	0x4303f260		$d.1
.text.__floatsidf	0x4303f26c	0x68	C:\Users\nikol\projects\quectel\development\customer\threadx\tools\LLVM\4.0.3\lib\clang\4.0.3\lib\baremetal/libclang_rt.builtins-armv7m.a(floatsidf.c.obj)	#SHT_PROGBITS,SHF_ALLOC|SHF_EXECINSTR,4
	0x4303f26c		$t.0
	0x4303f26d		__aeabi_i2d
	0x4303f26d		__floatsidf
	0x4303f2d0		$d.1
.text.__floatsisf	0x4303f2d4	0x62	C:\Users\nikol\projects\quectel\development\customer\threadx\tools\LLVM\4.0.3\lib\clang\4.0.3\lib\baremetal/libclang_rt.builtins-armv7m.a(floatsisf.c.obj)	#SHT_PROGBITS,SHF_ALLOC|SHF_EXECINSTR,2
	0x4303f2d4		$t.0
	0x4303f2d5		__aeabi_i2f
	0x4303f2d5		__floatsisf
.text.__floatunsidf	0x4303f338	0x46	C:\Users\nikol\projects\quectel\development\customer\threadx\tools\LLVM\4.0.3\lib\clang\4.0.3\lib\baremetal/libclang_rt.builtins-armv7m.a(floatunsidf.c.obj)	#SHT_PROGBITS,SHF_ALLOC|SHF_EXECINSTR,2
	0x4303f338		$t.0
	0x4303f339		__aeabi_ui2d
	0x4303f339		__floatunsidf
.text.__muldf3	0x4303f380	0x32c	C:\Users\nikol\projects\quectel\development\customer\threadx\tools\LLVM\4.0.3\lib\clang\4.0.3\lib\baremetal/libclang_rt.builtins-armv7m.a(muldf3.c.obj)	#SHT_PROGBITS,SHF_ALLOC|SHF_EXECINSTR,4
	0x4303f380		$t.0
	0x4303f381		__aeabi_dmul
	0x4303f381		__muldf3
	0x4303f698		$d.1
.text.normalize	0x4303f6ac	0x46	C:\Users\nikol\projects\quectel\development\customer\threadx\tools\LLVM\4.0.3\lib\clang\4.0.3\lib\baremetal/libclang_rt.builtins-armv7m.a(muldf3.c.obj)	#SHT_PROGBITS,SHF_ALLOC|SHF_EXECINSTR,2
	0x4303f6ac		$t.2
	0x4303f6ad		normalize
.text.__mulsf3	0x4303f6f4	0x13c	C:\Users\nikol\projects\quectel\development\customer\threadx\tools\LLVM\4.0.3\lib\clang\4.0.3\lib\baremetal/libclang_rt.builtins-armv7m.a(mulsf3.c.obj)	#SHT_PROGBITS,SHF_ALLOC|SHF_EXECINSTR,4
	0x4303f6f4		$t.0
	0x4303f6f5		__aeabi_fmul
	0x4303f6f5		__mulsf3
	0x4303f828		$d.1
.text.normalize	0x4303f830	0x14	C:\Users\nikol\projects\quectel\development\customer\threadx\tools\LLVM\4.0.3\lib\clang\4.0.3\lib\baremetal/libclang_rt.builtins-armv7m.a(mulsf3.c.obj)	#SHT_PROGBITS,SHF_ALLOC|SHF_EXECINSTR,2
	0x4303f830		$t.2
	0x4303f831		normalize
.text.__subdf3	0x4303f844	0xc	C:\Users\nikol\projects\quectel\development\customer\threadx\tools\LLVM\4.0.3\lib\clang\4.0.3\lib\baremetal/libclang_rt.builtins-armv7m.a(subdf3.c.obj)	#SHT_PROGBITS,SHF_ALLOC|SHF_EXECINSTR,2
	0x4303f844		$t.0
	0x4303f845		__aeabi_dsub
	0x4303f845		__subdf3
.text.__truncdfsf2	0x4303f850	0x130	C:\Users\nikol\projects\quectel\development\customer\threadx\tools\LLVM\4.0.3\lib\clang\4.0.3\lib\baremetal/libclang_rt.builtins-armv7m.a(truncdfsf2.c.obj)	#SHT_PROGBITS,SHF_ALLOC|SHF_EXECINSTR,4
	0x4303f850		$t.0
	0x4303f851		__aeabi_d2f
	0x4303f851		__truncdfsf2
	0x4303f960		$d.1
.text.__udivmoddi4	0x4303f980	0x1d4	C:\Users\nikol\projects\quectel\development\customer\threadx\tools\LLVM\4.0.3\lib\clang\4.0.3\lib\baremetal/libclang_rt.builtins-armv7m.a(udivmoddi4.c.obj)	#SHT_PROGBITS,SHF_ALLOC|SHF_EXECINSTR,2
	0x4303f980		$t.0
	0x4303f981		__udivmoddi4
.text.__divdi3	0x4303fb54	0x46	C:\Users\nikol\projects\quectel\development\customer\threadx\tools\LLVM\4.0.3\lib\clang\4.0.3\lib\baremetal/libclang_rt.builtins-armv7m.a(divdi3.c.obj)	#SHT_PROGBITS,SHF_ALLOC|SHF_EXECINSTR,2
	0x4303fb54		$t.0
	0x4303fb55		__divdi3
*(Init )
*(.rodata .rodata.* )
.rodata.str1.1	0x4303fb9a	0x2	./out/common/src/retarget.o	#SHT_PROGBITS,SHF_ALLOC|SHF_MERGE|SHF_STRINGS,1
	0x4303fb9a		.L.str
.rodata.str1.1	0x4303fb9c	0x8	./out/common/src/retarget.o	#SHT_PROGBITS,SHF_ALLOC|SHF_MERGE|SHF_STRINGS,1
	0x4303fb9c		.L.str.1
.rodata.str1.1	0x4303fba4	0xf	./out/common/src/retarget.o	#SHT_PROGBITS,SHF_ALLOC|SHF_MERGE|SHF_STRINGS,1
	0x4303fba4		.L.str.2
.rodata.str1.1	0x4303fbb3	0xb	./out/common/src/retarget.o	#SHT_PROGBITS,SHF_ALLOC|SHF_MERGE|SHF_STRINGS,1
	0x4303fbb3		.L.str.3
.rodata.str1.1	0x4303fbbe	0x10	./out/common/src/retarget.o	#SHT_PROGBITS,SHF_ALLOC|SHF_MERGE|SHF_STRINGS,1
	0x4303fbbe		.L.str.4
.rodata.str1.1	0x4303fbce	0x31	./out/common/src/malloc.o	#SHT_PROGBITS,SHF_ALLOC|SHF_MERGE|SHF_STRINGS,1
	0x4303fbce		.L.str
.rodata.str1.1	0x4303fbff	0x8	./out/common/src/malloc.o	#SHT_PROGBITS,SHF_ALLOC|SHF_MERGE|SHF_STRINGS,1
	0x4303fbff		.L.str.1
.rodata.str1.1	0x4303fc07	0x2f	./out/common/src/malloc.o	#SHT_PROGBITS,SHF_ALLOC|SHF_MERGE|SHF_STRINGS,1
	0x4303fc07		.L.str.2
.rodata.str1.1	0x4303fc36	0x29	./out/common/src/malloc.o	#SHT_PROGBITS,SHF_ALLOC|SHF_MERGE|SHF_STRINGS,1
	0x4303fc36		.L.str.3
.rodata.str1.1	0x4303fc5f	0x25	./out/common/src/malloc.o	#SHT_PROGBITS,SHF_ALLOC|SHF_MERGE|SHF_STRINGS,1
	0x4303fc5f		.L.str.4
.rodata.str1.1	0x4303fc84	0x7	./out/common/src/printf.o	#SHT_PROGBITS,SHF_ALLOC|SHF_MERGE|SHF_STRINGS,1
	0x4303fc84		.L.str
.rodata.str1.1	0x4303fc8b	0x4	./out/common/src/printf.o	#SHT_PROGBITS,SHF_ALLOC|SHF_MERGE|SHF_STRINGS,1
	0x4303fc8b		.L.str.1
.rodata.str1.1	0x4303fc8f	0x5	./out/common/src/printf.o	#SHT_PROGBITS,SHF_ALLOC|SHF_MERGE|SHF_STRINGS,1
	0x4303fc8f		.L.str.2
.rodata.str1.1	0x4303fc94	0x5	./out/common/src/printf.o	#SHT_PROGBITS,SHF_ALLOC|SHF_MERGE|SHF_STRINGS,1
	0x4303fc94		.L.str.3
.rodata.str1.1	0x4303fc99	0x4	./out/common/src/printf.o	#SHT_PROGBITS,SHF_ALLOC|SHF_MERGE|SHF_STRINGS,1
	0x4303fc99		.L.str.4
PADDING_ALIGNMENT	0x4303fc9d	0x3	0x0
.rodata	0x4303fca0	0x50	./out/common/src/printf.o	#SHT_PROGBITS,SHF_ALLOC,8
	0x4303fca0		_ftoa.pow10
.rodata.str1.1	0x4303fcf0	0x2	./out/common/src/file.o	#SHT_PROGBITS,SHF_ALLOC|SHF_MERGE|SHF_STRINGS,1
	0x4303fcf0		.L.str
.rodata.str1.1	0x4303fcf2	0x3	./out/common/src/file.o	#SHT_PROGBITS,SHF_ALLOC|SHF_MERGE|SHF_STRINGS,1
	0x4303fcf2		.L.str.1
.rodata.str1.1	0x4303fcf5	0x3	./out/common/src/file.o	#SHT_PROGBITS,SHF_ALLOC|SHF_MERGE|SHF_STRINGS,1
	0x4303fcf5		.L.str.2
.rodata.str1.1	0x4303fcf8	0x2	./out/common/src/file.o	#SHT_PROGBITS,SHF_ALLOC|SHF_MERGE|SHF_STRINGS,1
	0x4303fcf8		.L.str.3
.rodata.str1.1	0x4303fcfa	0x3	./out/common/src/file.o	#SHT_PROGBITS,SHF_ALLOC|SHF_MERGE|SHF_STRINGS,1
	0x4303fcfa		.L.str.4
.rodata.str1.1	0x4303fcfd	0x2	./out/common/src/file.o	#SHT_PROGBITS,SHF_ALLOC|SHF_MERGE|SHF_STRINGS,1
	0x4303fcfd		.L.str.5
.rodata.str1.1	0x4303fcff	0x3	./out/common/src/file.o	#SHT_PROGBITS,SHF_ALLOC|SHF_MERGE|SHF_STRINGS,1
	0x4303fcff		.L.str.6
.rodata.str1.1	0x4303fd02	0x5	./out/common/src/cli.o	#SHT_PROGBITS,SHF_ALLOC|SHF_MERGE|SHF_STRINGS,1
	0x4303fd02		.L.str
.rodata.str1.1	0x4303fd07	0x8	./out/common/src/cli.o	#SHT_PROGBITS,SHF_ALLOC|SHF_MERGE|SHF_STRINGS,1
	0x4303fd07		.L.str.1
.rodata.str1.1	0x4303fd0f	0x3	./out/common/src/cli.o	#SHT_PROGBITS,SHF_ALLOC|SHF_MERGE|SHF_STRINGS,1
	0x4303fd0f		.L.str.2
.rodata.str1.1	0x4303fd12	0x4	./out/common/src/cli.o	#SHT_PROGBITS,SHF_ALLOC|SHF_MERGE|SHF_STRINGS,1
	0x4303fd12		.L.str.3
.rodata.str1.1	0x4303fd16	0x3	./out/common/src/cli.o	#SHT_PROGBITS,SHF_ALLOC|SHF_MERGE|SHF_STRINGS,1
	0x4303fd16		.L.str.4
.rodata.str1.1	0x4303fd19	0x6	./out/common/src/cli.o	#SHT_PROGBITS,SHF_ALLOC|SHF_MERGE|SHF_STRINGS,1
	0x4303fd19		.L.str.5
.rodata.str1.1	0x4303fd1f	0x6	./out/common/src/cli.o	#SHT_PROGBITS,SHF_ALLOC|SHF_MERGE|SHF_STRINGS,1
	0x4303fd1f		.L.str.6
.rodata.str1.1	0x4303fd25	0x5	./out/common/src/cli.o	#SHT_PROGBITS,SHF_ALLOC|SHF_MERGE|SHF_STRINGS,1
	0x4303fd25		.L.str.7
.rodata.str1.1	0x4303fd2a	0x6	./out/common/src/cli.o	#SHT_PROGBITS,SHF_ALLOC|SHF_MERGE|SHF_STRINGS,1
	0x4303fd2a		.L.str.8
.rodata.str1.1	0x4303fd30	0xb	./out/common/src/cli.o	#SHT_PROGBITS,SHF_ALLOC|SHF_MERGE|SHF_STRINGS,1
	0x4303fd30		.L.str.9
.rodata.str1.1	0x4303fd3b	0x3	./out/common/src/cli.o	#SHT_PROGBITS,SHF_ALLOC|SHF_MERGE|SHF_STRINGS,1
	0x4303fd3b		.L.str.10
.rodata.str1.1	0x4303fd3e	0x2	./out/common/src/cli.o	#SHT_PROGBITS,SHF_ALLOC|SHF_MERGE|SHF_STRINGS,1
	0x4303fd3e		.L.str.11
.rodata.str1.1	0x4303fd40	0x5	./out/common/src/cli.o	#SHT_PROGBITS,SHF_ALLOC|SHF_MERGE|SHF_STRINGS,1
	0x4303fd40		.L.str.12
.rodata.str1.1	0x4303fd45	0x5	./out/common/src/cli.o	#SHT_PROGBITS,SHF_ALLOC|SHF_MERGE|SHF_STRINGS,1
	0x4303fd45		.L.str.13
.rodata.str1.1	0x4303fd4a	0x59	./out/common/src/cli.o	#SHT_PROGBITS,SHF_ALLOC|SHF_MERGE|SHF_STRINGS,1
	0x4303fd4a		.L.str.15
.rodata.str1.1	0x4303fda3	0x6a	./out/common/src/cli.o	#SHT_PROGBITS,SHF_ALLOC|SHF_MERGE|SHF_STRINGS,1
	0x4303fda3		.L.str.16
.rodata.str1.1	0x4303fe0d	0x2	./out/common/src/cli.o	#SHT_PROGBITS,SHF_ALLOC|SHF_MERGE|SHF_STRINGS,1
	0x4303fe0d		.L.str.17
.rodata.str1.1	0x4303fe0f	0x5	./out/common/src/cli.o	#SHT_PROGBITS,SHF_ALLOC|SHF_MERGE|SHF_STRINGS,1
	0x4303fe0f		.L.str.18
.rodata.str1.1	0x4303fe14	0x13	./out/common/src/cli.o	#SHT_PROGBITS,SHF_ALLOC|SHF_MERGE|SHF_STRINGS,1
	0x4303fe14		.L.str.19
.rodata.str1.1	0x4303fe27	0x3	./out/common/src/cli.o	#SHT_PROGBITS,SHF_ALLOC|SHF_MERGE|SHF_STRINGS,1
	0x4303fe27		.L.str.20
.rodata.str1.1	0x4303fe2a	0x14	./out/common/src/cli.o	#SHT_PROGBITS,SHF_ALLOC|SHF_MERGE|SHF_STRINGS,1
	0x4303fe2a		.L.str.21
.rodata.str1.1	0x4303fe3e	0x4	./out/common/src/cli.o	#SHT_PROGBITS,SHF_ALLOC|SHF_MERGE|SHF_STRINGS,1
	0x4303fe3e		.L.str.23
.rodata.str1.1	0x4303fe42	0x6b	./out/common/src/cli.o	#SHT_PROGBITS,SHF_ALLOC|SHF_MERGE|SHF_STRINGS,1
	0x4303fe42		.L.str.24
.rodata.str1.1	0x4303fead	0x5b	./out/common/src/cli.o	#SHT_PROGBITS,SHF_ALLOC|SHF_MERGE|SHF_STRINGS,1
	0x4303fead		.L.str.25
.rodata.str1.1	0x4303ff08	0x54	./out/common/src/cli.o	#SHT_PROGBITS,SHF_ALLOC|SHF_MERGE|SHF_STRINGS,1
	0x4303ff08		.L.str.27
.rodata.str1.1	0x4303ff5c	0x5	./out/common/src/cli.o	#SHT_PROGBITS,SHF_ALLOC|SHF_MERGE|SHF_STRINGS,1
	0x4303ff5c		.L.str.28
.rodata.str1.1	0x4303ff61	0xa3	./out/common/src/cli.o	#SHT_PROGBITS,SHF_ALLOC|SHF_MERGE|SHF_STRINGS,1
	0x4303ff61		.L.str.31
.rodata.str1.1	0x43040004	0x3b	./out/common/src/cli.o	#SHT_PROGBITS,SHF_ALLOC|SHF_MERGE|SHF_STRINGS,1
	0x43040004		.L.str.32
.rodata.str1.1	0x4304003f	0x413	./out/./src/noomiojs.o	#SHT_PROGBITS,SHF_ALLOC|SHF_MERGE|SHF_STRINGS,1
	0x4304003f		.L.str
.rodata.str1.1	0x43040452	0x8	./out/./src/noomiojs.o	#SHT_PROGBITS,SHF_ALLOC|SHF_MERGE|SHF_STRINGS,1
	0x43040452		.L.str.1
.rodata.str1.1	0x4304045a	0x5	./out/./src/noomiojs.o	#SHT_PROGBITS,SHF_ALLOC|SHF_MERGE|SHF_STRINGS,1
	0x4304045a		.L.str.2
.rodata.str1.1	0x4304045f	0x6	./out/./src/noomiojs.o	#SHT_PROGBITS,SHF_ALLOC|SHF_MERGE|SHF_STRINGS,1
	0x4304045f		.L.str.3
.rodata.str1.1	0x43040465	0xb	./out/./src/noomiojs.o	#SHT_PROGBITS,SHF_ALLOC|SHF_MERGE|SHF_STRINGS,1
	0x43040465		.L.str.4
.rodata.str1.1	0x43040470	0xc	./out/./src/noomiojs.o	#SHT_PROGBITS,SHF_ALLOC|SHF_MERGE|SHF_STRINGS,1
	0x43040470		.L.str.5
.rodata.str1.1	0x4304047c	0xe	./out/./src/noomiojs.o	#SHT_PROGBITS,SHF_ALLOC|SHF_MERGE|SHF_STRINGS,1
	0x4304047c		.L.str.6
.rodata.str1.1	0x4304048a	0x3	./out/./src/noomiojs.o	#SHT_PROGBITS,SHF_ALLOC|SHF_MERGE|SHF_STRINGS,1
	0x4304048a		.L.str.7
.rodata.str1.1	0x4304048d	0x4	./out/./src/noomiojs.o	#SHT_PROGBITS,SHF_ALLOC|SHF_MERGE|SHF_STRINGS,1
	0x4304048d		.L.str.8
.rodata.str1.1	0x43040491	0xa	./out/./src/noomiojs.o	#SHT_PROGBITS,SHF_ALLOC|SHF_MERGE|SHF_STRINGS,1
	0x43040491		.L.str.9
.rodata.str1.1	0x4304049b	0xb	./out/./src/noomiojs.o	#SHT_PROGBITS,SHF_ALLOC|SHF_MERGE|SHF_STRINGS,1
	0x4304049b		.L.str.10
.rodata.str1.1	0x430404a6	0xc	./out/./src/noomiojs.o	#SHT_PROGBITS,SHF_ALLOC|SHF_MERGE|SHF_STRINGS,1
	0x430404a6		.L.str.11
.rodata.str1.1	0x430404b2	0x14	./out/./src/noomiojs.o	#SHT_PROGBITS,SHF_ALLOC|SHF_MERGE|SHF_STRINGS,1
	0x430404b2		.L.str.12
.rodata.str1.1	0x430404c6	0xb	./out/./src/noomiojs.o	#SHT_PROGBITS,SHF_ALLOC|SHF_MERGE|SHF_STRINGS,1
	0x430404c6		.L.str.13
.rodata.str1.1	0x430404d1	0xc	./out/./src/noomiojs.o	#SHT_PROGBITS,SHF_ALLOC|SHF_MERGE|SHF_STRINGS,1
	0x430404d1		.L.str.14
.rodata.str1.1	0x430404dd	0xe	./out/./src/noomiojs.o	#SHT_PROGBITS,SHF_ALLOC|SHF_MERGE|SHF_STRINGS,1
	0x430404dd		.L.str.15
.rodata.str1.1	0x430404eb	0xb	./out/./src/noomiojs.o	#SHT_PROGBITS,SHF_ALLOC|SHF_MERGE|SHF_STRINGS,1
	0x430404eb		.L.str.16
.rodata.str1.1	0x430404f6	0x5	./out/./src/noomiojs.o	#SHT_PROGBITS,SHF_ALLOC|SHF_MERGE|SHF_STRINGS,1
	0x430404f6		.L.str.17
.rodata.str1.1	0x430404fb	0x6	./out/./src/noomiojs.o	#SHT_PROGBITS,SHF_ALLOC|SHF_MERGE|SHF_STRINGS,1
	0x430404fb		.L.str.18
.rodata.str1.1	0x43040501	0xd	./out/./src/noomiojs.o	#SHT_PROGBITS,SHF_ALLOC|SHF_MERGE|SHF_STRINGS,1
	0x43040501		.L.str.20
.rodata.str1.1	0x4304050e	0x36	./out/./src/noomiojs.o	#SHT_PROGBITS,SHF_ALLOC|SHF_MERGE|SHF_STRINGS,1
	0x4304050e		.L.str.21
.rodata.str1.1	0x43040544	0x9	./out/./src/noomiojs.o	#SHT_PROGBITS,SHF_ALLOC|SHF_MERGE|SHF_STRINGS,1
	0x43040544		.L.str.22
.rodata.str1.1	0x4304054d	0x21	./out/./src/noomiojs.o	#SHT_PROGBITS,SHF_ALLOC|SHF_MERGE|SHF_STRINGS,1
	0x4304054d		.L.str.23
.rodata.str1.1	0x4304056e	0xf	./out/./src/noomiojs.o	#SHT_PROGBITS,SHF_ALLOC|SHF_MERGE|SHF_STRINGS,1
	0x4304056e		.L.str.24
.rodata.str1.1	0x4304057d	0x17	./out/./src/noomiojs.o	#SHT_PROGBITS,SHF_ALLOC|SHF_MERGE|SHF_STRINGS,1
	0x4304057d		.L.str.25
.rodata.str1.1	0x43040594	0x3a	./out/./src/noomiojs.o	#SHT_PROGBITS,SHF_ALLOC|SHF_MERGE|SHF_STRINGS,1
	0x43040594		.L.str.26
.rodata.str1.1	0x430405ce	0x10	./out/./src/native/event_mngr.o	#SHT_PROGBITS,SHF_ALLOC|SHF_MERGE|SHF_STRINGS,1
	0x430405ce		.L.str
.rodata.str1.1	0x430405de	0xb	./out/./src/native/event_mngr.o	#SHT_PROGBITS,SHF_ALLOC|SHF_MERGE|SHF_STRINGS,1
	0x430405de		.L.str.1
.rodata.str1.1	0x430405e9	0x13	./out/./src/native/event_mngr.o	#SHT_PROGBITS,SHF_ALLOC|SHF_MERGE|SHF_STRINGS,1
	0x430405e9		.L.str.2
.rodata.str1.1	0x430405fc	0xb	./out/./src/native/event_mngr.o	#SHT_PROGBITS,SHF_ALLOC|SHF_MERGE|SHF_STRINGS,1
	0x430405fc		.L.str.3
.rodata.str1.1	0x43040607	0xb	./out/./src/native/event_mngr.o	#SHT_PROGBITS,SHF_ALLOC|SHF_MERGE|SHF_STRINGS,1
	0x43040607		.L.str.4
.rodata.str1.1	0x43040612	0xc	./out/./src/native/event_mngr.o	#SHT_PROGBITS,SHF_ALLOC|SHF_MERGE|SHF_STRINGS,1
	0x43040612		.L.str.5
.rodata.str1.1	0x4304061e	0x19	./out/./src/native/event_mngr.o	#SHT_PROGBITS,SHF_ALLOC|SHF_MERGE|SHF_STRINGS,1
	0x4304061e		.L.str.6
.rodata.str1.1	0x43040637	0x18	./out/./src/native/event_mngr.o	#SHT_PROGBITS,SHF_ALLOC|SHF_MERGE|SHF_STRINGS,1
	0x43040637		.L.str.7
.rodata.str1.1	0x4304064f	0x4	./out/./src/native/event_mngr.o	#SHT_PROGBITS,SHF_ALLOC|SHF_MERGE|SHF_STRINGS,1
	0x4304064f		.L.str.8
.rodata.str1.1	0x43040653	0xa	./out/./src/native/event_mngr.o	#SHT_PROGBITS,SHF_ALLOC|SHF_MERGE|SHF_STRINGS,1
	0x43040653		.L.str.10
.rodata.str1.1	0x4304065d	0x10	./out/./src/native/event_mngr.o	#SHT_PROGBITS,SHF_ALLOC|SHF_MERGE|SHF_STRINGS,1
	0x4304065d		.L.str.11
.rodata.str1.1	0x4304066d	0x10	./out/./src/native/event_mngr.o	#SHT_PROGBITS,SHF_ALLOC|SHF_MERGE|SHF_STRINGS,1
	0x4304066d		.L__func__.event_mngr_task
.rodata.str1.1	0x4304067d	0x9	./out/./src/native/timers.o	#SHT_PROGBITS,SHF_ALLOC|SHF_MERGE|SHF_STRINGS,1
	0x4304067d		.L.str
.rodata.str1.1	0x43040686	0x3	./out/./src/native/console.o	#SHT_PROGBITS,SHF_ALLOC|SHF_MERGE|SHF_STRINGS,1
	0x43040686		.L.str.1
.rodata.str1.1	0x43040689	0xd	./out/./src/native/gpio.o	#SHT_PROGBITS,SHF_ALLOC|SHF_MERGE|SHF_STRINGS,1
	0x43040689		.L.str
.rodata.str1.1	0x43040696	0xd	./out/./src/native/gpio.o	#SHT_PROGBITS,SHF_ALLOC|SHF_MERGE|SHF_STRINGS,1
	0x43040696		.L.str.1
.rodata.str1.1	0x430406a3	0xd	./out/./src/native/gpio.o	#SHT_PROGBITS,SHF_ALLOC|SHF_MERGE|SHF_STRINGS,1
	0x430406a3		.L.str.2
.rodata.str1.1	0x430406b0	0xd	./out/./src/native/gpio.o	#SHT_PROGBITS,SHF_ALLOC|SHF_MERGE|SHF_STRINGS,1
	0x430406b0		.L.str.3
.rodata.str1.1	0x430406bd	0xd	./out/./src/native/gpio.o	#SHT_PROGBITS,SHF_ALLOC|SHF_MERGE|SHF_STRINGS,1
	0x430406bd		.L.str.4
.rodata.str1.1	0x430406ca	0xd	./out/./src/native/gpio.o	#SHT_PROGBITS,SHF_ALLOC|SHF_MERGE|SHF_STRINGS,1
	0x430406ca		.L.str.5
.rodata.str1.1	0x430406d7	0xd	./out/./src/native/gpio.o	#SHT_PROGBITS,SHF_ALLOC|SHF_MERGE|SHF_STRINGS,1
	0x430406d7		.L.str.6
.rodata.str1.1	0x430406e4	0xd	./out/./src/native/gpio.o	#SHT_PROGBITS,SHF_ALLOC|SHF_MERGE|SHF_STRINGS,1
	0x430406e4		.L.str.7
.rodata.str1.1	0x430406f1	0xd	./out/./src/native/gpio.o	#SHT_PROGBITS,SHF_ALLOC|SHF_MERGE|SHF_STRINGS,1
	0x430406f1		.L.str.8
.rodata.str1.1	0x430406fe	0xd	./out/./src/native/gpio.o	#SHT_PROGBITS,SHF_ALLOC|SHF_MERGE|SHF_STRINGS,1
	0x430406fe		.L.str.9
.rodata.str1.1	0x4304070b	0xd	./out/./src/native/gpio.o	#SHT_PROGBITS,SHF_ALLOC|SHF_MERGE|SHF_STRINGS,1
	0x4304070b		.L.str.10
.rodata.str1.1	0x43040718	0xd	./out/./src/native/gpio.o	#SHT_PROGBITS,SHF_ALLOC|SHF_MERGE|SHF_STRINGS,1
	0x43040718		.L.str.11
.rodata.str1.1	0x43040725	0xd	./out/./src/native/gpio.o	#SHT_PROGBITS,SHF_ALLOC|SHF_MERGE|SHF_STRINGS,1
	0x43040725		.L.str.12
.rodata.str1.1	0x43040732	0xd	./out/./src/native/gpio.o	#SHT_PROGBITS,SHF_ALLOC|SHF_MERGE|SHF_STRINGS,1
	0x43040732		.L.str.13
.rodata.str1.1	0x4304073f	0x4	./out/./src/native/gpio.o	#SHT_PROGBITS,SHF_ALLOC|SHF_MERGE|SHF_STRINGS,1
	0x4304073f		.L.str.14
.rodata.str1.1	0x43040743	0x8	./out/./src/native/gpio.o	#SHT_PROGBITS,SHF_ALLOC|SHF_MERGE|SHF_STRINGS,1
	0x43040743		.L.str.15
.rodata.str1.1	0x4304074b	0x8	./out/./src/native/gpio.o	#SHT_PROGBITS,SHF_ALLOC|SHF_MERGE|SHF_STRINGS,1
	0x4304074b		.L.str.16
.rodata.str1.1	0x43040753	0x5	./out/./src/native/gpio.o	#SHT_PROGBITS,SHF_ALLOC|SHF_MERGE|SHF_STRINGS,1
	0x43040753		.L.str.17
.rodata.str1.1	0x43040758	0x8	./out/./src/native/gpio.o	#SHT_PROGBITS,SHF_ALLOC|SHF_MERGE|SHF_STRINGS,1
	0x43040758		.L.str.18
.rodata.str1.1	0x43040760	0x5	./out/./src/native/gpio.o	#SHT_PROGBITS,SHF_ALLOC|SHF_MERGE|SHF_STRINGS,1
	0x43040760		.L.str.19
.rodata.str1.1	0x43040765	0x6	./out/./src/native/gpio.o	#SHT_PROGBITS,SHF_ALLOC|SHF_MERGE|SHF_STRINGS,1
	0x43040765		.L.str.20
.rodata.str1.1	0x4304076b	0x3	./out/./src/native/gpio.o	#SHT_PROGBITS,SHF_ALLOC|SHF_MERGE|SHF_STRINGS,1
	0x4304076b		.L.str.21
.rodata.str1.1	0x4304076e	0x8	./out/./src/native/gpio.o	#SHT_PROGBITS,SHF_ALLOC|SHF_MERGE|SHF_STRINGS,1
	0x4304076e		.L.str.22
.rodata.str1.1	0x43040776	0x7	./out/./src/native/gpio.o	#SHT_PROGBITS,SHF_ALLOC|SHF_MERGE|SHF_STRINGS,1
	0x43040776		.L.str.23
.rodata.str1.1	0x4304077d	0x8	./out/./src/native/gpio.o	#SHT_PROGBITS,SHF_ALLOC|SHF_MERGE|SHF_STRINGS,1
	0x4304077d		.L.str.24
.rodata.str1.1	0x43040785	0xb	./out/./src/native/gpio.o	#SHT_PROGBITS,SHF_ALLOC|SHF_MERGE|SHF_STRINGS,1
	0x43040785		.L.str.25
.rodata.str1.1	0x43040790	0x12	./out/./src/native/gpio.o	#SHT_PROGBITS,SHF_ALLOC|SHF_MERGE|SHF_STRINGS,1
	0x43040790		.L.str.26
.rodata.str1.1	0x430407a2	0x1b	./out/./src/native/gpio.o	#SHT_PROGBITS,SHF_ALLOC|SHF_MERGE|SHF_STRINGS,1
	0x430407a2		.L.str.27
.rodata.str1.1	0x430407bd	0x5	./out/./src/native/gpio.o	#SHT_PROGBITS,SHF_ALLOC|SHF_MERGE|SHF_STRINGS,1
	0x430407bd		.L.str.28
.rodata.str1.1	0x430407c2	0x5	./out/./src/native/gpio.o	#SHT_PROGBITS,SHF_ALLOC|SHF_MERGE|SHF_STRINGS,1
	0x430407c2		.L.str.29
.rodata.str1.1	0x430407c7	0x5	./out/./src/native/gpio.o	#SHT_PROGBITS,SHF_ALLOC|SHF_MERGE|SHF_STRINGS,1
	0x430407c7		.L.str.30
.rodata.str1.1	0x430407cc	0x4	./out/./src/native/gpio.o	#SHT_PROGBITS,SHF_ALLOC|SHF_MERGE|SHF_STRINGS,1
	0x430407cc		.L.str.31
.rodata.str1.1	0x430407d0	0x5	./out/./src/native/gpio.o	#SHT_PROGBITS,SHF_ALLOC|SHF_MERGE|SHF_STRINGS,1
	0x430407d0		.L.str.32
.rodata.str1.1	0x430407d5	0x15	./out/./src/native/gpio.o	#SHT_PROGBITS,SHF_ALLOC|SHF_MERGE|SHF_STRINGS,1
	0x430407d5		.L.str.33
.rodata.str1.1	0x430407ea	0x15	./out/./src/native/gpio.o	#SHT_PROGBITS,SHF_ALLOC|SHF_MERGE|SHF_STRINGS,1
	0x430407ea		.L.str.34
.rodata.str1.1	0x430407ff	0x5	./out/./src/native/gpio.o	#SHT_PROGBITS,SHF_ALLOC|SHF_MERGE|SHF_STRINGS,1
	0x430407ff		.L.str.35
.rodata.str1.1	0x43040804	0x5	./out/./src/native/gpio.o	#SHT_PROGBITS,SHF_ALLOC|SHF_MERGE|SHF_STRINGS,1
	0x43040804		.L.str.36
.rodata.str1.1	0x43040809	0x5	./out/./src/native/gpio.o	#SHT_PROGBITS,SHF_ALLOC|SHF_MERGE|SHF_STRINGS,1
	0x43040809		.L.str.37
.rodata.str1.1	0x4304080e	0x5	./out/./src/native/gpio.o	#SHT_PROGBITS,SHF_ALLOC|SHF_MERGE|SHF_STRINGS,1
	0x4304080e		.L.str.38
.rodata.str1.1	0x43040813	0x6	./out/./src/native/gpio.o	#SHT_PROGBITS,SHF_ALLOC|SHF_MERGE|SHF_STRINGS,1
	0x43040813		.L.str.39
.rodata.str1.1	0x43040819	0x6	./out/./src/native/gpio.o	#SHT_PROGBITS,SHF_ALLOC|SHF_MERGE|SHF_STRINGS,1
	0x43040819		.L.str.40
.rodata.str1.1	0x4304081f	0x6	./out/./src/native/gpio.o	#SHT_PROGBITS,SHF_ALLOC|SHF_MERGE|SHF_STRINGS,1
	0x4304081f		.L.str.41
.rodata.str1.1	0x43040825	0x6	./out/./src/native/gpio.o	#SHT_PROGBITS,SHF_ALLOC|SHF_MERGE|SHF_STRINGS,1
	0x43040825		.L.str.42
.rodata.str1.1	0x4304082b	0x6	./out/./src/native/gpio.o	#SHT_PROGBITS,SHF_ALLOC|SHF_MERGE|SHF_STRINGS,1
	0x4304082b		.L.str.43
.rodata.str1.1	0x43040831	0x6	./out/./src/native/gpio.o	#SHT_PROGBITS,SHF_ALLOC|SHF_MERGE|SHF_STRINGS,1
	0x43040831		.L.str.44
.rodata.str1.1	0x43040837	0x6	./out/./src/native/gpio.o	#SHT_PROGBITS,SHF_ALLOC|SHF_MERGE|SHF_STRINGS,1
	0x43040837		.L.str.45
.rodata.str1.1	0x4304083d	0x6	./out/./src/native/gpio.o	#SHT_PROGBITS,SHF_ALLOC|SHF_MERGE|SHF_STRINGS,1
	0x4304083d		.L.str.46
.rodata.str1.1	0x43040843	0x6	./out/./src/native/gpio.o	#SHT_PROGBITS,SHF_ALLOC|SHF_MERGE|SHF_STRINGS,1
	0x43040843		.L.str.47
.rodata.str1.1	0x43040849	0x6	./out/./src/native/gpio.o	#SHT_PROGBITS,SHF_ALLOC|SHF_MERGE|SHF_STRINGS,1
	0x43040849		.L.str.48
.rodata.str1.1	0x4304084f	0x7	./out/./src/native/gpio.o	#SHT_PROGBITS,SHF_ALLOC|SHF_MERGE|SHF_STRINGS,1
	0x4304084f		.L.str.49
.rodata.str1.1	0x43040856	0x9	./out/./src/native/gpio.o	#SHT_PROGBITS,SHF_ALLOC|SHF_MERGE|SHF_STRINGS,1
	0x43040856		.L.str.50
.rodata.str1.1	0x4304085f	0x9	./out/./src/native/gpio.o	#SHT_PROGBITS,SHF_ALLOC|SHF_MERGE|SHF_STRINGS,1
	0x4304085f		.L.str.51
.rodata.str1.1	0x43040868	0xa	./out/./src/native/gpio.o	#SHT_PROGBITS,SHF_ALLOC|SHF_MERGE|SHF_STRINGS,1
	0x43040868		.L.str.52
PADDING_ALIGNMENT	0x43040872	0x6	0x0
.rodata	0x43040878	0x210	./out/./src/native/gpio.o	#SHT_PROGBITS,SHF_ALLOC,8
	0x43040878		gpio_map_tbl
	0x43040958		gpio_module_consts
.rodata.str1.1	0x43040a88	0xf	./out/./src/native/at.o	#SHT_PROGBITS,SHF_ALLOC|SHF_MERGE|SHF_STRINGS,1
	0x43040a88		.L.str
.rodata.str1.1	0x43040a97	0x10	./out/./src/native/at.o	#SHT_PROGBITS,SHF_ALLOC|SHF_MERGE|SHF_STRINGS,1
	0x43040a97		.L.str.1
.rodata.str1.1	0x43040aa7	0xf	./out/./src/native/at.o	#SHT_PROGBITS,SHF_ALLOC|SHF_MERGE|SHF_STRINGS,1
	0x43040aa7		.L.str.2
.rodata.str1.1	0x43040ab6	0x10	./out/./src/native/at.o	#SHT_PROGBITS,SHF_ALLOC|SHF_MERGE|SHF_STRINGS,1
	0x43040ab6		.L.str.3
.rodata.str1.1	0x43040ac6	0xf	./out/./src/native/at.o	#SHT_PROGBITS,SHF_ALLOC|SHF_MERGE|SHF_STRINGS,1
	0x43040ac6		.L.str.4
.rodata.str1.1	0x43040ad5	0x10	./out/./src/native/at.o	#SHT_PROGBITS,SHF_ALLOC|SHF_MERGE|SHF_STRINGS,1
	0x43040ad5		.L.str.5
.rodata.str1.1	0x43040ae5	0xf	./out/./src/native/at.o	#SHT_PROGBITS,SHF_ALLOC|SHF_MERGE|SHF_STRINGS,1
	0x43040ae5		.L.str.6
.rodata.str1.1	0x43040af4	0x10	./out/./src/native/at.o	#SHT_PROGBITS,SHF_ALLOC|SHF_MERGE|SHF_STRINGS,1
	0x43040af4		.L.str.7
.rodata.str1.1	0x43040b04	0x5	./out/./src/native/at.o	#SHT_PROGBITS,SHF_ALLOC|SHF_MERGE|SHF_STRINGS,1
	0x43040b04		.L.str.8
.rodata.str1.1	0x43040b09	0x6	./out/./src/native/at.o	#SHT_PROGBITS,SHF_ALLOC|SHF_MERGE|SHF_STRINGS,1
	0x43040b09		.L.str.10
.rodata.str1.1	0x43040b0f	0x5	./out/./src/native/at.o	#SHT_PROGBITS,SHF_ALLOC|SHF_MERGE|SHF_STRINGS,1
	0x43040b0f		.L.str.12
.rodata.str1.1	0x43040b14	0x5	./out/./src/native/at.o	#SHT_PROGBITS,SHF_ALLOC|SHF_MERGE|SHF_STRINGS,1
	0x43040b14		.L.str.13
.rodata.str1.1	0x43040b19	0x10	./out/./src/native/at.o	#SHT_PROGBITS,SHF_ALLOC|SHF_MERGE|SHF_STRINGS,1
	0x43040b19		.L.str.14
.rodata.str1.1	0x43040b29	0x1e	./out/./src/native/at.o	#SHT_PROGBITS,SHF_ALLOC|SHF_MERGE|SHF_STRINGS,1
	0x43040b29		.L.str.15
.rodata.str1.1	0x43040b47	0x5	./out/./src/native/at.o	#SHT_PROGBITS,SHF_ALLOC|SHF_MERGE|SHF_STRINGS,1
	0x43040b47		.L.str.16
.rodata.str1.1	0x43040b4c	0x10	./out/./src/native/at.o	#SHT_PROGBITS,SHF_ALLOC|SHF_MERGE|SHF_STRINGS,1
	0x43040b4c		.L.str.17
.rodata.str1.1	0x43040b5c	0x6	./out/./src/native/at.o	#SHT_PROGBITS,SHF_ALLOC|SHF_MERGE|SHF_STRINGS,1
	0x43040b5c		.L.str.18
.rodata.str1.1	0x43040b62	0x6	./out/./src/native/at.o	#SHT_PROGBITS,SHF_ALLOC|SHF_MERGE|SHF_STRINGS,1
	0x43040b62		.L.str.19
.rodata	0x43040b68	0x30	./out/./src/native/at.o	#SHT_PROGBITS,SHF_ALLOC,8
	0x43040b68		at_module_consts
.rodata.str1.1	0x43040b98	0xc	./out/./src/native/i2c.o	#SHT_PROGBITS,SHF_ALLOC|SHF_MERGE|SHF_STRINGS,1
	0x43040b98		.L.str
.rodata.str1.1	0x43040ba4	0xd	./out/./src/native/i2c.o	#SHT_PROGBITS,SHF_ALLOC|SHF_MERGE|SHF_STRINGS,1
	0x43040ba4		.L.str.1
.rodata.str1.1	0x43040bb1	0xc	./out/./src/native/i2c.o	#SHT_PROGBITS,SHF_ALLOC|SHF_MERGE|SHF_STRINGS,1
	0x43040bb1		.L.str.2
.rodata.str1.1	0x43040bbd	0xd	./out/./src/native/i2c.o	#SHT_PROGBITS,SHF_ALLOC|SHF_MERGE|SHF_STRINGS,1
	0x43040bbd		.L.str.3
.rodata.str1.1	0x43040bca	0xe	./out/./src/native/i2c.o	#SHT_PROGBITS,SHF_ALLOC|SHF_MERGE|SHF_STRINGS,1
	0x43040bca		.L.str.4
.rodata.str1.1	0x43040bd8	0xc	./out/./src/native/i2c.o	#SHT_PROGBITS,SHF_ALLOC|SHF_MERGE|SHF_STRINGS,1
	0x43040bd8		.L.str.5
.rodata.str1.1	0x43040be4	0xd	./out/./src/native/i2c.o	#SHT_PROGBITS,SHF_ALLOC|SHF_MERGE|SHF_STRINGS,1
	0x43040be4		.L.str.6
.rodata.str1.1	0x43040bf1	0xc	./out/./src/native/i2c.o	#SHT_PROGBITS,SHF_ALLOC|SHF_MERGE|SHF_STRINGS,1
	0x43040bf1		.L.str.7
.rodata.str1.1	0x43040bfd	0xd	./out/./src/native/i2c.o	#SHT_PROGBITS,SHF_ALLOC|SHF_MERGE|SHF_STRINGS,1
	0x43040bfd		.L.str.8
.rodata.str1.1	0x43040c0a	0xe	./out/./src/native/i2c.o	#SHT_PROGBITS,SHF_ALLOC|SHF_MERGE|SHF_STRINGS,1
	0x43040c0a		.L.str.9
.rodata.str1.1	0x43040c18	0x3	./out/./src/native/i2c.o	#SHT_PROGBITS,SHF_ALLOC|SHF_MERGE|SHF_STRINGS,1
	0x43040c18		.L.str.10
.rodata.str1.1	0x43040c1b	0x4	./out/./src/native/i2c.o	#SHT_PROGBITS,SHF_ALLOC|SHF_MERGE|SHF_STRINGS,1
	0x43040c1b		.L.str.11
.rodata.str1.1	0x43040c1f	0x6	./out/./src/native/i2c.o	#SHT_PROGBITS,SHF_ALLOC|SHF_MERGE|SHF_STRINGS,1
	0x43040c1f		.L.str.12
.rodata.str1.1	0x43040c25	0x9	./out/./src/native/i2c.o	#SHT_PROGBITS,SHF_ALLOC|SHF_MERGE|SHF_STRINGS,1
	0x43040c25		.L.str.13
.rodata.str1.1	0x43040c2e	0x5	./out/./src/native/i2c.o	#SHT_PROGBITS,SHF_ALLOC|SHF_MERGE|SHF_STRINGS,1
	0x43040c2e		.L.str.14
.rodata.str1.1	0x43040c33	0xa	./out/./src/native/i2c.o	#SHT_PROGBITS,SHF_ALLOC|SHF_MERGE|SHF_STRINGS,1
	0x43040c33		.L.str.15
.rodata.str1.1	0x43040c3d	0x6	./out/./src/native/i2c.o	#SHT_PROGBITS,SHF_ALLOC|SHF_MERGE|SHF_STRINGS,1
	0x43040c3d		.L.str.21
.rodata.str1.1	0x43040c43	0x11	./out/./src/native/i2c.o	#SHT_PROGBITS,SHF_ALLOC|SHF_MERGE|SHF_STRINGS,1
	0x43040c43		.L.str.22
.rodata.str1.1	0x43040c54	0x11	./out/./src/native/i2c.o	#SHT_PROGBITS,SHF_ALLOC|SHF_MERGE|SHF_STRINGS,1
	0x43040c54		.L.str.23
.rodata.str1.1	0x43040c65	0x5	./out/./src/native/i2c.o	#SHT_PROGBITS,SHF_ALLOC|SHF_MERGE|SHF_STRINGS,1
	0x43040c65		.L.str.24
.rodata.str1.1	0x43040c6a	0x5	./out/./src/native/i2c.o	#SHT_PROGBITS,SHF_ALLOC|SHF_MERGE|SHF_STRINGS,1
	0x43040c6a		.L.str.25
PADDING_ALIGNMENT	0x43040c6f	0x1	0x0
.rodata	0x43040c70	0x30	./out/./src/native/i2c.o	#SHT_PROGBITS,SHF_ALLOC,8
	0x43040c70		i2c_module_consts
.rodata.str1.1	0x43040ca0	0xe	./out/./src/duk_module_node.o	#SHT_PROGBITS,SHF_ALLOC|SHF_MERGE|SHF_STRINGS,1
	0x43040ca0		.L.str
.rodata.str1.1	0x43040cae	0xc	./out/./src/duk_module_node.o	#SHT_PROGBITS,SHF_ALLOC|SHF_MERGE|SHF_STRINGS,1
	0x43040cae		.L.str.2
.rodata.str1.1	0x43040cba	0x9	./out/./src/duk_module_node.o	#SHT_PROGBITS,SHF_ALLOC|SHF_MERGE|SHF_STRINGS,1
	0x43040cba		.L.str.4
.rodata.str1.1	0x43040cc3	0xc	./out/./src/duk_module_node.o	#SHT_PROGBITS,SHF_ALLOC|SHF_MERGE|SHF_STRINGS,1
	0x43040cc3		.L.str.5
.rodata.str1.1	0x43040ccf	0x8	./out/./src/duk_module_node.o	#SHT_PROGBITS,SHF_ALLOC|SHF_MERGE|SHF_STRINGS,1
	0x43040ccf		.L.str.6
.rodata.str1.1	0x43040cd7	0x1	./out/./src/duk_module_node.o	#SHT_PROGBITS,SHF_ALLOC|SHF_MERGE|SHF_STRINGS,1
	0x43040cd7		.L.str.7
.rodata.str1.1	0x43040cd8	0x8	./out/./src/duk_module_node.o	#SHT_PROGBITS,SHF_ALLOC|SHF_MERGE|SHF_STRINGS,1
	0x43040cd8		.L.str.10
.rodata.str1.1	0x43040ce0	0x7	./out/./src/duk_module_node.o	#SHT_PROGBITS,SHF_ALLOC|SHF_MERGE|SHF_STRINGS,1
	0x43040ce0		.L.str.11
.rodata.str1.1	0x43040ce7	0x38	./out/./src/duk_module_node.o	#SHT_PROGBITS,SHF_ALLOC|SHF_MERGE|SHF_STRINGS,1
	0x43040ce7		.L.str.12
.rodata.str1.1	0x43040d1f	0x3	./out/./src/duk_module_node.o	#SHT_PROGBITS,SHF_ALLOC|SHF_MERGE|SHF_STRINGS,1
	0x43040d1f		.L.str.13
.rodata.str1.1	0x43040d22	0x4	./out/./src/duk_module_node.o	#SHT_PROGBITS,SHF_ALLOC|SHF_MERGE|SHF_STRINGS,1
	0x43040d22		.L.str.14
.rodata.str1.1	0x43040d26	0x5	./out/./src/duk_module_node.o	#SHT_PROGBITS,SHF_ALLOC|SHF_MERGE|SHF_STRINGS,1
	0x43040d26		.L.str.15
.rodata.str1.1	0x43040d2b	0x5	./out/./src/duk_module_node.o	#SHT_PROGBITS,SHF_ALLOC|SHF_MERGE|SHF_STRINGS,1
	0x43040d2b		.L.str.16
.rodata.str1.1	0x43040d30	0xa	./out/./src/duk_module_node.o	#SHT_PROGBITS,SHF_ALLOC|SHF_MERGE|SHF_STRINGS,1
	0x43040d30		.L.str.17
.rodata.str1.1	0x43040d3a	0x6	./out/./src/duk_module_node.o	#SHT_PROGBITS,SHF_ALLOC|SHF_MERGE|SHF_STRINGS,1
	0x43040d3a		.L.str.18
.rodata.str1.1	0x43040d40	0x16	./out/./src/duk_module_node.o	#SHT_PROGBITS,SHF_ALLOC|SHF_MERGE|SHF_STRINGS,1
	0x43040d40		.L.str.19
.rodata.str1.1	0x43040d56	0x2a	./out/./src/duk_module_node.o	#SHT_PROGBITS,SHF_ALLOC|SHF_MERGE|SHF_STRINGS,1
	0x43040d56		.L.str.20
.rodata	0x43040d80	0xc36c	./out/src/duk/duktape.o	#SHT_PROGBITS,SHF_ALLOC,4
	0x43040d80		duk_prop_0
	0x43040fd8		duk_obj_3
	0x43041000		duk_obj_0
	0x43041028		duk_obj_1
	0x43041058		duk_prop_2
	0x43041138		duk_obj_5
	0x43041168		duk_obj_2
	0x43041198		duk_prop_3
	0x43041200		duk_prop_4
	0x43041228		duk_obj_4
	0x43041258		duk_prop_5
	0x430412b4		duk_prop_6
	0x430412d0		duk_obj_6
	0x430412f8		duk_prop_7
	0x4304132c		duk_obj_7
	0x4304135c		duk_prop_8
	0x4304147c		duk_obj_8
	0x430414ac		duk_prop_9
	0x430414e0		duk_obj_9
	0x43041510		duk_prop_10
	0x43041630		duk_obj_10
	0x43041658		duk_prop_11
	0x43041680		duk_obj_11
	0x430416b0		duk_prop_12
	0x430416e4		duk_obj_12
	0x4304170c		duk_prop_13
	0x43041774		duk_obj_13
	0x430417a4		duk_prop_14
	0x4304180c		duk_obj_14
	0x43041834		duk_prop_15
	0x43041884		duk_obj_15
	0x430418b4		duk_prop_16
	0x43041b24		duk_obj_16
	0x43041b4c		duk_prop_17
	0x43041b74		duk_obj_17
	0x43041ba4		duk_prop_18
	0x43041c28		duk_obj_18
	0x43041c50		duk_prop_19
	0x43041c78		duk_obj_19
	0x43041ca8		duk_prop_20
	0x43041d04		duk_obj_20
	0x43041d2c		duk_prop_21
	0x43041d54		duk_obj_21
	0x43041d84		duk_prop_22
	0x43041dac		duk_obj_22
	0x43041dd4		duk_prop_23
	0x43041dfc		duk_obj_23
	0x43041e2c		duk_prop_24
	0x43041e54		duk_obj_24
	0x43041e7c		duk_prop_25
	0x43041ea4		duk_obj_25
	0x43041ed4		duk_prop_26
	0x43041efc		duk_obj_26
	0x43041f24		duk_prop_27
	0x43041f4c		duk_obj_27
	0x43041f7c		duk_prop_28
	0x43041fa4		duk_obj_28
	0x43041fcc		duk_prop_29
	0x43041ff4		duk_obj_29
	0x43042024		duk_prop_30
	0x4304204c		duk_obj_30
	0x43042074		duk_prop_31
	0x4304209c		duk_obj_31
	0x430420cc		duk_prop_32
	0x430420f4		duk_obj_32
	0x4304211c		duk_prop_33
	0x43042138		duk_obj_33
	0x43042168		duk_prop_34
	0x430421ec		duk_obj_34
	0x43042214		duk_obj_35
	0x4304223c		duk_prop_36
	0x43042264		duk_obj_36
	0x4304228c		duk_prop_37
	0x430422a8		duk_obj_37
	0x430422d0		duk_obj_38
	0x430422f8		duk_prop_39
	0x43042320		duk_obj_39
	0x43042348		duk_prop_40
	0x4304244c		duk_obj_40
	0x43042474		duk_prop_41
	0x43042490		duk_obj_59
	0x430424b8		duk_obj_41
	0x430424e0		duk_prop_42
	0x430424fc		duk_obj_42
	0x43042524		duk_prop_43
	0x43042540		duk_obj_43
	0x43042568		duk_prop_44
	0x43042584		duk_obj_44
	0x430425ac		duk_prop_45
	0x430425c8		duk_obj_45
	0x430425f0		duk_prop_46
	0x4304260c		duk_obj_46
	0x43042634		duk_prop_47
	0x43042650		duk_obj_47
	0x43042678		duk_prop_48
	0x43042694		duk_obj_48
	0x430426bc		duk_prop_49
	0x430426d8		duk_obj_49
	0x43042700		duk_prop_50
	0x4304294c		duk_obj_50
	0x43042974		duk_prop_51
	0x43042984		duk_obj_51
	0x430429b4		duk_prop_52
	0x430429c4		duk_obj_52
	0x430429f4		duk_prop_53
	0x43042b48		duk_obj_53
	0x43042b70		duk_prop_54
	0x43042b8c		duk_obj_54
	0x43042bb4		duk_prop_55
	0x43042bdc		duk_obj_55
	0x43042c0c		duk_prop_56
	0x43042c40		duk_obj_56
	0x43042c70		duk_prop_57
	0x43042c98		duk_obj_57
	0x43042cc8		duk_prop_58
	0x43042cf0		duk_obj_58
	0x43042d20		duk_prop_59
	0x43042d64		duk_prop_60
	0x43042d98		duk_obj_60
	0x43042dc8		duk_prop_61
	0x43042e18		duk_obj_61
	0x43042e48		duk_prop_62
	0x43042e7c		duk_obj_62
	0x43042eac		duk_prop_63
	0x43042ee0		duk_obj_63
	0x43042f10		duk_prop_64
	0x43042f44		duk_obj_64
	0x43042f74		duk_prop_65
	0x43042fa8		duk_obj_65
	0x43042fd8		duk_prop_66
	0x4304300c		duk_obj_66
	0x4304303c		duk_prop_67
	0x43043070		duk_obj_67
	0x430430a0		duk_prop_68
	0x430430d4		duk_obj_68
	0x43043104		duk_prop_69
	0x4304316c		duk_obj_69
	0x4304319c		duk_prop_70
	0x430431b8		duk_obj_70
	0x430431e0		duk_prop_71
	0x430431fc		duk_obj_71
	0x4304322c		duk_prop_72
	0x43043248		duk_obj_72
	0x43043278		duk_prop_73
	0x43043294		duk_obj_73
	0x430432c4		duk_prop_74
	0x430432e0		duk_obj_74
	0x43043310		duk_prop_75
	0x4304332c		duk_obj_75
	0x4304335c		duk_prop_76
	0x43043378		duk_obj_76
	0x430433a8		duk_prop_77
	0x430433c4		duk_obj_77
	0x430433f4		duk_prop_78
	0x43043410		duk_obj_78
	0x43043440		duk_prop_79
	0x4304345c		duk_obj_79
	0x4304348c		duk_prop_80
	0x430434a8		duk_obj_80
	0x430434d8		duk_prop_81
	0x430434f4		duk_obj_81
	0x43043524		duk_prop_82
	0x43043540		duk_obj_82
	0x43043570		duk_prop_83
	0x4304358c		duk_obj_83
	0x430435bc		duk_prop_84
	0x430435d8		duk_obj_84
	0x43043608		duk_prop_85
	0x43043624		duk_obj_85
	0x43043654		duk_prop_86
	0x43043670		duk_obj_86
	0x430436a0		duk_prop_87
	0x430436bc		duk_obj_87
	0x430436ec		duk_prop_88
	0x43043708		duk_obj_88
	0x43043738		duk_prop_89
	0x43043754		duk_obj_89
	0x43043784		duk_prop_90
	0x430437a0		duk_obj_90
	0x430437d0		duk_prop_91
	0x430437ec		duk_obj_91
	0x4304381c		duk_prop_92
	0x43043838		duk_obj_92
	0x43043868		duk_prop_93
	0x43043884		duk_obj_93
	0x430438b4		duk_obj_94
	0x430438e4		duk_obj_95
	0x43043914		duk_prop_96
	0x43043930		duk_obj_96
	0x43043960		duk_prop_97
	0x4304397c		duk_obj_97
	0x430439ac		duk_prop_98
	0x430439c8		duk_obj_98
	0x430439f8		duk_prop_99
	0x43043a14		duk_obj_99
	0x43043a44		duk_prop_100
	0x43043a60		duk_obj_100
	0x43043a90		duk_prop_101
	0x43043aac		duk_obj_101
	0x43043adc		duk_prop_102
	0x43043af8		duk_obj_102
	0x43043b28		duk_prop_103
	0x43043b44		duk_obj_103
	0x43043b74		duk_prop_104
	0x43043b90		duk_obj_104
	0x43043bc0		duk_prop_105
	0x43043bdc		duk_obj_105
	0x43043c0c		duk_obj_106
	0x43043c3c		duk_obj_107
	0x43043c6c		duk_prop_108
	0x43043c88		duk_obj_108
	0x43043cb8		duk_prop_109
	0x43043cd4		duk_obj_109
	0x43043d04		duk_prop_110
	0x43043d20		duk_obj_110
	0x43043d50		duk_prop_111
	0x43043d6c		duk_obj_111
	0x43043d9c		duk_prop_112
	0x43043db8		duk_obj_112
	0x43043de8		duk_prop_113
	0x43043e04		duk_obj_113
	0x43043e34		duk_prop_114
	0x43043e50		duk_obj_114
	0x43043e80		duk_prop_115
	0x43043e9c		duk_obj_115
	0x43043ecc		duk_prop_116
	0x43043ee8		duk_obj_116
	0x43043f18		duk_prop_117
	0x43043f34		duk_obj_117
	0x43043f64		duk_prop_118
	0x43043f80		duk_obj_118
	0x43043fb0		duk_prop_119
	0x43043fcc		duk_obj_119
	0x43043ffc		duk_prop_120
	0x43044018		duk_obj_120
	0x43044048		duk_prop_121
	0x43044064		duk_obj_121
	0x43044094		duk_prop_122
	0x430440b0		duk_obj_122
	0x430440e0		duk_prop_123
	0x430440fc		duk_obj_123
	0x4304412c		duk_prop_124
	0x43044148		duk_obj_124
	0x43044178		duk_prop_125
	0x43044194		duk_obj_125
	0x430441c4		duk_prop_126
	0x430441e0		duk_obj_126
	0x43044210		duk_prop_127
	0x4304422c		duk_obj_127
	0x4304425c		duk_prop_128
	0x43044278		duk_obj_128
	0x430442a8		duk_prop_129
	0x430442c4		duk_obj_129
	0x430442f4		duk_prop_130
	0x43044310		duk_obj_130
	0x43044340		duk_prop_131
	0x4304435c		duk_obj_131
	0x4304438c		duk_prop_132
	0x430443a8		duk_obj_132
	0x430443d8		duk_prop_133
	0x430443f4		duk_obj_133
	0x43044424		duk_prop_134
	0x43044440		duk_obj_134
	0x43044470		duk_prop_135
	0x4304448c		duk_obj_135
	0x430444bc		duk_prop_136
	0x430444d8		duk_obj_136
	0x43044508		duk_prop_137
	0x43044524		duk_obj_137
	0x43044554		duk_prop_138
	0x43044570		duk_obj_138
	0x430445a0		duk_prop_139
	0x430445bc		duk_obj_139
	0x430445ec		duk_prop_140
	0x43044608		duk_obj_140
	0x43044638		duk_prop_141
	0x43044654		duk_obj_141
	0x43044684		duk_prop_142
	0x430446a0		duk_obj_142
	0x430446d0		duk_prop_143
	0x430446ec		duk_obj_143
	0x4304471c		duk_prop_144
	0x43044738		duk_obj_144
	0x43044768		duk_prop_145
	0x43044784		duk_obj_145
	0x430447b4		duk_prop_146
	0x430447d0		duk_obj_146
	0x43044800		duk_prop_147
	0x4304481c		duk_obj_147
	0x4304484c		duk_prop_148
	0x43044868		duk_obj_148
	0x43044898		duk_prop_149
	0x430448b4		duk_obj_149
	0x430448e4		duk_prop_150
	0x43044900		duk_obj_150
	0x43044930		duk_prop_151
	0x4304494c		duk_obj_151
	0x4304497c		duk_prop_152
	0x43044998		duk_obj_152
	0x430449c8		duk_prop_153
	0x430449e4		duk_obj_153
	0x43044a14		duk_prop_154
	0x43044a30		duk_obj_154
	0x43044a60		duk_prop_155
	0x43044a7c		duk_obj_155
	0x43044aac		duk_prop_156
	0x43044ac8		duk_obj_156
	0x43044af8		duk_prop_157
	0x43044b14		duk_obj_157
	0x43044b44		duk_prop_158
	0x43044b60		duk_obj_158
	0x43044b90		duk_prop_159
	0x43044bac		duk_obj_159
	0x43044bdc		duk_prop_160
	0x43044bf8		duk_obj_160
	0x43044c28		duk_prop_161
	0x43044c44		duk_obj_161
	0x43044c74		duk_prop_162
	0x43044c90		duk_obj_162
	0x43044cc0		duk_prop_163
	0x43044cdc		duk_obj_163
	0x43044d0c		duk_prop_164
	0x43044d28		duk_obj_164
	0x43044d58		duk_prop_165
	0x43044d74		duk_obj_165
	0x43044da4		duk_prop_166
	0x43044dc0		duk_obj_166
	0x43044df0		duk_prop_167
	0x43044e0c		duk_obj_167
	0x43044e3c		duk_prop_168
	0x43044e58		duk_obj_168
	0x43044e88		duk_prop_169
	0x43044ea4		duk_obj_169
	0x43044ed4		duk_prop_170
	0x43044ef0		duk_obj_170
	0x43044f20		duk_prop_171
	0x43044f3c		duk_obj_171
	0x43044f6c		duk_prop_172
	0x43044f88		duk_obj_172
	0x43044fb8		duk_prop_173
	0x43044fd4		duk_obj_173
	0x43045004		duk_prop_174
	0x43045020		duk_obj_174
	0x43045050		duk_prop_175
	0x4304506c		duk_obj_175
	0x4304509c		duk_prop_176
	0x430450b8		duk_obj_176
	0x430450e8		duk_prop_177
	0x43045104		duk_obj_177
	0x43045134		duk_prop_178
	0x43045150		duk_obj_178
	0x43045180		duk_prop_179
	0x4304519c		duk_obj_179
	0x430451cc		duk_prop_180
	0x430451e8		duk_obj_180
	0x43045218		duk_prop_181
	0x43045234		duk_obj_181
	0x43045264		duk_prop_182
	0x43045280		duk_obj_182
	0x430452b0		duk_prop_183
	0x430452cc		duk_obj_183
	0x430452fc		duk_prop_184
	0x43045318		duk_obj_184
	0x43045348		duk_prop_185
	0x43045364		duk_obj_185
	0x43045394		duk_prop_186
	0x430453b0		duk_obj_186
	0x430453e0		duk_prop_187
	0x430453fc		duk_obj_187
	0x4304542c		duk_prop_188
	0x43045448		duk_obj_188
	0x43045478		duk_prop_189
	0x43045494		duk_obj_189
	0x430454c4		duk_prop_190
	0x430454e0		duk_obj_190
	0x43045510		duk_prop_191
	0x4304552c		duk_obj_191
	0x4304555c		duk_prop_192
	0x43045578		duk_obj_192
	0x430455a8		duk_prop_193
	0x430455c4		duk_obj_193
	0x430455f4		duk_prop_194
	0x43045610		duk_obj_194
	0x43045640		duk_prop_195
	0x4304565c		duk_obj_195
	0x4304568c		duk_prop_196
	0x430456a8		duk_obj_196
	0x430456d8		duk_prop_197
	0x430456f4		duk_obj_197
	0x43045724		duk_prop_198
	0x43045740		duk_obj_198
	0x43045770		duk_prop_199
	0x4304578c		duk_obj_199
	0x430457bc		duk_prop_200
	0x430457d8		duk_obj_200
	0x43045808		duk_prop_201
	0x43045824		duk_obj_201
	0x43045854		duk_prop_202
	0x43045870		duk_obj_202
	0x430458a0		duk_prop_203
	0x430458bc		duk_obj_203
	0x430458ec		duk_prop_204
	0x43045908		duk_obj_204
	0x43045938		duk_prop_205
	0x43045954		duk_obj_205
	0x43045984		duk_prop_206
	0x430459a0		duk_obj_206
	0x430459d0		duk_prop_207
	0x430459ec		duk_obj_207
	0x43045a1c		duk_prop_208
	0x43045a38		duk_obj_208
	0x43045a68		duk_prop_209
	0x43045a84		duk_obj_209
	0x43045ab4		duk_obj_210
	0x43045ae4		duk_obj_211
	0x43045b14		duk_obj_212
	0x43045b44		duk_obj_213
	0x43045b74		duk_obj_214
	0x43045ba4		duk_obj_215
	0x43045bd4		duk_obj_216
	0x43045c04		duk_obj_217
	0x43045c34		duk_obj_218
	0x43045c64		duk_obj_219
	0x43045c94		duk_obj_220
	0x43045cc4		duk_prop_221
	0x43045ce0		duk_obj_221
	0x43045d10		duk_prop_222
	0x43045d2c		duk_obj_222
	0x43045d5c		duk_prop_223
	0x43045d78		duk_obj_223
	0x43045da8		duk_prop_224
	0x43045dc4		duk_obj_224
	0x43045df4		duk_prop_225
	0x43045e10		duk_obj_225
	0x43045e40		duk_prop_226
	0x43045e5c		duk_obj_226
	0x43045e8c		duk_prop_227
	0x43045ea8		duk_obj_227
	0x43045ed8		duk_prop_228
	0x43045ef4		duk_obj_228
	0x43045f24		duk_prop_229
	0x43045f40		duk_obj_229
	0x43045f70		duk_prop_230
	0x43045f8c		duk_obj_230
	0x43045fbc		duk_prop_231
	0x43045fd8		duk_obj_231
	0x43046008		duk_prop_232
	0x43046024		duk_obj_232
	0x43046054		duk_prop_233
	0x43046070		duk_obj_233
	0x430460a0		duk_prop_234
	0x430460bc		duk_obj_234
	0x430460ec		duk_prop_235
	0x43046108		duk_obj_235
	0x43046138		duk_prop_236
	0x43046154		duk_obj_236
	0x43046184		duk_prop_237
	0x430461a0		duk_obj_237
	0x430461d0		duk_prop_238
	0x430461ec		duk_obj_238
	0x4304621c		duk_prop_239
	0x43046238		duk_obj_239
	0x43046268		duk_prop_240
	0x43046284		duk_obj_240
	0x430462b4		duk_prop_241
	0x430462d0		duk_obj_241
	0x43046300		duk_prop_242
	0x4304631c		duk_obj_242
	0x4304634c		duk_prop_243
	0x43046368		duk_obj_243
	0x43046398		duk_prop_244
	0x430463b4		duk_obj_244
	0x430463e4		duk_prop_245
	0x43046400		duk_obj_245
	0x43046430		duk_prop_246
	0x4304644c		duk_obj_246
	0x4304647c		duk_prop_247
	0x43046498		duk_obj_247
	0x430464c8		duk_prop_248
	0x430464e4		duk_obj_248
	0x43046514		duk_prop_249
	0x43046530		duk_obj_249
	0x43046560		duk_prop_250
	0x4304657c		duk_obj_250
	0x430465ac		duk_prop_251
	0x430465c8		duk_obj_251
	0x430465f8		duk_obj_252
	0x43046628		duk_prop_253
	0x43046644		duk_obj_253
	0x43046674		duk_obj_254
	0x430466a4		duk_obj_255
	0x430466d4		duk_obj_256
	0x43046704		duk_prop_257
	0x43046720		duk_obj_257
	0x43046750		duk_prop_258
	0x4304676c		duk_obj_258
	0x4304679c		duk_prop_259
	0x430467b8		duk_obj_259
	0x430467e8		duk_prop_260
	0x43046804		duk_obj_260
	0x43046834		duk_prop_261
	0x43046850		duk_obj_261
	0x43046880		duk_prop_262
	0x4304689c		duk_obj_262
	0x430468cc		duk_prop_263
	0x430468e8		duk_obj_263
	0x43046918		duk_prop_264
	0x43046934		duk_obj_264
	0x43046964		duk_prop_265
	0x43046980		duk_obj_265
	0x430469b0		duk_prop_266
	0x430469cc		duk_obj_266
	0x430469fc		duk_prop_267
	0x43046a18		duk_obj_267
	0x43046a48		duk_prop_268
	0x43046a64		duk_obj_268
	0x43046a94		duk_prop_269
	0x43046ab0		duk_obj_269
	0x43046ae0		duk_prop_270
	0x43046afc		duk_obj_270
	0x43046b2c		duk_prop_271
	0x43046b48		duk_obj_271
	0x43046b78		duk_prop_272
	0x43046b94		duk_obj_272
	0x43046bc4		duk_obj_273
	0x43046bf4		duk_obj_274
	0x43046c24		duk_obj_275
	0x43046c54		duk_prop_276
	0x43046c70		duk_obj_276
	0x43046ca0		duk_prop_277
	0x43046cbc		duk_obj_277
	0x43046cec		duk_prop_278
	0x43046d08		duk_obj_278
	0x43046d38		duk_prop_279
	0x43046d54		duk_obj_279
	0x43046d84		duk_prop_280
	0x43046da0		duk_obj_280
	0x43046dd0		duk_prop_281
	0x43046dec		duk_obj_281
	0x43046e1c		duk_prop_282
	0x43046e38		duk_obj_282
	0x43046e68		duk_prop_283
	0x43046e84		duk_obj_283
	0x43046eb4		duk_prop_284
	0x43046ed0		duk_obj_284
	0x43046f00		duk_prop_285
	0x43046f1c		duk_obj_285
	0x43046f4c		duk_prop_286
	0x43046f68		duk_obj_286
	0x43046f98		duk_prop_287
	0x43046fb4		duk_obj_287
	0x43046fe4		duk_prop_288
	0x43047000		duk_obj_288
	0x43047030		duk_prop_289
	0x4304704c		duk_obj_289
	0x4304707c		duk_prop_290
	0x43047098		duk_obj_290
	0x430470c8		duk_prop_291
	0x430470e4		duk_obj_291
	0x43047114		duk_prop_292
	0x43047130		duk_obj_292
	0x43047160		duk_prop_293
	0x4304717c		duk_obj_293
	0x430471ac		duk_prop_294
	0x430471c8		duk_obj_294
	0x430471f8		duk_prop_295
	0x43047214		duk_obj_295
	0x43047244		duk_prop_296
	0x43047260		duk_obj_296
	0x43047290		duk_prop_297
	0x430472ac		duk_obj_297
	0x430472dc		duk_prop_298
	0x430472f8		duk_obj_298
	0x43047328		duk_prop_299
	0x43047344		duk_obj_299
	0x43047374		duk_prop_300
	0x43047390		duk_obj_300
	0x430473c0		duk_prop_301
	0x430473dc		duk_obj_301
	0x4304740c		duk_prop_302
	0x43047428		duk_obj_302
	0x43047458		duk_prop_303
	0x43047474		duk_obj_303
	0x430474a4		duk_prop_304
	0x430474c0		duk_obj_304
	0x430474f0		duk_prop_305
	0x4304750c		duk_obj_305
	0x4304753c		duk_prop_306
	0x43047558		duk_obj_306
	0x43047588		duk_prop_307
	0x430475a4		duk_obj_307
	0x430475d4		duk_prop_308
	0x430475f0		duk_obj_308
	0x43047620		duk_prop_309
	0x4304763c		duk_obj_309
	0x4304766c		duk_prop_310
	0x43047688		duk_obj_310
	0x430476b8		duk_prop_311
	0x430476d4		duk_obj_311
	0x43047704		duk_prop_312
	0x43047720		duk_obj_312
	0x43047750		duk_prop_313
	0x4304776c		duk_obj_313
	0x4304779c		duk_prop_314
	0x430477b8		duk_obj_314
	0x430477e8		duk_prop_315
	0x43047804		duk_obj_315
	0x43047834		duk_prop_316
	0x43047850		duk_obj_316
	0x43047880		duk_prop_317
	0x4304789c		duk_obj_317
	0x430478cc		duk_prop_318
	0x430478e8		duk_obj_318
	0x43047918		duk_prop_319
	0x43047934		duk_obj_319
	0x43047964		duk_prop_320
	0x43047980		duk_obj_320
	0x430479b0		duk_prop_321
	0x430479cc		duk_obj_321
	0x430479fc		duk_prop_322
	0x43047a18		duk_obj_322
	0x43047a48		duk_prop_323
	0x43047a64		duk_obj_323
	0x43047a94		duk_prop_324
	0x43047ab0		duk_obj_324
	0x43047ae0		duk_prop_325
	0x43047afc		duk_obj_325
	0x43047b2c		duk_prop_326
	0x43047b48		duk_obj_326
	0x43047b78		duk_prop_327
	0x43047b94		duk_obj_327
	0x43047bc4		duk_prop_328
	0x43047be0		duk_obj_328
	0x43047c10		duk_prop_329
	0x43047c2c		duk_obj_329
	0x43047c5c		duk_prop_330
	0x43047c78		duk_obj_330
	0x43047ca8		duk_str_393
	0x43047ccc		duk_str_180
	0x43047ce8		duk_str_181
	0x43047d0c		duk_str_179
	0x43047d30		duk_str_4
	0x43047d50		duk_str_5
	0x43047d74		duk_str_6
	0x43047d94		duk_str_7
	0x43047db4		duk_str_8
	0x43047dd4		duk_str_9
	0x43047df4		duk_str_10
	0x43047e14		duk_str_11
	0x43047e34		duk_str_12
	0x43047e54		duk_str_13
	0x43047e78		duk_str_14
	0x43047e9c		duk_str_15
	0x43047ec4		duk_str_16
	0x43047ee8		duk_str_17
	0x43047f0c		duk_str_18
	0x43047f30		duk_str_19
	0x43047f50		duk_str_20
	0x43047f70		duk_str_394
	0x43047f90		duk_str_296
	0x43047fb0		duk_str_300
	0x43047fd0		duk_str_263
	0x43047ff4		duk_str_264
	0x43048018		duk_str_265
	0x4304803c		duk_str_266
	0x43048060		duk_str_267
	0x4304808c		duk_str_268
	0x430480b0		duk_str_269
	0x430480d4		duk_str_270
	0x430480f8		duk_str_271
	0x4304811c		duk_str_272
	0x43048144		duk_str_273
	0x4304816c		duk_str_21
	0x4304818c		duk_str_22
	0x430481b0		duk_str_23
	0x430481d4		duk_str_24
	0x430481f4		duk_str_25
	0x43048218		duk_str_26
	0x4304823c		duk_str_27
	0x43048268		duk_str_28
	0x4304828c		duk_str_29
	0x430482b8		duk_str_30
	0x430482d8		duk_str_31
	0x430482fc		duk_str_277
	0x4304831c		duk_str_143
	0x43048340		duk_str_308
	0x43048360		duk_str_203
	0x43048388		duk_str_212
	0x430483b0		duk_str_202
	0x430483e4		duk_str_32
	0x43048410		duk_str_33
	0x43048430		duk_str_199
	0x43048458		duk_str_34
	0x43048484		duk_str_35
	0x430484a4		duk_str_36
	0x430484c4		duk_str_207
	0x430484f0		duk_str_37
	0x43048514		duk_str_38
	0x43048538		duk_str_205
	0x43048560		duk_str_39
	0x43048580		duk_str_144
	0x430485a4		duk_str_213
	0x430485c8		duk_str_218
	0x430485ec		duk_str_93
	0x43048614		duk_str_96
	0x43048634		duk_str_44
	0x4304865c		duk_str_45
	0x43048684		duk_str_46
	0x430486b4		duk_str_187
	0x430486d0		duk_str_197
	0x430486f0		duk_str_47
	0x43048710		duk_str_48
	0x43048730		duk_str_49
	0x43048750		duk_str_214
	0x43048770		duk_str_50
	0x43048790		duk_str_51
	0x430487ac		duk_str_52
	0x430487cc		duk_str_53
	0x430487ec		duk_str_54
	0x4304880c		duk_str_275
	0x4304882c		duk_str_55
	0x4304884c		duk_str_56
	0x4304886c		duk_str_57
	0x4304888c		duk_str_68
	0x430488ac		duk_str_69
	0x430488d0		duk_str_58
	0x430488f0		duk_str_59
	0x43048910		duk_str_60
	0x43048930		duk_str_61
	0x4304894c		duk_str_62
	0x4304896c		duk_str_63
	0x4304898c		duk_str_64
	0x430489b0		duk_str_65
	0x430489d8		duk_str_322
	0x430489f8		duk_str_66
	0x43048a18		duk_str_67
	0x43048a3c		duk_str_70
	0x43048a64		duk_str_71
	0x43048a84		duk_str_72
	0x43048aa4		duk_str_73
	0x43048ac4		duk_str_74
	0x43048ae4		duk_str_75
	0x43048b08		duk_str_76
	0x43048b2c		duk_str_77
	0x43048b58		duk_str_78
	0x43048b7c		duk_str_79
	0x43048ba8		duk_str_80
	0x43048bc8		duk_str_81
	0x43048be8		duk_str_82
	0x43048c0c		duk_str_83
	0x43048c30		duk_str_85
	0x43048c5c		duk_str_84
	0x43048c88		duk_str_86
	0x43048ca8		duk_str_87
	0x43048cd0		duk_str_88
	0x43048cf4		duk_str_172
	0x43048d14		duk_str_89
	0x43048d30		duk_str_90
	0x43048d4c		duk_str_91
	0x43048d74		duk_str_92
	0x43048d9c		duk_str_94
	0x43048dc8		duk_str_95
	0x43048df4		duk_str_130
	0x43048e18		duk_str_134
	0x43048e3c		duk_str_131
	0x43048e60		duk_str_219
	0x43048e80		duk_str_97
	0x43048ea0		duk_str_98
	0x43048ec4		duk_str_99
	0x43048eec		duk_str_100
	0x43048f10		duk_str_101
	0x43048f34		duk_str_102
	0x43048f54		duk_str_103
	0x43048f78		duk_str_104
	0x43048f98		duk_str_105
	0x43048fbc		duk_str_106
	0x43048fe0		duk_str_107
	0x43049004		duk_str_108
	0x43049028		duk_str_109
	0x43049050		duk_str_110
	0x43049074		duk_str_111
	0x4304909c		duk_str_112
	0x430490c4		duk_str_113
	0x430490f0		duk_str_114
	0x4304911c		duk_str_115
	0x4304913c		duk_str_116
	0x43049164		duk_str_117
	0x43049190		duk_str_118
	0x430491b4		duk_str_119
	0x430491dc		duk_str_120
	0x43049200		duk_str_121
	0x43049228		duk_str_122
	0x4304924c		duk_str_123
	0x43049270		duk_str_124
	0x43049290		duk_str_125
	0x430492b4		duk_str_126
	0x430492d8		duk_str_127
	0x430492fc		duk_str_128
	0x43049320		duk_str_129
	0x43049348		duk_str_132
	0x43049368		duk_str_133
	0x43049388		duk_str_140
	0x430493ac		duk_str_135
	0x430493cc		duk_str_136
	0x430493ec		duk_str_141
	0x4304940c		duk_str_137
	0x4304942c		duk_str_297
	0x4304944c		duk_str_138
	0x43049470		duk_str_139
	0x43049494		duk_str_145
	0x430494b4		duk_str_304
	0x430494d4		duk_str_309
	0x430494f8		duk_str_306
	0x4304951c		duk_str_303
	0x43049544		duk_str_395
	0x43049560		duk_str_327
	0x4304957c		duk_str_328
	0x4304959c		duk_str_301
	0x430495bc		duk_str_329
	0x430495dc		duk_str_330
	0x430495f8		duk_str_331
	0x43049614		duk_str_332
	0x43049630		duk_str_333
	0x4304964c		duk_str_334
	0x43049668		duk_str_335
	0x43049688		duk_str_396
	0x430496ac		duk_str_397
	0x430496dc		duk_str_217
	0x43049700		duk_str_398
	0x43049724		duk_str_276
	0x43049744		duk_str_280
	0x43049764		duk_str_281
	0x43049788		duk_str_282
	0x430497ac		duk_str_283
	0x430497d0		duk_str_284
	0x430497f4		duk_str_285
	0x43049818		duk_str_286
	0x4304983c		duk_str_287
	0x43049860		duk_str_288
	0x43049880		duk_str_289
	0x430498a4		duk_str_290
	0x430498c8		duk_str_291
	0x430498ec		duk_str_292
	0x43049910		duk_str_293
	0x43049934		duk_str_294
	0x43049958		duk_str_295
	0x4304997c		duk_str_399
	0x430499a8		duk_str_225
	0x430499cc		duk_str_226
	0x430499f0		duk_str_227
	0x43049a18		duk_str_228
	0x43049a40		duk_str_229
	0x43049a64		duk_str_230
	0x43049a88		duk_str_231
	0x43049ab0		duk_str_232
	0x43049ad8		duk_str_233
	0x43049afc		duk_str_234
	0x43049b20		duk_str_235
	0x43049b44		duk_str_236
	0x43049b68		duk_str_237
	0x43049b90		duk_str_238
	0x43049bb8		duk_str_239
	0x43049bdc		duk_str_240
	0x43049c00		duk_str_241
	0x43049c24		duk_str_242
	0x43049c48		duk_str_243
	0x43049c6c		duk_str_244
	0x43049c90		duk_str_245
	0x43049cb8		duk_str_246
	0x43049ce0		duk_str_247
	0x43049d08		duk_str_248
	0x43049d30		duk_str_249
	0x43049d58		duk_str_250
	0x43049d80		duk_str_251
	0x43049da8		duk_str_252
	0x43049dd0		duk_str_253
	0x43049df8		duk_str_254
	0x43049e20		duk_str_255
	0x43049e48		duk_str_256
	0x43049e70		duk_str_257
	0x43049e94		duk_str_258
	0x43049eb8		duk_str_259
	0x43049edc		duk_str_260
	0x43049f00		duk_str_221
	0x43049f20		duk_str_222
	0x43049f40		duk_str_223
	0x43049f60		duk_str_224
	0x43049f80		duk_str_220
	0x43049fa0		duk_str_146
	0x43049fbc		duk_str_147
	0x43049fdc		duk_str_148
	0x43049ff8		duk_str_149
	0x4304a018		duk_str_150
	0x4304a038		duk_str_151
	0x4304a054		duk_str_152
	0x4304a074		duk_str_153
	0x4304a094		duk_str_154
	0x4304a0b0		duk_str_155
	0x4304a0d0		duk_str_156
	0x4304a0f0		duk_str_157
	0x4304a110		duk_str_158
	0x4304a130		duk_str_159
	0x4304a150		duk_str_160
	0x4304a16c		duk_str_161
	0x4304a188		duk_str_162
	0x4304a1a8		duk_str_163
	0x4304a1c4		duk_str_164
	0x4304a1e0		duk_str_165
	0x4304a1fc		duk_str_166
	0x4304a218		duk_str_167
	0x4304a238		duk_str_168
	0x4304a258		duk_str_169
	0x4304a274		duk_str_170
	0x4304a294		duk_str_171
	0x4304a2b0		duk_str_173
	0x4304a2d4		duk_str_274
	0x4304a2f4		duk_str_400
	0x4304a318		duk_str_278
	0x4304a334		duk_str_279
	0x4304a358		duk_str_401
	0x4304a37c		duk_str_402
	0x4304a39c		duk_str_215
	0x4304a3c0		duk_str_216
	0x4304a3e4		duk_str_403
	0x4304a404		duk_str_404
	0x4304a480		duk__bufobj_flags_lookup
	0x4304a4b0		duk_unicode_ids_noabmp
	0x4304a721		duk_unicode_ids_m_let_noabmp
	0x4304a739		duk_unicode_idp_m_ids_noabmp
	0x4304a89f		duk_unicode_caseconv_uc
	0x4304ae22		duk_unicode_caseconv_lc
	0x4304b0e4		duk_unicode_re_canon_bitmap
	0x4304b1e4		duk_str_298
	0x4304b204		duk_str_348
	0x4304b224		duk_str_378
	0x4304b244		duk_str_338
	0x4304b260		duk_str_339
	0x4304b27c		duk_str_302
	0x4304b29c		duk_str_366
	0x4304b2bc		duk_str_382
	0x4304b2dc		duk_str_354
	0x4304b2fc		duk_str_367
	0x4304b31c		duk_str_325
	0x4304b340		duk_str_142
	0x4304b360		duk_str_324
	0x4304b380		duk_str_381
	0x4304b3a0		duk_str_201
	0x4304b3bc		duk_str_200
	0x4304b3e4		duk_str_40
	0x4304b404		duk_str_190
	0x4304b424		duk_str_389
	0x4304b448		duk_str_326
	0x4304b46c		duk_str_357
	0x4304b48c		duk_str_188
	0x4304b4a8		duk_str_183
	0x4304b4cc		duk_str_355
	0x4304b4e8		duk_str_352
	0x4304b50c		duk_str_363
	0x4304b528		duk_str_353
	0x4304b548		duk_str_369
	0x4304b568		duk_str_198
	0x4304b58c		duk_str_356
	0x4304b5ac		duk_str_376
	0x4304b5cc		duk_str_261
	0x4304b5ec		duk_str_176
	0x4304b60c		duk_str_177
	0x4304b62c		duk_str_373
	0x4304b64c		duk_str_191
	0x4304b674		duk_str_380
	0x4304b694		duk_str_359
	0x4304b6b8		duk_str_358
	0x4304b6d4		duk_str_341
	0x4304b6f4		duk_str_365
	0x4304b714		duk_str_391
	0x4304b734		duk_str_318
	0x4304b754		duk_str_337
	0x4304b774		duk_str_351
	0x4304b798		duk_str_311
	0x4304b7b8		duk_str_315
	0x4304b7d8		duk_str_316
	0x4304b7f8		duk_str_319
	0x4304b818		duk_str_320
	0x4304b838		duk_str_307
	0x4304b85c		duk_str_321
	0x4304b880		duk_str_313
	0x4304b8a4		duk_str_314
	0x4304b8c8		duk_str_317
	0x4304b8ec		duk_str_370
	0x4304b908		duk_str_377
	0x4304b928		duk_str_323
	0x4304b948		duk_str_193
	0x4304b968		duk_str_194
	0x4304b988		duk_str_372
	0x4304b9a8		duk_str_383
	0x4304b9c8		duk_str_386
	0x4304b9e4		duk_str_195
	0x4304ba04		duk_str_174
	0x4304ba24		duk_str_312
	0x4304ba44		duk_str_340
	0x4304ba64		duk_str_364
	0x4304ba84		duk_str_196
	0x4304baa4		duk_str_350
	0x4304bac4		duk_str_371
	0x4304bae4		duk_str_375
	0x4304bb04		duk_str_262
	0x4304bb24		duk_str_299
	0x4304bb44		duk_str_368
	0x4304bb60		duk_str_379
	0x4304bb80		duk_str_392
	0x4304bba0		duk_str_349
	0x4304bbc0		duk_str_362
	0x4304bbe4		duk_str_384
	0x4304bc08		duk__type_names
	0x4304bc30		duk_rom_strings_stridx
	0x4304becc		duk_str_0
	0x4304bef0		duk_str_1
	0x4304bf10		duk_str_2
	0x4304bf30		duk_str_3
	0x4304bf54		duk_str_41
	0x4304bf78		duk_str_42
	0x4304bfa0		duk_str_43
	0x4304bfc4		duk_str_175
	0x4304bfe4		duk_str_178
	0x4304c004		duk_str_186
	0x4304c020		duk_str_189
	0x4304c040		duk_str_192
	0x4304c064		duk_str_204
	0x4304c080		duk_str_206
	0x4304c0a0		duk_str_208
	0x4304c0d0		duk_str_209
	0x4304c100		duk_str_210
	0x4304c130		duk_str_211
	0x4304c164		duk_str_305
	0x4304c180		duk_str_310
	0x4304c1a0		duk_str_336
	0x4304c1bc		duk_str_342
	0x4304c1e4		duk_str_343
	0x4304c20c		duk_str_344
	0x4304c234		duk_str_345
	0x4304c25c		duk_str_346
	0x4304c284		duk_str_347
	0x4304c2ac		duk_str_360
	0x4304c2c8		duk_str_361
	0x4304c2e4		duk_str_374
	0x4304c304		duk_str_385
	0x4304c328		duk_str_387
	0x4304c348		duk_str_388
	0x4304c368		duk_str_390
	0x4304c388		duk_lc_digits
	0x4304c3ac		duk_rom_strings_lookup
	0x4304c7ac		duk_str_184
	0x4304c7c8		duk_str_185
	0x4304c7e4		duk_str_182
	0x4304c808		duk__bc_optab
	0x4304cc08		duk__token_lbp
	0x4304cc6e		duk_hex_dectab
	0x4304cd6e		duk__str2num_digits_for_radix
	0x4304cd92		duk__str2num_exp_limits
	0x4304ce20		duk__re_range_lookup1
	0x4304ce2c		duk__re_range_lookup2
	0x4304ce30		duk_unicode_re_ranges_digit
	0x4304ce34		duk_unicode_re_ranges_white
	0x4304ce60		duk_unicode_re_ranges_wordchar
	0x4304ce70		duk_unicode_re_ranges_not_digit
	0x4304ce78		duk_unicode_re_ranges_not_white
	0x4304cea8		duk_unicode_re_ranges_not_wordchar
	0x4304cebc		duk__const_tval_unused
	0x4304cec4		duk__toprim_hint_strings
	0x4304ced0		duk_unicode_xutf8_markers
	0x4304ced7		duk__buffer_proto_from_elemtype
	0x4304cee0		duk__buffer_class_from_elemtype
	0x4304cee9		duk__buffer_proto_from_classnum
	0x4304cef4		duk__days_in_month
	0x4304cf00		duk__date_equivyear
	0x4304cf10		duk__parse_iso8601_control
	0x4304cf3c		duk__date_magics
	0x4304cf8c		duk__decode_uri_reserved_table
	0x4304cf9c		duk__decode_uri_component_reserved_table
	0x4304cfac		duk__encode_uriunescaped_table
	0x4304cfbc		duk__encode_uricomponent_unescaped_table
	0x4304cfcc		duk_bi_json_stringify_helper.spaces
	0x4304cfd6		duk__json_quotestr_esc
	0x4304cfe4		duk__one_arg_funcs
	0x4304d018		duk__two_arg_funcs
	0x4304d020		duk_rom_builtins_bidx
.rodata.str1.1	0x4304d0ec	0x12	./out/src/duk/duktape.o	#SHT_PROGBITS,SHF_ALLOC|SHF_MERGE|SHF_STRINGS,1
	0x4304d0ec		.L.str
.rodata.str1.1	0x4304d0fe	0x12	./out/src/duk/duktape.o	#SHT_PROGBITS,SHF_ALLOC|SHF_MERGE|SHF_STRINGS,1
	0x4304d0fe		.L.str.1
.rodata.str1.1	0x4304d110	0xc	./out/src/duk/duktape.o	#SHT_PROGBITS,SHF_ALLOC|SHF_MERGE|SHF_STRINGS,1
	0x4304d110		.L.str.2
.rodata.str1.1	0x4304d11c	0xe	./out/src/duk/duktape.o	#SHT_PROGBITS,SHF_ALLOC|SHF_MERGE|SHF_STRINGS,1
	0x4304d11c		.L__func__.duk_safe_call
.rodata.str1.1	0x4304d12a	0xb7	./out/src/duk/duktape.o	#SHT_PROGBITS,SHF_ALLOC|SHF_MERGE|SHF_STRINGS,1
	0x4304d12a		.L.str.3
.rodata.str1.1	0x4304d1e1	0x1b	./out/src/duk/duktape.o	#SHT_PROGBITS,SHF_ALLOC|SHF_MERGE|SHF_STRINGS,1
	0x4304d1e1		.L.str.4
.rodata.str1.1	0x4304d1fc	0x10	./out/src/duk/duktape.o	#SHT_PROGBITS,SHF_ALLOC|SHF_MERGE|SHF_STRINGS,1
	0x4304d1fc		.L.str.5
.rodata.str1.1	0x4304d20c	0x17	./out/src/duk/duktape.o	#SHT_PROGBITS,SHF_ALLOC|SHF_MERGE|SHF_STRINGS,1
	0x4304d20c		.L.str.6
.rodata.str1.1	0x4304d223	0x14	./out/src/duk/duktape.o	#SHT_PROGBITS,SHF_ALLOC|SHF_MERGE|SHF_STRINGS,1
	0x4304d223		.L.str.7
.rodata.str1.1	0x4304d237	0xe	./out/src/duk/duktape.o	#SHT_PROGBITS,SHF_ALLOC|SHF_MERGE|SHF_STRINGS,1
	0x4304d237		.L.str.8
.rodata.str1.1	0x4304d245	0x16	./out/src/duk/duktape.o	#SHT_PROGBITS,SHF_ALLOC|SHF_MERGE|SHF_STRINGS,1
	0x4304d245		.L__func__.duk_set_global_object
.rodata.str1.1	0x4304d25b	0x20	./out/src/duk/duktape.o	#SHT_PROGBITS,SHF_ALLOC|SHF_MERGE|SHF_STRINGS,1
	0x4304d25b		.L.str.9
.rodata.str1.1	0x4304d27b	0x5	./out/src/duk/duktape.o	#SHT_PROGBITS,SHF_ALLOC|SHF_MERGE|SHF_STRINGS,1
	0x4304d27b		.L.str.10
.rodata.str1.1	0x4304d280	0x7	./out/src/duk/duktape.o	#SHT_PROGBITS,SHF_ALLOC|SHF_MERGE|SHF_STRINGS,1
	0x4304d280		.L__func__.duk_gc
.rodata.str1.1	0x4304d287	0x28	./out/src/duk/duktape.o	#SHT_PROGBITS,SHF_ALLOC|SHF_MERGE|SHF_STRINGS,1
	0x4304d287		.L.str.12
.rodata.str1.1	0x4304d2af	0x13	./out/src/duk/duktape.o	#SHT_PROGBITS,SHF_ALLOC|SHF_MERGE|SHF_STRINGS,1
	0x4304d2af		.L.str.13
.rodata.str1.1	0x4304d2c2	0xd	./out/src/duk/duktape.o	#SHT_PROGBITS,SHF_ALLOC|SHF_MERGE|SHF_STRINGS,1
	0x4304d2c2		.L.str.14
.rodata.str1.1	0x4304d2cf	0x11	./out/src/duk/duktape.o	#SHT_PROGBITS,SHF_ALLOC|SHF_MERGE|SHF_STRINGS,1
	0x4304d2cf		.L.str.15
.rodata.str1.1	0x4304d2e0	0x10	./out/src/duk/duktape.o	#SHT_PROGBITS,SHF_ALLOC|SHF_MERGE|SHF_STRINGS,1
	0x4304d2e0		.L.str.16
.rodata.str1.1	0x4304d2f0	0xa	./out/src/duk/duktape.o	#SHT_PROGBITS,SHF_ALLOC|SHF_MERGE|SHF_STRINGS,1
	0x4304d2f0		.L.str.17
.rodata.str1.1	0x4304d2fa	0x5	./out/src/duk/duktape.o	#SHT_PROGBITS,SHF_ALLOC|SHF_MERGE|SHF_STRINGS,1
	0x4304d2fa		.L.str.18
.rodata.str1.1	0x4304d2ff	0x8	./out/src/duk/duktape.o	#SHT_PROGBITS,SHF_ALLOC|SHF_MERGE|SHF_STRINGS,1
	0x4304d2ff		.L.str.19
.rodata.str1.1	0x4304d307	0x7	./out/src/duk/duktape.o	#SHT_PROGBITS,SHF_ALLOC|SHF_MERGE|SHF_STRINGS,1
	0x4304d307		.L.str.20
.rodata.str1.1	0x4304d30e	0x7	./out/src/duk/duktape.o	#SHT_PROGBITS,SHF_ALLOC|SHF_MERGE|SHF_STRINGS,1
	0x4304d30e		.L.str.21
.rodata.str1.1	0x4304d315	0x8	./out/src/duk/duktape.o	#SHT_PROGBITS,SHF_ALLOC|SHF_MERGE|SHF_STRINGS,1
	0x4304d315		.L.str.22
.rodata.str1.1	0x4304d31d	0xf	./out/src/duk/duktape.o	#SHT_PROGBITS,SHF_ALLOC|SHF_MERGE|SHF_STRINGS,1
	0x4304d31d		.L.str.23
.rodata.str1.1	0x4304d32c	0x9	./out/src/duk/duktape.o	#SHT_PROGBITS,SHF_ALLOC|SHF_MERGE|SHF_STRINGS,1
	0x4304d32c		.L.str.24
.rodata.str1.1	0x4304d335	0xe	./out/src/duk/duktape.o	#SHT_PROGBITS,SHF_ALLOC|SHF_MERGE|SHF_STRINGS,1
	0x4304d335		.L.str.25
.rodata.str1.1	0x4304d343	0xb	./out/src/duk/duktape.o	#SHT_PROGBITS,SHF_ALLOC|SHF_MERGE|SHF_STRINGS,1
	0x4304d343		.L.str.26
.rodata.str1.1	0x4304d34e	0x6	./out/src/duk/duktape.o	#SHT_PROGBITS,SHF_ALLOC|SHF_MERGE|SHF_STRINGS,1
	0x4304d34e		.L.str.27
.rodata.str1.1	0x4304d354	0x1c	./out/src/duk/duktape.o	#SHT_PROGBITS,SHF_ALLOC|SHF_MERGE|SHF_STRINGS,1
	0x4304d354		.L.str.28
.rodata.str1.1	0x4304d370	0x3	./out/src/duk/duktape.o	#SHT_PROGBITS,SHF_ALLOC|SHF_MERGE|SHF_STRINGS,1
	0x4304d370		.L.str.29
.rodata.str1.1	0x4304d373	0x15	./out/src/duk/duktape.o	#SHT_PROGBITS,SHF_ALLOC|SHF_MERGE|SHF_STRINGS,1
	0x4304d373		.L.str.30
.rodata.str1.1	0x4304d388	0x10	./out/src/duk/duktape.o	#SHT_PROGBITS,SHF_ALLOC|SHF_MERGE|SHF_STRINGS,1
	0x4304d388		.L.str.31
.rodata.str1.1	0x4304d398	0x10	./out/src/duk/duktape.o	#SHT_PROGBITS,SHF_ALLOC|SHF_MERGE|SHF_STRINGS,1
	0x4304d398		.L.str.32
.rodata.str1.1	0x4304d3a8	0xd	./out/src/duk/duktape.o	#SHT_PROGBITS,SHF_ALLOC|SHF_MERGE|SHF_STRINGS,1
	0x4304d3a8		.L.str.33
.rodata.str1.1	0x4304d3b5	0x10	./out/src/duk/duktape.o	#SHT_PROGBITS,SHF_ALLOC|SHF_MERGE|SHF_STRINGS,1
	0x4304d3b5		.L.str.34
.rodata.str1.1	0x4304d3c5	0x11	./out/src/duk/duktape.o	#SHT_PROGBITS,SHF_ALLOC|SHF_MERGE|SHF_STRINGS,1
	0x4304d3c5		.L__func__.duk_push_heapptr
.rodata.str1.1	0x4304d3d6	0x3f	./out/src/duk/duktape.o	#SHT_PROGBITS,SHF_ALLOC|SHF_MERGE|SHF_STRINGS,1
	0x4304d3d6		.L.str.35
.rodata.str1.1	0x4304d415	0xe	./out/src/duk/duktape.o	#SHT_PROGBITS,SHF_ALLOC|SHF_MERGE|SHF_STRINGS,1
	0x4304d415		.L__func__.duk_fatal_raw
.rodata.str1.1	0x4304d423	0x19	./out/src/duk/duktape.o	#SHT_PROGBITS,SHF_ALLOC|SHF_MERGE|SHF_STRINGS,1
	0x4304d423		.L.str.36
.rodata.str1.1	0x4304d43c	0x5	./out/src/duk/duktape.o	#SHT_PROGBITS,SHF_ALLOC|SHF_MERGE|SHF_STRINGS,1
	0x4304d43c		.L.str.37
.rodata.str1.1	0x4304d441	0x30	./out/src/duk/duktape.o	#SHT_PROGBITS,SHF_ALLOC|SHF_MERGE|SHF_STRINGS,1
	0x4304d441		.L.str.38
.rodata.str1.1	0x4304d471	0x19	./out/src/duk/duktape.o	#SHT_PROGBITS,SHF_ALLOC|SHF_MERGE|SHF_STRINGS,1
	0x4304d471		.L__func__.duk_err_create_and_throw
.rodata.str1.1	0x4304d48a	0x44	./out/src/duk/duktape.o	#SHT_PROGBITS,SHF_ALLOC|SHF_MERGE|SHF_STRINGS,1
	0x4304d48a		.L.str.39
.rodata.str1.1	0x4304d4ce	0x44	./out/src/duk/duktape.o	#SHT_PROGBITS,SHF_ALLOC|SHF_MERGE|SHF_STRINGS,1
	0x4304d4ce		.L.str.40
.rodata.str1.1	0x4304d512	0x6c	./out/src/duk/duktape.o	#SHT_PROGBITS,SHF_ALLOC|SHF_MERGE|SHF_STRINGS,1
	0x4304d512		.L.str.41
.rodata.str1.1	0x4304d57e	0x24	./out/src/duk/duktape.o	#SHT_PROGBITS,SHF_ALLOC|SHF_MERGE|SHF_STRINGS,1
	0x4304d57e		.L.str.43
.rodata.str1.1	0x4304d5a2	0x5	./out/src/duk/duktape.o	#SHT_PROGBITS,SHF_ALLOC|SHF_MERGE|SHF_STRINGS,1
	0x4304d5a2		.L.str.44
.rodata.str1.1	0x4304d5a7	0x7	./out/src/duk/duktape.o	#SHT_PROGBITS,SHF_ALLOC|SHF_MERGE|SHF_STRINGS,1
	0x4304d5a7		.L.str.45
.rodata.str1.1	0x4304d5ae	0x7	./out/src/duk/duktape.o	#SHT_PROGBITS,SHF_ALLOC|SHF_MERGE|SHF_STRINGS,1
	0x4304d5ae		.L.str.46
.rodata.str1.1	0x4304d5b5	0xa	./out/src/duk/duktape.o	#SHT_PROGBITS,SHF_ALLOC|SHF_MERGE|SHF_STRINGS,1
	0x4304d5b5		.L.str.47
.rodata.str1.1	0x4304d5bf	0x25	./out/src/duk/duktape.o	#SHT_PROGBITS,SHF_ALLOC|SHF_MERGE|SHF_STRINGS,1
	0x4304d5bf		.L__func__.duk_hobject_define_property_internal
.rodata.str1.1	0x4304d5e4	0x30	./out/src/duk/duktape.o	#SHT_PROGBITS,SHF_ALLOC|SHF_MERGE|SHF_STRINGS,1
	0x4304d5e4		.L.str.48
.rodata.str1.1	0x4304d614	0x41	./out/src/duk/duktape.o	#SHT_PROGBITS,SHF_ALLOC|SHF_MERGE|SHF_STRINGS,1
	0x4304d614		.L.str.49
.rodata.str1.1	0x4304d655	0x37	./out/src/duk/duktape.o	#SHT_PROGBITS,SHF_ALLOC|SHF_MERGE|SHF_STRINGS,1
	0x4304d655		.L.str.50
.rodata.str1.1	0x4304d68c	0x32	./out/src/duk/duktape.o	#SHT_PROGBITS,SHF_ALLOC|SHF_MERGE|SHF_STRINGS,1
	0x4304d68c		.L.str.51
.rodata.str1.1	0x4304d6be	0x1a	./out/src/duk/duktape.o	#SHT_PROGBITS,SHF_ALLOC|SHF_MERGE|SHF_STRINGS,1
	0x4304d6be		.L__func__.duk__get_own_propdesc_raw
.rodata.str1.1	0x4304d6d8	0x3d	./out/src/duk/duktape.o	#SHT_PROGBITS,SHF_ALLOC|SHF_MERGE|SHF_STRINGS,1
	0x4304d6d8		.L.str.52
.rodata.str1.1	0x4304d715	0x1a	./out/src/duk/duktape.o	#SHT_PROGBITS,SHF_ALLOC|SHF_MERGE|SHF_STRINGS,1
	0x4304d715		.L.str.53
.rodata.str1.1	0x4304d72f	0x16	./out/src/duk/duktape.o	#SHT_PROGBITS,SHF_ALLOC|SHF_MERGE|SHF_STRINGS,1
	0x4304d72f		.L.str.54
.rodata.str1.1	0x4304d745	0x15	./out/src/duk/duktape.o	#SHT_PROGBITS,SHF_ALLOC|SHF_MERGE|SHF_STRINGS,1
	0x4304d745		.L.str.55
.rodata.str1.1	0x4304d75a	0x21	./out/src/duk/duktape.o	#SHT_PROGBITS,SHF_ALLOC|SHF_MERGE|SHF_STRINGS,1
	0x4304d75a		.L__func__.duk__obtain_arridx_slot_slowpath
.rodata.str1.1	0x4304d77b	0x55	./out/src/duk/duktape.o	#SHT_PROGBITS,SHF_ALLOC|SHF_MERGE|SHF_STRINGS,1
	0x4304d77b		.L.str.56
.rodata.str1.1	0x4304d7d0	0x19	./out/src/duk/duktape.o	#SHT_PROGBITS,SHF_ALLOC|SHF_MERGE|SHF_STRINGS,1
	0x4304d7d0		.L__func__.duk__abandon_array_check
.rodata.str1.1	0x4304d7e9	0x68	./out/src/duk/duktape.o	#SHT_PROGBITS,SHF_ALLOC|SHF_MERGE|SHF_STRINGS,1
	0x4304d7e9		.L.str.57
.rodata.str1.1	0x4304d851	0x18	./out/src/duk/duktape.o	#SHT_PROGBITS,SHF_ALLOC|SHF_MERGE|SHF_STRINGS,1
	0x4304d851		.L__func__.duk__abandon_array_part
.rodata.str1.1	0x4304d869	0x88	./out/src/duk/duktape.o	#SHT_PROGBITS,SHF_ALLOC|SHF_MERGE|SHF_STRINGS,1
	0x4304d869		.L.str.58
.rodata.str1.1	0x4304d8f1	0x1a	./out/src/duk/duktape.o	#SHT_PROGBITS,SHF_ALLOC|SHF_MERGE|SHF_STRINGS,1
	0x4304d8f1		.L__func__.duk_hobject_realloc_props
.rodata.str1.1	0x4304d90b	0xc9	./out/src/duk/duktape.o	#SHT_PROGBITS,SHF_ALLOC|SHF_MERGE|SHF_STRINGS,1
	0x4304d90b		.L.str.59
.rodata.str1.1	0x4304d9d4	0x24	./out/src/duk/duktape.o	#SHT_PROGBITS,SHF_ALLOC|SHF_MERGE|SHF_STRINGS,1
	0x4304d9d4		.L.str.60
.rodata.str1.1	0x4304d9f8	0xf	./out/src/duk/duktape.o	#SHT_PROGBITS,SHF_ALLOC|SHF_MERGE|SHF_STRINGS,1
	0x4304d9f8		.L.str.61
.rodata.str1.1	0x4304da07	0x17	./out/src/duk/duktape.o	#SHT_PROGBITS,SHF_ALLOC|SHF_MERGE|SHF_STRINGS,1
	0x4304da07		.L.str.62
.rodata.str1.1	0x4304da1e	0x5	./out/src/duk/duktape.o	#SHT_PROGBITS,SHF_ALLOC|SHF_MERGE|SHF_STRINGS,1
	0x4304da1e		.L.str.63
.rodata.str1.1	0x4304da23	0x16	./out/src/duk/duktape.o	#SHT_PROGBITS,SHF_ALLOC|SHF_MERGE|SHF_STRINGS,1
	0x4304da23		.L.str.64
.rodata.str1.1	0x4304da39	0x13	./out/src/duk/duktape.o	#SHT_PROGBITS,SHF_ALLOC|SHF_MERGE|SHF_STRINGS,1
	0x4304da39		.L.str.65
.rodata.str1.1	0x4304da4c	0x7	./out/src/duk/duktape.o	#SHT_PROGBITS,SHF_ALLOC|SHF_MERGE|SHF_STRINGS,1
	0x4304da4c		.L.str.66
.rodata.str1.1	0x4304da53	0x6	./out/src/duk/duktape.o	#SHT_PROGBITS,SHF_ALLOC|SHF_MERGE|SHF_STRINGS,1
	0x4304da53		.L.str.67
.rodata.str1.1	0x4304da59	0x7	./out/src/duk/duktape.o	#SHT_PROGBITS,SHF_ALLOC|SHF_MERGE|SHF_STRINGS,1
	0x4304da59		.L.str.68
.rodata.str1.1	0x4304da60	0x5	./out/src/duk/duktape.o	#SHT_PROGBITS,SHF_ALLOC|SHF_MERGE|SHF_STRINGS,1
	0x4304da60		.L.str.69
.rodata.str1.1	0x4304da65	0x6	./out/src/duk/duktape.o	#SHT_PROGBITS,SHF_ALLOC|SHF_MERGE|SHF_STRINGS,1
	0x4304da65		.L.str.70
.rodata.str1.1	0x4304da6b	0xb	./out/src/duk/duktape.o	#SHT_PROGBITS,SHF_ALLOC|SHF_MERGE|SHF_STRINGS,1
	0x4304da6b		.L.str.71
.rodata.str1.1	0x4304da76	0xb	./out/src/duk/duktape.o	#SHT_PROGBITS,SHF_ALLOC|SHF_MERGE|SHF_STRINGS,1
	0x4304da76		.L.str.72
.rodata.str1.1	0x4304da81	0x7	./out/src/duk/duktape.o	#SHT_PROGBITS,SHF_ALLOC|SHF_MERGE|SHF_STRINGS,1
	0x4304da81		.L.str.73
.rodata.str1.1	0x4304da88	0x8	./out/src/duk/duktape.o	#SHT_PROGBITS,SHF_ALLOC|SHF_MERGE|SHF_STRINGS,1
	0x4304da88		.L.str.74
.rodata.str1.1	0x4304da90	0x6	./out/src/duk/duktape.o	#SHT_PROGBITS,SHF_ALLOC|SHF_MERGE|SHF_STRINGS,1
	0x4304da90		.L.str.75
.rodata.str1.1	0x4304da96	0x3	./out/src/duk/duktape.o	#SHT_PROGBITS,SHF_ALLOC|SHF_MERGE|SHF_STRINGS,1
	0x4304da96		.L.str.76
.rodata.str1.1	0x4304da99	0x3	./out/src/duk/duktape.o	#SHT_PROGBITS,SHF_ALLOC|SHF_MERGE|SHF_STRINGS,1
	0x4304da99		.L.str.77
.rodata.str1.1	0x4304da9c	0x8	./out/src/duk/duktape.o	#SHT_PROGBITS,SHF_ALLOC|SHF_MERGE|SHF_STRINGS,1
	0x4304da9c		.L.str.78
.rodata.str1.1	0x4304daa4	0x5	./out/src/duk/duktape.o	#SHT_PROGBITS,SHF_ALLOC|SHF_MERGE|SHF_STRINGS,1
	0x4304daa4		.L.str.79
.rodata.str1.1	0x4304daa9	0x61	./out/src/duk/duktape.o	#SHT_PROGBITS,SHF_ALLOC|SHF_MERGE|SHF_STRINGS,1
	0x4304daa9		.L.str.80
.rodata.str1.1	0x4304db0a	0x2	./out/src/duk/duktape.o	#SHT_PROGBITS,SHF_ALLOC|SHF_MERGE|SHF_STRINGS,1
	0x4304db0a		.L.str.81
.rodata.str1.1	0x4304db0c	0x2	./out/src/duk/duktape.o	#SHT_PROGBITS,SHF_ALLOC|SHF_MERGE|SHF_STRINGS,1
	0x4304db0c		.L.str.82
.rodata.str1.1	0x4304db0e	0x2	./out/src/duk/duktape.o	#SHT_PROGBITS,SHF_ALLOC|SHF_MERGE|SHF_STRINGS,1
	0x4304db0e		.L.str.83
.rodata.str1.1	0x4304db10	0x2	./out/src/duk/duktape.o	#SHT_PROGBITS,SHF_ALLOC|SHF_MERGE|SHF_STRINGS,1
	0x4304db10		.L.str.84
.rodata.str1.1	0x4304db12	0x8	./out/src/duk/duktape.o	#SHT_PROGBITS,SHF_ALLOC|SHF_MERGE|SHF_STRINGS,1
	0x4304db12		.L.str.85
.rodata.str1.1	0x4304db1a	0x9	./out/src/duk/duktape.o	#SHT_PROGBITS,SHF_ALLOC|SHF_MERGE|SHF_STRINGS,1
	0x4304db1a		.L.str.86
.rodata.str1.1	0x4304db23	0x8	./out/src/duk/duktape.o	#SHT_PROGBITS,SHF_ALLOC|SHF_MERGE|SHF_STRINGS,1
	0x4304db23		.L.str.87
.rodata.str1.1	0x4304db2b	0x7	./out/src/duk/duktape.o	#SHT_PROGBITS,SHF_ALLOC|SHF_MERGE|SHF_STRINGS,1
	0x4304db2b		.L.str.88
.rodata.str1.1	0x4304db32	0x7	./out/src/duk/duktape.o	#SHT_PROGBITS,SHF_ALLOC|SHF_MERGE|SHF_STRINGS,1
	0x4304db32		.L.str.89
.rodata.str1.1	0x4304db39	0x6	./out/src/duk/duktape.o	#SHT_PROGBITS,SHF_ALLOC|SHF_MERGE|SHF_STRINGS,1
	0x4304db39		.L.str.90
.rodata.str1.1	0x4304db3f	0x11	./out/src/duk/duktape.o	#SHT_PROGBITS,SHF_ALLOC|SHF_MERGE|SHF_STRINGS,1
	0x4304db3f		.L.str.91
.rodata.str1.1	0x4304db50	0xc	./out/src/duk/duktape.o	#SHT_PROGBITS,SHF_ALLOC|SHF_MERGE|SHF_STRINGS,1
	0x4304db50		.L.str.92
.rodata.str1.1	0x4304db5c	0x16	./out/src/duk/duktape.o	#SHT_PROGBITS,SHF_ALLOC|SHF_MERGE|SHF_STRINGS,1
	0x4304db5c		.L.str.93
.rodata.str1.1	0x4304db72	0x10	./out/src/duk/duktape.o	#SHT_PROGBITS,SHF_ALLOC|SHF_MERGE|SHF_STRINGS,1
	0x4304db72		.L.str.94
.rodata.str1.1	0x4304db82	0x8	./out/src/duk/duktape.o	#SHT_PROGBITS,SHF_ALLOC|SHF_MERGE|SHF_STRINGS,1
	0x4304db82		.L.str.95
.rodata.str1.1	0x4304db8a	0xd	./out/src/duk/duktape.o	#SHT_PROGBITS,SHF_ALLOC|SHF_MERGE|SHF_STRINGS,1
	0x4304db8a		.L.str.96
.rodata.str1.1	0x4304db97	0x12	./out/src/duk/duktape.o	#SHT_PROGBITS,SHF_ALLOC|SHF_MERGE|SHF_STRINGS,1
	0x4304db97		.L.str.97
.rodata.str1.1	0x4304dba9	0x15	./out/src/duk/duktape.o	#SHT_PROGBITS,SHF_ALLOC|SHF_MERGE|SHF_STRINGS,1
	0x4304dba9		.L.str.98
.rodata.str1.1	0x4304dbbe	0x11	./out/src/duk/duktape.o	#SHT_PROGBITS,SHF_ALLOC|SHF_MERGE|SHF_STRINGS,1
	0x4304dbbe		.L.str.99
.rodata.str1.1	0x4304dbcf	0x10	./out/src/duk/duktape.o	#SHT_PROGBITS,SHF_ALLOC|SHF_MERGE|SHF_STRINGS,1
	0x4304dbcf		.L.str.100
.rodata.str1.1	0x4304dbdf	0xf	./out/src/duk/duktape.o	#SHT_PROGBITS,SHF_ALLOC|SHF_MERGE|SHF_STRINGS,1
	0x4304dbdf		.L.str.101
.rodata.str1.1	0x4304dbee	0xe	./out/src/duk/duktape.o	#SHT_PROGBITS,SHF_ALLOC|SHF_MERGE|SHF_STRINGS,1
	0x4304dbee		.L.str.102
.rodata.str1.1	0x4304dbfc	0xe	./out/src/duk/duktape.o	#SHT_PROGBITS,SHF_ALLOC|SHF_MERGE|SHF_STRINGS,1
	0x4304dbfc		.L.str.103
.rodata.str1.1	0x4304dc0a	0x12	./out/src/duk/duktape.o	#SHT_PROGBITS,SHF_ALLOC|SHF_MERGE|SHF_STRINGS,1
	0x4304dc0a		.L.str.104
.rodata.str1.1	0x4304dc1c	0xe	./out/src/duk/duktape.o	#SHT_PROGBITS,SHF_ALLOC|SHF_MERGE|SHF_STRINGS,1
	0x4304dc1c		.L.str.105
.rodata.str1.1	0x4304dc2a	0xe	./out/src/duk/duktape.o	#SHT_PROGBITS,SHF_ALLOC|SHF_MERGE|SHF_STRINGS,1
	0x4304dc2a		.L.str.106
.rodata.str1.1	0x4304dc38	0xe	./out/src/duk/duktape.o	#SHT_PROGBITS,SHF_ALLOC|SHF_MERGE|SHF_STRINGS,1
	0x4304dc38		.L.str.107
.rodata.str1.1	0x4304dc46	0x13	./out/src/duk/duktape.o	#SHT_PROGBITS,SHF_ALLOC|SHF_MERGE|SHF_STRINGS,1
	0x4304dc46		.L.str.108
.rodata.str1.1	0x4304dc59	0x12	./out/src/duk/duktape.o	#SHT_PROGBITS,SHF_ALLOC|SHF_MERGE|SHF_STRINGS,1
	0x4304dc59		.L.str.109
.rodata.str1.1	0x4304dc6b	0x14	./out/src/duk/duktape.o	#SHT_PROGBITS,SHF_ALLOC|SHF_MERGE|SHF_STRINGS,1
	0x4304dc6b		.L.str.110
.rodata.str1.1	0x4304dc7f	0x18	./out/src/duk/duktape.o	#SHT_PROGBITS,SHF_ALLOC|SHF_MERGE|SHF_STRINGS,1
	0x4304dc7f		.L.str.111
.rodata.str1.1	0x4304dc97	0x18	./out/src/duk/duktape.o	#SHT_PROGBITS,SHF_ALLOC|SHF_MERGE|SHF_STRINGS,1
	0x4304dc97		.L.str.112
.rodata.str1.1	0x4304dcaf	0x15	./out/src/duk/duktape.o	#SHT_PROGBITS,SHF_ALLOC|SHF_MERGE|SHF_STRINGS,1
	0x4304dcaf		.L.str.113
.rodata.str1.1	0x4304dcc4	0xd	./out/src/duk/duktape.o	#SHT_PROGBITS,SHF_ALLOC|SHF_MERGE|SHF_STRINGS,1
	0x4304dcc4		.L.str.114
.rodata.str1.1	0x4304dcd1	0x19	./out/src/duk/duktape.o	#SHT_PROGBITS,SHF_ALLOC|SHF_MERGE|SHF_STRINGS,1
	0x4304dcd1		.L.str.115
.rodata.str1.1	0x4304dcea	0x8	./out/src/duk/duktape.o	#SHT_PROGBITS,SHF_ALLOC|SHF_MERGE|SHF_STRINGS,1
	0x4304dcea		.L.str.116
.rodata.str1.1	0x4304dcf2	0xa	./out/src/duk/duktape.o	#SHT_PROGBITS,SHF_ALLOC|SHF_MERGE|SHF_STRINGS,1
	0x4304dcf2		.L.str.117
.rodata.str1.1	0x4304dcfc	0xa	./out/src/duk/duktape.o	#SHT_PROGBITS,SHF_ALLOC|SHF_MERGE|SHF_STRINGS,1
	0x4304dcfc		.L.str.118
.rodata.str1.1	0x4304dd06	0xc	./out/src/duk/duktape.o	#SHT_PROGBITS,SHF_ALLOC|SHF_MERGE|SHF_STRINGS,1
	0x4304dd06		.L.str.119
.rodata.str1.1	0x4304dd12	0xc	./out/src/duk/duktape.o	#SHT_PROGBITS,SHF_ALLOC|SHF_MERGE|SHF_STRINGS,1
	0x4304dd12		.L.str.120
.rodata.str1.1	0x4304dd1e	0x8	./out/src/duk/duktape.o	#SHT_PROGBITS,SHF_ALLOC|SHF_MERGE|SHF_STRINGS,1
	0x4304dd1e		.L.str.121
.rodata.str1.1	0x4304dd26	0xc	./out/src/duk/duktape.o	#SHT_PROGBITS,SHF_ALLOC|SHF_MERGE|SHF_STRINGS,1
	0x4304dd26		.L.str.122
.rodata.str1.1	0x4304dd32	0xa	./out/src/duk/duktape.o	#SHT_PROGBITS,SHF_ALLOC|SHF_MERGE|SHF_STRINGS,1
	0x4304dd32		.L.str.123
.rodata.str1.1	0x4304dd3c	0xa	./out/src/duk/duktape.o	#SHT_PROGBITS,SHF_ALLOC|SHF_MERGE|SHF_STRINGS,1
	0x4304dd3c		.L.str.124
.rodata.str1.1	0x4304dd46	0x16	./out/src/duk/duktape.o	#SHT_PROGBITS,SHF_ALLOC|SHF_MERGE|SHF_STRINGS,1
	0x4304dd46		.L.str.125
.rodata.str1.1	0x4304dd5c	0xa	./out/src/duk/duktape.o	#SHT_PROGBITS,SHF_ALLOC|SHF_MERGE|SHF_STRINGS,1
	0x4304dd5c		.L.str.126
.rodata.str1.1	0x4304dd66	0xf	./out/src/duk/duktape.o	#SHT_PROGBITS,SHF_ALLOC|SHF_MERGE|SHF_STRINGS,1
	0x4304dd66		.L.str.127
.rodata.str1.1	0x4304dd75	0x7	./out/src/duk/duktape.o	#SHT_PROGBITS,SHF_ALLOC|SHF_MERGE|SHF_STRINGS,1
	0x4304dd75		.L.str.128
.rodata.str1.1	0x4304dd7c	0xc	./out/src/duk/duktape.o	#SHT_PROGBITS,SHF_ALLOC|SHF_MERGE|SHF_STRINGS,1
	0x4304dd7c		.L.str.129
.rodata.str1.1	0x4304dd88	0xd	./out/src/duk/duktape.o	#SHT_PROGBITS,SHF_ALLOC|SHF_MERGE|SHF_STRINGS,1
	0x4304dd88		.L.str.130
.rodata.str1.1	0x4304dd95	0xc	./out/src/duk/duktape.o	#SHT_PROGBITS,SHF_ALLOC|SHF_MERGE|SHF_STRINGS,1
	0x4304dd95		.L.str.131
.rodata.str1.1	0x4304dda1	0xf	./out/src/duk/duktape.o	#SHT_PROGBITS,SHF_ALLOC|SHF_MERGE|SHF_STRINGS,1
	0x4304dda1		.L.str.132
.rodata.str1.1	0x4304ddb0	0x11	./out/src/duk/duktape.o	#SHT_PROGBITS,SHF_ALLOC|SHF_MERGE|SHF_STRINGS,1
	0x4304ddb0		.L.str.134
.rodata.str1.1	0x4304ddc1	0xa	./out/src/duk/duktape.o	#SHT_PROGBITS,SHF_ALLOC|SHF_MERGE|SHF_STRINGS,1
	0x4304ddc1		.L.str.135
.rodata.str1.1	0x4304ddcb	0xd	./out/src/duk/duktape.o	#SHT_PROGBITS,SHF_ALLOC|SHF_MERGE|SHF_STRINGS,1
	0x4304ddcb		.L.str.136
.rodata.str1.1	0x4304ddd8	0xc	./out/src/duk/duktape.o	#SHT_PROGBITS,SHF_ALLOC|SHF_MERGE|SHF_STRINGS,1
	0x4304ddd8		.L.str.137
.rodata.str1.1	0x4304dde4	0xe	./out/src/duk/duktape.o	#SHT_PROGBITS,SHF_ALLOC|SHF_MERGE|SHF_STRINGS,1
	0x4304dde4		.L.str.138
.rodata.str1.1	0x4304ddf2	0xe	./out/src/duk/duktape.o	#SHT_PROGBITS,SHF_ALLOC|SHF_MERGE|SHF_STRINGS,1
	0x4304ddf2		.L.str.139
.rodata.str1.1	0x4304de00	0xe	./out/src/duk/duktape.o	#SHT_PROGBITS,SHF_ALLOC|SHF_MERGE|SHF_STRINGS,1
	0x4304de00		.L.str.140
.rodata.str1.1	0x4304de0e	0x16	./out/src/duk/duktape.o	#SHT_PROGBITS,SHF_ALLOC|SHF_MERGE|SHF_STRINGS,1
	0x4304de0e		.L.str.141
.rodata.str1.1	0x4304de24	0x1c	./out/src/duk/duktape.o	#SHT_PROGBITS,SHF_ALLOC|SHF_MERGE|SHF_STRINGS,1
	0x4304de24		.L.str.142
.rodata.str1.1	0x4304de40	0x19	./out/src/duk/duktape.o	#SHT_PROGBITS,SHF_ALLOC|SHF_MERGE|SHF_STRINGS,1
	0x4304de40		.L.str.143
.rodata.str1.1	0x4304de59	0x16	./out/src/duk/duktape.o	#SHT_PROGBITS,SHF_ALLOC|SHF_MERGE|SHF_STRINGS,1
	0x4304de59		.L.str.144
.rodata.str1.1	0x4304de6f	0x14	./out/src/duk/duktape.o	#SHT_PROGBITS,SHF_ALLOC|SHF_MERGE|SHF_STRINGS,1
	0x4304de6f		.L.str.145
.rodata.str1.1	0x4304de83	0x14	./out/src/duk/duktape.o	#SHT_PROGBITS,SHF_ALLOC|SHF_MERGE|SHF_STRINGS,1
	0x4304de83		.L.str.146
.rodata.str1.1	0x4304de97	0x1d	./out/src/duk/duktape.o	#SHT_PROGBITS,SHF_ALLOC|SHF_MERGE|SHF_STRINGS,1
	0x4304de97		.L.str.147
.rodata.str1.1	0x4304deb4	0xb	./out/src/duk/duktape.o	#SHT_PROGBITS,SHF_ALLOC|SHF_MERGE|SHF_STRINGS,1
	0x4304deb4		.L.str.148
.rodata.str1.1	0x4304debf	0x11	./out/src/duk/duktape.o	#SHT_PROGBITS,SHF_ALLOC|SHF_MERGE|SHF_STRINGS,1
	0x4304debf		.L.str.149
.rodata.str1.1	0x4304ded0	0xf	./out/src/duk/duktape.o	#SHT_PROGBITS,SHF_ALLOC|SHF_MERGE|SHF_STRINGS,1
	0x4304ded0		.L.str.150
.rodata.str1.1	0x4304dedf	0xc	./out/src/duk/duktape.o	#SHT_PROGBITS,SHF_ALLOC|SHF_MERGE|SHF_STRINGS,1
	0x4304dedf		.L.str.151
.rodata.str1.1	0x4304deeb	0xd	./out/src/duk/duktape.o	#SHT_PROGBITS,SHF_ALLOC|SHF_MERGE|SHF_STRINGS,1
	0x4304deeb		.L.str.152
.rodata.str1.1	0x4304def8	0xd	./out/src/duk/duktape.o	#SHT_PROGBITS,SHF_ALLOC|SHF_MERGE|SHF_STRINGS,1
	0x4304def8		.L.str.153
.rodata.str1.1	0x4304df05	0xf	./out/src/duk/duktape.o	#SHT_PROGBITS,SHF_ALLOC|SHF_MERGE|SHF_STRINGS,1
	0x4304df05		.L.str.154
.rodata.str1.1	0x4304df14	0x2	./out/src/duk/duktape.o	#SHT_PROGBITS,SHF_ALLOC|SHF_MERGE|SHF_STRINGS,1
	0x4304df14		.L.str.155
.rodata.str1.1	0x4304df16	0x2	./out/src/duk/duktape.o	#SHT_PROGBITS,SHF_ALLOC|SHF_MERGE|SHF_STRINGS,1
	0x4304df16		.L.str.156
.rodata.str1.1	0x4304df18	0x4	./out/src/duk/duktape.o	#SHT_PROGBITS,SHF_ALLOC|SHF_MERGE|SHF_STRINGS,1
	0x4304df18		.L.str.157
.rodata.str1.1	0x4304df1c	0x75	./out/src/duk/duktape.o	#SHT_PROGBITS,SHF_ALLOC|SHF_MERGE|SHF_STRINGS,1
	0x4304df1c		.L.str.158
.rodata.str1.1	0x4304df91	0x17	./out/src/duk/duktape.o	#SHT_PROGBITS,SHF_ALLOC|SHF_MERGE|SHF_STRINGS,1
	0x4304df91		.L.str.159
.rodata.str1.1	0x4304dfa8	0x16	./out/src/duk/duktape.o	#SHT_PROGBITS,SHF_ALLOC|SHF_MERGE|SHF_STRINGS,1
	0x4304dfa8		.L.str.160
.rodata.str1.1	0x4304dfbe	0x11	./out/src/duk/duktape.o	#SHT_PROGBITS,SHF_ALLOC|SHF_MERGE|SHF_STRINGS,1
	0x4304dfbe		.L.str.161
.rodata.str1.1	0x4304dfcf	0x3	./out/src/duk/duktape.o	#SHT_PROGBITS,SHF_ALLOC|SHF_MERGE|SHF_STRINGS,1
	0x4304dfcf		.L.str.162
.rodata.str1.1	0x4304dfd2	0x14	./out/src/duk/duktape.o	#SHT_PROGBITS,SHF_ALLOC|SHF_MERGE|SHF_STRINGS,1
	0x4304dfd2		.L.str.163
.rodata.str1.1	0x4304dfe6	0x14	./out/src/duk/duktape.o	#SHT_PROGBITS,SHF_ALLOC|SHF_MERGE|SHF_STRINGS,1
	0x4304dfe6		.L.str.164
.rodata.str1.1	0x4304dffa	0x11	./out/src/duk/duktape.o	#SHT_PROGBITS,SHF_ALLOC|SHF_MERGE|SHF_STRINGS,1
	0x4304dffa		.L.str.165
.rodata.str1.1	0x4304e00b	0x6	./out/src/duk/duktape.o	#SHT_PROGBITS,SHF_ALLOC|SHF_MERGE|SHF_STRINGS,1
	0x4304e00b		.L.str.166
.rodata.str1.1	0x4304e011	0x6	./out/src/duk/duktape.o	#SHT_PROGBITS,SHF_ALLOC|SHF_MERGE|SHF_STRINGS,1
	0x4304e011		.L.str.167
.rodata.str1.1	0x4304e017	0x5	./out/src/duk/duktape.o	#SHT_PROGBITS,SHF_ALLOC|SHF_MERGE|SHF_STRINGS,1
	0x4304e017		.L.str.168
.rodata.str1.1	0x4304e01c	0x8	./out/src/duk/duktape.o	#SHT_PROGBITS,SHF_ALLOC|SHF_MERGE|SHF_STRINGS,1
	0x4304e01c		.L.str.169
.rodata.str1.1	0x4304e024	0x6	./out/src/duk/duktape.o	#SHT_PROGBITS,SHF_ALLOC|SHF_MERGE|SHF_STRINGS,1
	0x4304e024		.L.str.170
.rodata.str1.1	0x4304e02a	0x7	./out/src/duk/duktape.o	#SHT_PROGBITS,SHF_ALLOC|SHF_MERGE|SHF_STRINGS,1
	0x4304e02a		.L.str.171
.rodata.str1.1	0x4304e031	0x7	./out/src/duk/duktape.o	#SHT_PROGBITS,SHF_ALLOC|SHF_MERGE|SHF_STRINGS,1
	0x4304e031		.L.str.172
.rodata.str1.1	0x4304e038	0x8	./out/src/duk/duktape.o	#SHT_PROGBITS,SHF_ALLOC|SHF_MERGE|SHF_STRINGS,1
	0x4304e038		.L.str.173
.rodata.str1.1	0x4304e040	0x7	./out/src/duk/duktape.o	#SHT_PROGBITS,SHF_ALLOC|SHF_MERGE|SHF_STRINGS,1
	0x4304e040		.L.str.174
.rodata.str1.1	0x4304e047	0x7	./out/src/duk/duktape.o	#SHT_PROGBITS,SHF_ALLOC|SHF_MERGE|SHF_STRINGS,1
	0x4304e047		.L.str.175
.rodata.str1.1	0x4304e04e	0x8	./out/src/duk/duktape.o	#SHT_PROGBITS,SHF_ALLOC|SHF_MERGE|SHF_STRINGS,1
	0x4304e04e		.L.str.176
.rodata.str1.1	0x4304e056	0x7	./out/src/duk/duktape.o	#SHT_PROGBITS,SHF_ALLOC|SHF_MERGE|SHF_STRINGS,1
	0x4304e056		.L.str.177
.rodata.str1.1	0x4304e05d	0x5	./out/src/duk/duktape.o	#SHT_PROGBITS,SHF_ALLOC|SHF_MERGE|SHF_STRINGS,1
	0x4304e05d		.L.str.178
.rodata.str1.1	0x4304e062	0x5	./out/src/duk/duktape.o	#SHT_PROGBITS,SHF_ALLOC|SHF_MERGE|SHF_STRINGS,1
	0x4304e062		.L.str.179
.rodata.str1.1	0x4304e067	0x4	./out/src/duk/duktape.o	#SHT_PROGBITS,SHF_ALLOC|SHF_MERGE|SHF_STRINGS,1
	0x4304e067		.L.str.180
.rodata.str1.1	0x4304e06b	0x4	./out/src/duk/duktape.o	#SHT_PROGBITS,SHF_ALLOC|SHF_MERGE|SHF_STRINGS,1
	0x4304e06b		.L.str.181
.rodata.str1.1	0x4304e06f	0x6	./out/src/duk/duktape.o	#SHT_PROGBITS,SHF_ALLOC|SHF_MERGE|SHF_STRINGS,1
	0x4304e06f		.L.str.182
.rodata.str1.1	0x4304e075	0x6	./out/src/duk/duktape.o	#SHT_PROGBITS,SHF_ALLOC|SHF_MERGE|SHF_STRINGS,1
	0x4304e075		.L.str.183
.rodata.str1.1	0x4304e07b	0x6	./out/src/duk/duktape.o	#SHT_PROGBITS,SHF_ALLOC|SHF_MERGE|SHF_STRINGS,1
	0x4304e07b		.L.str.184
.rodata.str1.1	0x4304e081	0x6	./out/src/duk/duktape.o	#SHT_PROGBITS,SHF_ALLOC|SHF_MERGE|SHF_STRINGS,1
	0x4304e081		.L.str.185
.rodata.str1.1	0x4304e087	0x7	./out/src/duk/duktape.o	#SHT_PROGBITS,SHF_ALLOC|SHF_MERGE|SHF_STRINGS,1
	0x4304e087		.L.str.186
.rodata.str1.1	0x4304e08e	0x7	./out/src/duk/duktape.o	#SHT_PROGBITS,SHF_ALLOC|SHF_MERGE|SHF_STRINGS,1
	0x4304e08e		.L.str.187
.rodata.str1.1	0x4304e095	0x7	./out/src/duk/duktape.o	#SHT_PROGBITS,SHF_ALLOC|SHF_MERGE|SHF_STRINGS,1
	0x4304e095		.L.str.188
.rodata.str1.1	0x4304e09c	0x7	./out/src/duk/duktape.o	#SHT_PROGBITS,SHF_ALLOC|SHF_MERGE|SHF_STRINGS,1
	0x4304e09c		.L.str.189
.rodata.str1.1	0x4304e0a3	0x7	./out/src/duk/duktape.o	#SHT_PROGBITS,SHF_ALLOC|SHF_MERGE|SHF_STRINGS,1
	0x4304e0a3		.L.str.190
.rodata.str1.1	0x4304e0aa	0x7	./out/src/duk/duktape.o	#SHT_PROGBITS,SHF_ALLOC|SHF_MERGE|SHF_STRINGS,1
	0x4304e0aa		.L.str.191
.rodata.str1.1	0x4304e0b1	0x7	./out/src/duk/duktape.o	#SHT_PROGBITS,SHF_ALLOC|SHF_MERGE|SHF_STRINGS,1
	0x4304e0b1		.L.str.192
.rodata.str1.1	0x4304e0b8	0x7	./out/src/duk/duktape.o	#SHT_PROGBITS,SHF_ALLOC|SHF_MERGE|SHF_STRINGS,1
	0x4304e0b8		.L.str.193
.rodata.str1.1	0x4304e0bf	0x8	./out/src/duk/duktape.o	#SHT_PROGBITS,SHF_ALLOC|SHF_MERGE|SHF_STRINGS,1
	0x4304e0bf		.L.str.194
.rodata.str1.1	0x4304e0c7	0x8	./out/src/duk/duktape.o	#SHT_PROGBITS,SHF_ALLOC|SHF_MERGE|SHF_STRINGS,1
	0x4304e0c7		.L.str.195
.rodata.str1.1	0x4304e0cf	0x8	./out/src/duk/duktape.o	#SHT_PROGBITS,SHF_ALLOC|SHF_MERGE|SHF_STRINGS,1
	0x4304e0cf		.L.str.196
.rodata.str1.1	0x4304e0d7	0x8	./out/src/duk/duktape.o	#SHT_PROGBITS,SHF_ALLOC|SHF_MERGE|SHF_STRINGS,1
	0x4304e0d7		.L.str.197
.rodata.str1.1	0x4304e0df	0x6	./out/src/duk/duktape.o	#SHT_PROGBITS,SHF_ALLOC|SHF_MERGE|SHF_STRINGS,1
	0x4304e0df		.L.str.198
.rodata.str1.1	0x4304e0e5	0x6	./out/src/duk/duktape.o	#SHT_PROGBITS,SHF_ALLOC|SHF_MERGE|SHF_STRINGS,1
	0x4304e0e5		.L.str.199
.rodata.str1.1	0x4304e0eb	0x6	./out/src/duk/duktape.o	#SHT_PROGBITS,SHF_ALLOC|SHF_MERGE|SHF_STRINGS,1
	0x4304e0eb		.L.str.200
.rodata.str1.1	0x4304e0f1	0x6	./out/src/duk/duktape.o	#SHT_PROGBITS,SHF_ALLOC|SHF_MERGE|SHF_STRINGS,1
	0x4304e0f1		.L.str.201
.rodata.str1.1	0x4304e0f7	0x6	./out/src/duk/duktape.o	#SHT_PROGBITS,SHF_ALLOC|SHF_MERGE|SHF_STRINGS,1
	0x4304e0f7		.L.str.202
.rodata.str1.1	0x4304e0fd	0x6	./out/src/duk/duktape.o	#SHT_PROGBITS,SHF_ALLOC|SHF_MERGE|SHF_STRINGS,1
	0x4304e0fd		.L.str.203
.rodata.str1.1	0x4304e103	0x6	./out/src/duk/duktape.o	#SHT_PROGBITS,SHF_ALLOC|SHF_MERGE|SHF_STRINGS,1
	0x4304e103		.L.str.204
.rodata.str1.1	0x4304e109	0x6	./out/src/duk/duktape.o	#SHT_PROGBITS,SHF_ALLOC|SHF_MERGE|SHF_STRINGS,1
	0x4304e109		.L.str.205
.rodata.str1.1	0x4304e10f	0x6	./out/src/duk/duktape.o	#SHT_PROGBITS,SHF_ALLOC|SHF_MERGE|SHF_STRINGS,1
	0x4304e10f		.L.str.206
.rodata.str1.1	0x4304e115	0x6	./out/src/duk/duktape.o	#SHT_PROGBITS,SHF_ALLOC|SHF_MERGE|SHF_STRINGS,1
	0x4304e115		.L.str.207
.rodata.str1.1	0x4304e11b	0x6	./out/src/duk/duktape.o	#SHT_PROGBITS,SHF_ALLOC|SHF_MERGE|SHF_STRINGS,1
	0x4304e11b		.L.str.208
.rodata.str1.1	0x4304e121	0x6	./out/src/duk/duktape.o	#SHT_PROGBITS,SHF_ALLOC|SHF_MERGE|SHF_STRINGS,1
	0x4304e121		.L.str.209
.rodata.str1.1	0x4304e127	0x6	./out/src/duk/duktape.o	#SHT_PROGBITS,SHF_ALLOC|SHF_MERGE|SHF_STRINGS,1
	0x4304e127		.L.str.210
.rodata.str1.1	0x4304e12d	0x6	./out/src/duk/duktape.o	#SHT_PROGBITS,SHF_ALLOC|SHF_MERGE|SHF_STRINGS,1
	0x4304e12d		.L.str.211
.rodata.str1.1	0x4304e133	0x6	./out/src/duk/duktape.o	#SHT_PROGBITS,SHF_ALLOC|SHF_MERGE|SHF_STRINGS,1
	0x4304e133		.L.str.212
.rodata.str1.1	0x4304e139	0x6	./out/src/duk/duktape.o	#SHT_PROGBITS,SHF_ALLOC|SHF_MERGE|SHF_STRINGS,1
	0x4304e139		.L.str.213
.rodata.str1.1	0x4304e13f	0x9	./out/src/duk/duktape.o	#SHT_PROGBITS,SHF_ALLOC|SHF_MERGE|SHF_STRINGS,1
	0x4304e13f		.L.str.214
.rodata.str1.1	0x4304e148	0x9	./out/src/duk/duktape.o	#SHT_PROGBITS,SHF_ALLOC|SHF_MERGE|SHF_STRINGS,1
	0x4304e148		.L.str.215
.rodata.str1.1	0x4304e151	0xa	./out/src/duk/duktape.o	#SHT_PROGBITS,SHF_ALLOC|SHF_MERGE|SHF_STRINGS,1
	0x4304e151		.L.str.216
.rodata.str1.1	0x4304e15b	0xa	./out/src/duk/duktape.o	#SHT_PROGBITS,SHF_ALLOC|SHF_MERGE|SHF_STRINGS,1
	0x4304e15b		.L.str.217
.rodata.str1.1	0x4304e165	0x7	./out/src/duk/duktape.o	#SHT_PROGBITS,SHF_ALLOC|SHF_MERGE|SHF_STRINGS,1
	0x4304e165		.L.str.218
.rodata.str1.1	0x4304e16c	0x7	./out/src/duk/duktape.o	#SHT_PROGBITS,SHF_ALLOC|SHF_MERGE|SHF_STRINGS,1
	0x4304e16c		.L.str.219
.rodata.str1.1	0x4304e173	0x7	./out/src/duk/duktape.o	#SHT_PROGBITS,SHF_ALLOC|SHF_MERGE|SHF_STRINGS,1
	0x4304e173		.L.str.220
.rodata.str1.1	0x4304e17a	0x7	./out/src/duk/duktape.o	#SHT_PROGBITS,SHF_ALLOC|SHF_MERGE|SHF_STRINGS,1
	0x4304e17a		.L.str.221
.rodata.str1.1	0x4304e181	0x7	./out/src/duk/duktape.o	#SHT_PROGBITS,SHF_ALLOC|SHF_MERGE|SHF_STRINGS,1
	0x4304e181		.L.str.222
.rodata.str1.1	0x4304e188	0x7	./out/src/duk/duktape.o	#SHT_PROGBITS,SHF_ALLOC|SHF_MERGE|SHF_STRINGS,1
	0x4304e188		.L.str.223
.rodata.str1.1	0x4304e18f	0x7	./out/src/duk/duktape.o	#SHT_PROGBITS,SHF_ALLOC|SHF_MERGE|SHF_STRINGS,1
	0x4304e18f		.L.str.224
.rodata.str1.1	0x4304e196	0x7	./out/src/duk/duktape.o	#SHT_PROGBITS,SHF_ALLOC|SHF_MERGE|SHF_STRINGS,1
	0x4304e196		.L.str.225
.rodata.str1.1	0x4304e19d	0x7	./out/src/duk/duktape.o	#SHT_PROGBITS,SHF_ALLOC|SHF_MERGE|SHF_STRINGS,1
	0x4304e19d		.L.str.226
.rodata.str1.1	0x4304e1a4	0x7	./out/src/duk/duktape.o	#SHT_PROGBITS,SHF_ALLOC|SHF_MERGE|SHF_STRINGS,1
	0x4304e1a4		.L.str.227
.rodata.str1.1	0x4304e1ab	0x7	./out/src/duk/duktape.o	#SHT_PROGBITS,SHF_ALLOC|SHF_MERGE|SHF_STRINGS,1
	0x4304e1ab		.L.str.228
.rodata.str1.1	0x4304e1b2	0x7	./out/src/duk/duktape.o	#SHT_PROGBITS,SHF_ALLOC|SHF_MERGE|SHF_STRINGS,1
	0x4304e1b2		.L.str.229
.rodata.str1.1	0x4304e1b9	0x7	./out/src/duk/duktape.o	#SHT_PROGBITS,SHF_ALLOC|SHF_MERGE|SHF_STRINGS,1
	0x4304e1b9		.L.str.230
.rodata.str1.1	0x4304e1c0	0x7	./out/src/duk/duktape.o	#SHT_PROGBITS,SHF_ALLOC|SHF_MERGE|SHF_STRINGS,1
	0x4304e1c0		.L.str.231
.rodata.str1.1	0x4304e1c7	0x7	./out/src/duk/duktape.o	#SHT_PROGBITS,SHF_ALLOC|SHF_MERGE|SHF_STRINGS,1
	0x4304e1c7		.L.str.232
.rodata.str1.1	0x4304e1ce	0x7	./out/src/duk/duktape.o	#SHT_PROGBITS,SHF_ALLOC|SHF_MERGE|SHF_STRINGS,1
	0x4304e1ce		.L.str.233
.rodata.str1.1	0x4304e1d5	0x7	./out/src/duk/duktape.o	#SHT_PROGBITS,SHF_ALLOC|SHF_MERGE|SHF_STRINGS,1
	0x4304e1d5		.L.str.234
.rodata.str1.1	0x4304e1dc	0x7	./out/src/duk/duktape.o	#SHT_PROGBITS,SHF_ALLOC|SHF_MERGE|SHF_STRINGS,1
	0x4304e1dc		.L.str.235
.rodata.str1.1	0x4304e1e3	0x7	./out/src/duk/duktape.o	#SHT_PROGBITS,SHF_ALLOC|SHF_MERGE|SHF_STRINGS,1
	0x4304e1e3		.L.str.236
.rodata.str1.1	0x4304e1ea	0x7	./out/src/duk/duktape.o	#SHT_PROGBITS,SHF_ALLOC|SHF_MERGE|SHF_STRINGS,1
	0x4304e1ea		.L.str.237
.rodata.str1.1	0x4304e1f1	0x7	./out/src/duk/duktape.o	#SHT_PROGBITS,SHF_ALLOC|SHF_MERGE|SHF_STRINGS,1
	0x4304e1f1		.L.str.238
.rodata.str1.1	0x4304e1f8	0x7	./out/src/duk/duktape.o	#SHT_PROGBITS,SHF_ALLOC|SHF_MERGE|SHF_STRINGS,1
	0x4304e1f8		.L.str.239
.rodata.str1.1	0x4304e1ff	0x7	./out/src/duk/duktape.o	#SHT_PROGBITS,SHF_ALLOC|SHF_MERGE|SHF_STRINGS,1
	0x4304e1ff		.L.str.240
.rodata.str1.1	0x4304e206	0x7	./out/src/duk/duktape.o	#SHT_PROGBITS,SHF_ALLOC|SHF_MERGE|SHF_STRINGS,1
	0x4304e206		.L.str.241
.rodata.str1.1	0x4304e20d	0x8	./out/src/duk/duktape.o	#SHT_PROGBITS,SHF_ALLOC|SHF_MERGE|SHF_STRINGS,1
	0x4304e20d		.L.str.242
.rodata.str1.1	0x4304e215	0x8	./out/src/duk/duktape.o	#SHT_PROGBITS,SHF_ALLOC|SHF_MERGE|SHF_STRINGS,1
	0x4304e215		.L.str.243
.rodata.str1.1	0x4304e21d	0x8	./out/src/duk/duktape.o	#SHT_PROGBITS,SHF_ALLOC|SHF_MERGE|SHF_STRINGS,1
	0x4304e21d		.L.str.244
.rodata.str1.1	0x4304e225	0x8	./out/src/duk/duktape.o	#SHT_PROGBITS,SHF_ALLOC|SHF_MERGE|SHF_STRINGS,1
	0x4304e225		.L.str.245
.rodata.str1.1	0x4304e22d	0x7	./out/src/duk/duktape.o	#SHT_PROGBITS,SHF_ALLOC|SHF_MERGE|SHF_STRINGS,1
	0x4304e22d		.L.str.246
.rodata.str1.1	0x4304e234	0x7	./out/src/duk/duktape.o	#SHT_PROGBITS,SHF_ALLOC|SHF_MERGE|SHF_STRINGS,1
	0x4304e234		.L.str.247
.rodata.str1.1	0x4304e23b	0x7	./out/src/duk/duktape.o	#SHT_PROGBITS,SHF_ALLOC|SHF_MERGE|SHF_STRINGS,1
	0x4304e23b		.L.str.248
.rodata.str1.1	0x4304e242	0x7	./out/src/duk/duktape.o	#SHT_PROGBITS,SHF_ALLOC|SHF_MERGE|SHF_STRINGS,1
	0x4304e242		.L.str.249
.rodata.str1.1	0x4304e249	0x8	./out/src/duk/duktape.o	#SHT_PROGBITS,SHF_ALLOC|SHF_MERGE|SHF_STRINGS,1
	0x4304e249		.L.str.250
.rodata.str1.1	0x4304e251	0x8	./out/src/duk/duktape.o	#SHT_PROGBITS,SHF_ALLOC|SHF_MERGE|SHF_STRINGS,1
	0x4304e251		.L.str.251
.rodata.str1.1	0x4304e259	0x8	./out/src/duk/duktape.o	#SHT_PROGBITS,SHF_ALLOC|SHF_MERGE|SHF_STRINGS,1
	0x4304e259		.L.str.252
.rodata.str1.1	0x4304e261	0x8	./out/src/duk/duktape.o	#SHT_PROGBITS,SHF_ALLOC|SHF_MERGE|SHF_STRINGS,1
	0x4304e261		.L.str.253
.rodata.str1.1	0x4304e269	0x8	./out/src/duk/duktape.o	#SHT_PROGBITS,SHF_ALLOC|SHF_MERGE|SHF_STRINGS,1
	0x4304e269		.L.str.254
.rodata.str1.1	0x4304e271	0x8	./out/src/duk/duktape.o	#SHT_PROGBITS,SHF_ALLOC|SHF_MERGE|SHF_STRINGS,1
	0x4304e271		.L.str.255
.rodata.str1.1	0x4304e279	0x8	./out/src/duk/duktape.o	#SHT_PROGBITS,SHF_ALLOC|SHF_MERGE|SHF_STRINGS,1
	0x4304e279		.L.str.256
.rodata.str1.1	0x4304e281	0x8	./out/src/duk/duktape.o	#SHT_PROGBITS,SHF_ALLOC|SHF_MERGE|SHF_STRINGS,1
	0x4304e281		.L.str.257
.rodata.str1.1	0x4304e289	0x8	./out/src/duk/duktape.o	#SHT_PROGBITS,SHF_ALLOC|SHF_MERGE|SHF_STRINGS,1
	0x4304e289		.L.str.258
.rodata.str1.1	0x4304e291	0x8	./out/src/duk/duktape.o	#SHT_PROGBITS,SHF_ALLOC|SHF_MERGE|SHF_STRINGS,1
	0x4304e291		.L.str.259
.rodata.str1.1	0x4304e299	0x8	./out/src/duk/duktape.o	#SHT_PROGBITS,SHF_ALLOC|SHF_MERGE|SHF_STRINGS,1
	0x4304e299		.L.str.260
.rodata.str1.1	0x4304e2a1	0x8	./out/src/duk/duktape.o	#SHT_PROGBITS,SHF_ALLOC|SHF_MERGE|SHF_STRINGS,1
	0x4304e2a1		.L.str.261
.rodata.str1.1	0x4304e2a9	0x8	./out/src/duk/duktape.o	#SHT_PROGBITS,SHF_ALLOC|SHF_MERGE|SHF_STRINGS,1
	0x4304e2a9		.L.str.262
.rodata.str1.1	0x4304e2b1	0x8	./out/src/duk/duktape.o	#SHT_PROGBITS,SHF_ALLOC|SHF_MERGE|SHF_STRINGS,1
	0x4304e2b1		.L.str.263
.rodata.str1.1	0x4304e2b9	0x8	./out/src/duk/duktape.o	#SHT_PROGBITS,SHF_ALLOC|SHF_MERGE|SHF_STRINGS,1
	0x4304e2b9		.L.str.264
.rodata.str1.1	0x4304e2c1	0x8	./out/src/duk/duktape.o	#SHT_PROGBITS,SHF_ALLOC|SHF_MERGE|SHF_STRINGS,1
	0x4304e2c1		.L.str.265
.rodata.str1.1	0x4304e2c9	0xa	./out/src/duk/duktape.o	#SHT_PROGBITS,SHF_ALLOC|SHF_MERGE|SHF_STRINGS,1
	0x4304e2c9		.L.str.266
.rodata.str1.1	0x4304e2d3	0xa	./out/src/duk/duktape.o	#SHT_PROGBITS,SHF_ALLOC|SHF_MERGE|SHF_STRINGS,1
	0x4304e2d3		.L.str.267
.rodata.str1.1	0x4304e2dd	0xa	./out/src/duk/duktape.o	#SHT_PROGBITS,SHF_ALLOC|SHF_MERGE|SHF_STRINGS,1
	0x4304e2dd		.L.str.268
.rodata.str1.1	0x4304e2e7	0xa	./out/src/duk/duktape.o	#SHT_PROGBITS,SHF_ALLOC|SHF_MERGE|SHF_STRINGS,1
	0x4304e2e7		.L.str.269
.rodata.str1.1	0x4304e2f1	0x6	./out/src/duk/duktape.o	#SHT_PROGBITS,SHF_ALLOC|SHF_MERGE|SHF_STRINGS,1
	0x4304e2f1		.L.str.270
.rodata.str1.1	0x4304e2f7	0x6	./out/src/duk/duktape.o	#SHT_PROGBITS,SHF_ALLOC|SHF_MERGE|SHF_STRINGS,1
	0x4304e2f7		.L.str.271
.rodata.str1.1	0x4304e2fd	0x6	./out/src/duk/duktape.o	#SHT_PROGBITS,SHF_ALLOC|SHF_MERGE|SHF_STRINGS,1
	0x4304e2fd		.L.str.272
.rodata.str1.1	0x4304e303	0x6	./out/src/duk/duktape.o	#SHT_PROGBITS,SHF_ALLOC|SHF_MERGE|SHF_STRINGS,1
	0x4304e303		.L.str.273
.rodata.str1.1	0x4304e309	0xb	./out/src/duk/duktape.o	#SHT_PROGBITS,SHF_ALLOC|SHF_MERGE|SHF_STRINGS,1
	0x4304e309		.L.str.274
.rodata.str1.1	0x4304e314	0xb	./out/src/duk/duktape.o	#SHT_PROGBITS,SHF_ALLOC|SHF_MERGE|SHF_STRINGS,1
	0x4304e314		.L.str.275
.rodata.str1.1	0x4304e31f	0xb	./out/src/duk/duktape.o	#SHT_PROGBITS,SHF_ALLOC|SHF_MERGE|SHF_STRINGS,1
	0x4304e31f		.L.str.276
.rodata.str1.1	0x4304e32a	0xb	./out/src/duk/duktape.o	#SHT_PROGBITS,SHF_ALLOC|SHF_MERGE|SHF_STRINGS,1
	0x4304e32a		.L.str.277
.rodata.str1.1	0x4304e335	0xb	./out/src/duk/duktape.o	#SHT_PROGBITS,SHF_ALLOC|SHF_MERGE|SHF_STRINGS,1
	0x4304e335		.L.str.278
.rodata.str1.1	0x4304e340	0xb	./out/src/duk/duktape.o	#SHT_PROGBITS,SHF_ALLOC|SHF_MERGE|SHF_STRINGS,1
	0x4304e340		.L.str.279
.rodata.str1.1	0x4304e34b	0xb	./out/src/duk/duktape.o	#SHT_PROGBITS,SHF_ALLOC|SHF_MERGE|SHF_STRINGS,1
	0x4304e34b		.L.str.280
.rodata.str1.1	0x4304e356	0xb	./out/src/duk/duktape.o	#SHT_PROGBITS,SHF_ALLOC|SHF_MERGE|SHF_STRINGS,1
	0x4304e356		.L.str.281
.rodata.str1.1	0x4304e361	0xb	./out/src/duk/duktape.o	#SHT_PROGBITS,SHF_ALLOC|SHF_MERGE|SHF_STRINGS,1
	0x4304e361		.L.str.282
.rodata.str1.1	0x4304e36c	0xb	./out/src/duk/duktape.o	#SHT_PROGBITS,SHF_ALLOC|SHF_MERGE|SHF_STRINGS,1
	0x4304e36c		.L.str.283
.rodata.str1.1	0x4304e377	0xb	./out/src/duk/duktape.o	#SHT_PROGBITS,SHF_ALLOC|SHF_MERGE|SHF_STRINGS,1
	0x4304e377		.L.str.284
.rodata.str1.1	0x4304e382	0xb	./out/src/duk/duktape.o	#SHT_PROGBITS,SHF_ALLOC|SHF_MERGE|SHF_STRINGS,1
	0x4304e382		.L.str.285
.rodata.str1.1	0x4304e38d	0x8	./out/src/duk/duktape.o	#SHT_PROGBITS,SHF_ALLOC|SHF_MERGE|SHF_STRINGS,1
	0x4304e38d		.L.str.286
.rodata.str1.1	0x4304e395	0x8	./out/src/duk/duktape.o	#SHT_PROGBITS,SHF_ALLOC|SHF_MERGE|SHF_STRINGS,1
	0x4304e395		.L.str.287
.rodata.str1.1	0x4304e39d	0x9	./out/src/duk/duktape.o	#SHT_PROGBITS,SHF_ALLOC|SHF_MERGE|SHF_STRINGS,1
	0x4304e39d		.L.str.288
.rodata.str1.1	0x4304e3a6	0x9	./out/src/duk/duktape.o	#SHT_PROGBITS,SHF_ALLOC|SHF_MERGE|SHF_STRINGS,1
	0x4304e3a6		.L.str.289
.rodata.str1.1	0x4304e3af	0x8	./out/src/duk/duktape.o	#SHT_PROGBITS,SHF_ALLOC|SHF_MERGE|SHF_STRINGS,1
	0x4304e3af		.L.str.290
.rodata.str1.1	0x4304e3b7	0x8	./out/src/duk/duktape.o	#SHT_PROGBITS,SHF_ALLOC|SHF_MERGE|SHF_STRINGS,1
	0x4304e3b7		.L.str.291
.rodata.str1.1	0x4304e3bf	0x9	./out/src/duk/duktape.o	#SHT_PROGBITS,SHF_ALLOC|SHF_MERGE|SHF_STRINGS,1
	0x4304e3bf		.L.str.292
.rodata.str1.1	0x4304e3c8	0x9	./out/src/duk/duktape.o	#SHT_PROGBITS,SHF_ALLOC|SHF_MERGE|SHF_STRINGS,1
	0x4304e3c8		.L.str.293
.rodata.str1.1	0x4304e3d1	0xb	./out/src/duk/duktape.o	#SHT_PROGBITS,SHF_ALLOC|SHF_MERGE|SHF_STRINGS,1
	0x4304e3d1		.L.str.294
.rodata.str1.1	0x4304e3dc	0xb	./out/src/duk/duktape.o	#SHT_PROGBITS,SHF_ALLOC|SHF_MERGE|SHF_STRINGS,1
	0x4304e3dc		.L.str.295
.rodata.str1.1	0x4304e3e7	0xb	./out/src/duk/duktape.o	#SHT_PROGBITS,SHF_ALLOC|SHF_MERGE|SHF_STRINGS,1
	0x4304e3e7		.L.str.296
.rodata.str1.1	0x4304e3f2	0xb	./out/src/duk/duktape.o	#SHT_PROGBITS,SHF_ALLOC|SHF_MERGE|SHF_STRINGS,1
	0x4304e3f2		.L.str.297
.rodata.str1.1	0x4304e3fd	0xb	./out/src/duk/duktape.o	#SHT_PROGBITS,SHF_ALLOC|SHF_MERGE|SHF_STRINGS,1
	0x4304e3fd		.L.str.298
.rodata.str1.1	0x4304e408	0xb	./out/src/duk/duktape.o	#SHT_PROGBITS,SHF_ALLOC|SHF_MERGE|SHF_STRINGS,1
	0x4304e408		.L.str.299
.rodata.str1.1	0x4304e413	0xb	./out/src/duk/duktape.o	#SHT_PROGBITS,SHF_ALLOC|SHF_MERGE|SHF_STRINGS,1
	0x4304e413		.L.str.300
.rodata.str1.1	0x4304e41e	0xb	./out/src/duk/duktape.o	#SHT_PROGBITS,SHF_ALLOC|SHF_MERGE|SHF_STRINGS,1
	0x4304e41e		.L.str.301
.rodata.str1.1	0x4304e429	0xc	./out/src/duk/duktape.o	#SHT_PROGBITS,SHF_ALLOC|SHF_MERGE|SHF_STRINGS,1
	0x4304e429		.L.str.302
.rodata.str1.1	0x4304e435	0xc	./out/src/duk/duktape.o	#SHT_PROGBITS,SHF_ALLOC|SHF_MERGE|SHF_STRINGS,1
	0x4304e435		.L.str.303
.rodata.str1.1	0x4304e441	0xc	./out/src/duk/duktape.o	#SHT_PROGBITS,SHF_ALLOC|SHF_MERGE|SHF_STRINGS,1
	0x4304e441		.L.str.304
.rodata.str1.1	0x4304e44d	0xc	./out/src/duk/duktape.o	#SHT_PROGBITS,SHF_ALLOC|SHF_MERGE|SHF_STRINGS,1
	0x4304e44d		.L.str.305
.rodata.str1.1	0x4304e459	0xc	./out/src/duk/duktape.o	#SHT_PROGBITS,SHF_ALLOC|SHF_MERGE|SHF_STRINGS,1
	0x4304e459		.L.str.306
.rodata.str1.1	0x4304e465	0xc	./out/src/duk/duktape.o	#SHT_PROGBITS,SHF_ALLOC|SHF_MERGE|SHF_STRINGS,1
	0x4304e465		.L.str.307
.rodata.str1.1	0x4304e471	0xc	./out/src/duk/duktape.o	#SHT_PROGBITS,SHF_ALLOC|SHF_MERGE|SHF_STRINGS,1
	0x4304e471		.L.str.308
.rodata.str1.1	0x4304e47d	0xc	./out/src/duk/duktape.o	#SHT_PROGBITS,SHF_ALLOC|SHF_MERGE|SHF_STRINGS,1
	0x4304e47d		.L.str.309
.rodata.str1.1	0x4304e489	0xb	./out/src/duk/duktape.o	#SHT_PROGBITS,SHF_ALLOC|SHF_MERGE|SHF_STRINGS,1
	0x4304e489		.L.str.310
.rodata.str1.1	0x4304e494	0xb	./out/src/duk/duktape.o	#SHT_PROGBITS,SHF_ALLOC|SHF_MERGE|SHF_STRINGS,1
	0x4304e494		.L.str.311
.rodata.str1.1	0x4304e49f	0xb	./out/src/duk/duktape.o	#SHT_PROGBITS,SHF_ALLOC|SHF_MERGE|SHF_STRINGS,1
	0x4304e49f		.L.str.312
.rodata.str1.1	0x4304e4aa	0xb	./out/src/duk/duktape.o	#SHT_PROGBITS,SHF_ALLOC|SHF_MERGE|SHF_STRINGS,1
	0x4304e4aa		.L.str.313
.rodata.str1.1	0x4304e4b5	0xa	./out/src/duk/duktape.o	#SHT_PROGBITS,SHF_ALLOC|SHF_MERGE|SHF_STRINGS,1
	0x4304e4b5		.L.str.314
.rodata.str1.1	0x4304e4bf	0xa	./out/src/duk/duktape.o	#SHT_PROGBITS,SHF_ALLOC|SHF_MERGE|SHF_STRINGS,1
	0x4304e4bf		.L.str.315
.rodata.str1.1	0x4304e4c9	0xa	./out/src/duk/duktape.o	#SHT_PROGBITS,SHF_ALLOC|SHF_MERGE|SHF_STRINGS,1
	0x4304e4c9		.L.str.316
.rodata.str1.1	0x4304e4d3	0xa	./out/src/duk/duktape.o	#SHT_PROGBITS,SHF_ALLOC|SHF_MERGE|SHF_STRINGS,1
	0x4304e4d3		.L.str.317
.rodata.str1.1	0x4304e4dd	0x8	./out/src/duk/duktape.o	#SHT_PROGBITS,SHF_ALLOC|SHF_MERGE|SHF_STRINGS,1
	0x4304e4dd		.L.str.318
.rodata.str1.1	0x4304e4e5	0x7	./out/src/duk/duktape.o	#SHT_PROGBITS,SHF_ALLOC|SHF_MERGE|SHF_STRINGS,1
	0x4304e4e5		.L.str.319
.rodata.str1.1	0x4304e4ec	0x9	./out/src/duk/duktape.o	#SHT_PROGBITS,SHF_ALLOC|SHF_MERGE|SHF_STRINGS,1
	0x4304e4ec		.L.str.320
.rodata.str1.1	0x4304e4f5	0x7	./out/src/duk/duktape.o	#SHT_PROGBITS,SHF_ALLOC|SHF_MERGE|SHF_STRINGS,1
	0x4304e4f5		.L.str.321
.rodata.str1.1	0x4304e4fc	0x7	./out/src/duk/duktape.o	#SHT_PROGBITS,SHF_ALLOC|SHF_MERGE|SHF_STRINGS,1
	0x4304e4fc		.L.str.322
.rodata.str1.1	0x4304e503	0x7	./out/src/duk/duktape.o	#SHT_PROGBITS,SHF_ALLOC|SHF_MERGE|SHF_STRINGS,1
	0x4304e503		.L.str.323
.rodata.str1.1	0x4304e50a	0x9	./out/src/duk/duktape.o	#SHT_PROGBITS,SHF_ALLOC|SHF_MERGE|SHF_STRINGS,1
	0x4304e50a		.L.str.324
.rodata.str1.1	0x4304e513	0x9	./out/src/duk/duktape.o	#SHT_PROGBITS,SHF_ALLOC|SHF_MERGE|SHF_STRINGS,1
	0x4304e513		.L.str.325
.rodata.str1.1	0x4304e51c	0xa	./out/src/duk/duktape.o	#SHT_PROGBITS,SHF_ALLOC|SHF_MERGE|SHF_STRINGS,1
	0x4304e51c		.L.str.326
.rodata.str1.1	0x4304e526	0x6	./out/src/duk/duktape.o	#SHT_PROGBITS,SHF_ALLOC|SHF_MERGE|SHF_STRINGS,1
	0x4304e526		.L.str.327
.rodata.str1.1	0x4304e52c	0x9	./out/src/duk/duktape.o	#SHT_PROGBITS,SHF_ALLOC|SHF_MERGE|SHF_STRINGS,1
	0x4304e52c		.L.str.328
.rodata.str1.1	0x4304e535	0x6	./out/src/duk/duktape.o	#SHT_PROGBITS,SHF_ALLOC|SHF_MERGE|SHF_STRINGS,1
	0x4304e535		.L.str.329
.rodata.str1.1	0x4304e53b	0x9	./out/src/duk/duktape.o	#SHT_PROGBITS,SHF_ALLOC|SHF_MERGE|SHF_STRINGS,1
	0x4304e53b		.L.str.330
.rodata.str1.1	0x4304e544	0x9	./out/src/duk/duktape.o	#SHT_PROGBITS,SHF_ALLOC|SHF_MERGE|SHF_STRINGS,1
	0x4304e544		.L.str.331
.rodata.str1.1	0x4304e54d	0x7	./out/src/duk/duktape.o	#SHT_PROGBITS,SHF_ALLOC|SHF_MERGE|SHF_STRINGS,1
	0x4304e54d		.L.str.332
.rodata.str1.1	0x4304e554	0x9	./out/src/duk/duktape.o	#SHT_PROGBITS,SHF_ALLOC|SHF_MERGE|SHF_STRINGS,1
	0x4304e554		.L.str.333
.rodata.str1.1	0x4304e55d	0x7	./out/src/duk/duktape.o	#SHT_PROGBITS,SHF_ALLOC|SHF_MERGE|SHF_STRINGS,1
	0x4304e55d		.L.str.334
.rodata.str1.1	0x4304e564	0x6	./out/src/duk/duktape.o	#SHT_PROGBITS,SHF_ALLOC|SHF_MERGE|SHF_STRINGS,1
	0x4304e564		.L.str.335
.rodata.str1.1	0x4304e56a	0x7	./out/src/duk/duktape.o	#SHT_PROGBITS,SHF_ALLOC|SHF_MERGE|SHF_STRINGS,1
	0x4304e56a		.L.str.336
.rodata.str1.1	0x4304e571	0x6	./out/src/duk/duktape.o	#SHT_PROGBITS,SHF_ALLOC|SHF_MERGE|SHF_STRINGS,1
	0x4304e571		.L.str.337
.rodata.str1.1	0x4304e577	0x9	./out/src/duk/duktape.o	#SHT_PROGBITS,SHF_ALLOC|SHF_MERGE|SHF_STRINGS,1
	0x4304e577		.L.str.338
.rodata.str1.1	0x4304e580	0x9	./out/src/duk/duktape.o	#SHT_PROGBITS,SHF_ALLOC|SHF_MERGE|SHF_STRINGS,1
	0x4304e580		.L.str.339
.rodata.str1.1	0x4304e589	0x9	./out/src/duk/duktape.o	#SHT_PROGBITS,SHF_ALLOC|SHF_MERGE|SHF_STRINGS,1
	0x4304e589		.L.str.340
.rodata.str1.1	0x4304e592	0x9	./out/src/duk/duktape.o	#SHT_PROGBITS,SHF_ALLOC|SHF_MERGE|SHF_STRINGS,1
	0x4304e592		.L.str.341
.rodata.str1.1	0x4304e59b	0x6	./out/src/duk/duktape.o	#SHT_PROGBITS,SHF_ALLOC|SHF_MERGE|SHF_STRINGS,1
	0x4304e59b		.L.str.342
.rodata.str1.1	0x4304e5a1	0x6	./out/src/duk/duktape.o	#SHT_PROGBITS,SHF_ALLOC|SHF_MERGE|SHF_STRINGS,1
	0x4304e5a1		.L.str.343
.rodata.str1.1	0x4304e5a7	0x6	./out/src/duk/duktape.o	#SHT_PROGBITS,SHF_ALLOC|SHF_MERGE|SHF_STRINGS,1
	0x4304e5a7		.L.str.344
.rodata.str1.1	0x4304e5ad	0x6	./out/src/duk/duktape.o	#SHT_PROGBITS,SHF_ALLOC|SHF_MERGE|SHF_STRINGS,1
	0x4304e5ad		.L.str.345
.rodata.str1.1	0x4304e5b3	0x6	./out/src/duk/duktape.o	#SHT_PROGBITS,SHF_ALLOC|SHF_MERGE|SHF_STRINGS,1
	0x4304e5b3		.L.str.346
.rodata.str1.1	0x4304e5b9	0x6	./out/src/duk/duktape.o	#SHT_PROGBITS,SHF_ALLOC|SHF_MERGE|SHF_STRINGS,1
	0x4304e5b9		.L.str.347
.rodata.str1.1	0x4304e5bf	0x6	./out/src/duk/duktape.o	#SHT_PROGBITS,SHF_ALLOC|SHF_MERGE|SHF_STRINGS,1
	0x4304e5bf		.L.str.348
.rodata.str1.1	0x4304e5c5	0x6	./out/src/duk/duktape.o	#SHT_PROGBITS,SHF_ALLOC|SHF_MERGE|SHF_STRINGS,1
	0x4304e5c5		.L.str.349
.rodata.str1.1	0x4304e5cb	0x6	./out/src/duk/duktape.o	#SHT_PROGBITS,SHF_ALLOC|SHF_MERGE|SHF_STRINGS,1
	0x4304e5cb		.L.str.350
.rodata.str1.1	0x4304e5d1	0x6	./out/src/duk/duktape.o	#SHT_PROGBITS,SHF_ALLOC|SHF_MERGE|SHF_STRINGS,1
	0x4304e5d1		.L.str.351
.rodata.str1.1	0x4304e5d7	0x7	./out/src/duk/duktape.o	#SHT_PROGBITS,SHF_ALLOC|SHF_MERGE|SHF_STRINGS,1
	0x4304e5d7		.L.str.352
.rodata.str1.1	0x4304e5de	0x7	./out/src/duk/duktape.o	#SHT_PROGBITS,SHF_ALLOC|SHF_MERGE|SHF_STRINGS,1
	0x4304e5de		.L.str.353
.rodata.str1.1	0x4304e5e5	0x7	./out/src/duk/duktape.o	#SHT_PROGBITS,SHF_ALLOC|SHF_MERGE|SHF_STRINGS,1
	0x4304e5e5		.L.str.354
.rodata.str1.1	0x4304e5ec	0x7	./out/src/duk/duktape.o	#SHT_PROGBITS,SHF_ALLOC|SHF_MERGE|SHF_STRINGS,1
	0x4304e5ec		.L.str.355
.rodata.str1.1	0x4304e5f3	0x7	./out/src/duk/duktape.o	#SHT_PROGBITS,SHF_ALLOC|SHF_MERGE|SHF_STRINGS,1
	0x4304e5f3		.L.str.356
.rodata.str1.1	0x4304e5fa	0x7	./out/src/duk/duktape.o	#SHT_PROGBITS,SHF_ALLOC|SHF_MERGE|SHF_STRINGS,1
	0x4304e5fa		.L.str.357
.rodata.str1.1	0x4304e601	0x7	./out/src/duk/duktape.o	#SHT_PROGBITS,SHF_ALLOC|SHF_MERGE|SHF_STRINGS,1
	0x4304e601		.L.str.358
.rodata.str1.1	0x4304e608	0x7	./out/src/duk/duktape.o	#SHT_PROGBITS,SHF_ALLOC|SHF_MERGE|SHF_STRINGS,1
	0x4304e608		.L.str.359
.rodata.str1.1	0x4304e60f	0x8	./out/src/duk/duktape.o	#SHT_PROGBITS,SHF_ALLOC|SHF_MERGE|SHF_STRINGS,1
	0x4304e60f		.L.str.360
.rodata.str1.1	0x4304e617	0x9	./out/src/duk/duktape.o	#SHT_PROGBITS,SHF_ALLOC|SHF_MERGE|SHF_STRINGS,1
	0x4304e617		.L.str.361
.rodata.str1.1	0x4304e620	0x8	./out/src/duk/duktape.o	#SHT_PROGBITS,SHF_ALLOC|SHF_MERGE|SHF_STRINGS,1
	0x4304e620		.L.str.362
.rodata.str1.1	0x4304e628	0x8	./out/src/duk/duktape.o	#SHT_PROGBITS,SHF_ALLOC|SHF_MERGE|SHF_STRINGS,1
	0x4304e628		.L.str.363
.rodata.str1.1	0x4304e630	0x8	./out/src/duk/duktape.o	#SHT_PROGBITS,SHF_ALLOC|SHF_MERGE|SHF_STRINGS,1
	0x4304e630		.L.str.364
.rodata.str1.1	0x4304e638	0x9	./out/src/duk/duktape.o	#SHT_PROGBITS,SHF_ALLOC|SHF_MERGE|SHF_STRINGS,1
	0x4304e638		.L.str.365
.rodata.str1.1	0x4304e641	0x8	./out/src/duk/duktape.o	#SHT_PROGBITS,SHF_ALLOC|SHF_MERGE|SHF_STRINGS,1
	0x4304e641		.L.str.366
.rodata.str1.1	0x4304e649	0x9	./out/src/duk/duktape.o	#SHT_PROGBITS,SHF_ALLOC|SHF_MERGE|SHF_STRINGS,1
	0x4304e649		.L.str.367
.rodata.str1.1	0x4304e652	0x9	./out/src/duk/duktape.o	#SHT_PROGBITS,SHF_ALLOC|SHF_MERGE|SHF_STRINGS,1
	0x4304e652		.L.str.368
.rodata.str1.1	0x4304e65b	0xa	./out/src/duk/duktape.o	#SHT_PROGBITS,SHF_ALLOC|SHF_MERGE|SHF_STRINGS,1
	0x4304e65b		.L.str.369
.rodata.str1.1	0x4304e665	0x9	./out/src/duk/duktape.o	#SHT_PROGBITS,SHF_ALLOC|SHF_MERGE|SHF_STRINGS,1
	0x4304e665		.L.str.370
.rodata.str1.1	0x4304e66e	0x4	./out/src/duk/duktape.o	#SHT_PROGBITS,SHF_ALLOC|SHF_MERGE|SHF_STRINGS,1
	0x4304e66e		.L.str.371
.rodata.str1.1	0x4304e672	0x8	./out/src/duk/duktape.o	#SHT_PROGBITS,SHF_ALLOC|SHF_MERGE|SHF_STRINGS,1
	0x4304e672		.L.str.372
.rodata.str1.1	0x4304e67a	0xa	./out/src/duk/duktape.o	#SHT_PROGBITS,SHF_ALLOC|SHF_MERGE|SHF_STRINGS,1
	0x4304e67a		.L.str.373
.rodata.str1.1	0x4304e684	0xc	./out/src/duk/duktape.o	#SHT_PROGBITS,SHF_ALLOC|SHF_MERGE|SHF_STRINGS,1
	0x4304e684		.L.str.374
.rodata.str1.1	0x4304e690	0xc	./out/src/duk/duktape.o	#SHT_PROGBITS,SHF_ALLOC|SHF_MERGE|SHF_STRINGS,1
	0x4304e690		.L.str.375
.rodata.str1.1	0x4304e69c	0xc	./out/src/duk/duktape.o	#SHT_PROGBITS,SHF_ALLOC|SHF_MERGE|SHF_STRINGS,1
	0x4304e69c		.L.str.376
.rodata.str1.1	0x4304e6a8	0xc	./out/src/duk/duktape.o	#SHT_PROGBITS,SHF_ALLOC|SHF_MERGE|SHF_STRINGS,1
	0x4304e6a8		.L.str.377
.rodata.str1.1	0x4304e6b4	0xa	./out/src/duk/duktape.o	#SHT_PROGBITS,SHF_ALLOC|SHF_MERGE|SHF_STRINGS,1
	0x4304e6b4		.L.str.378
.rodata.str1.1	0x4304e6be	0xa	./out/src/duk/duktape.o	#SHT_PROGBITS,SHF_ALLOC|SHF_MERGE|SHF_STRINGS,1
	0x4304e6be		.L.str.379
.rodata.str1.1	0x4304e6c8	0xa	./out/src/duk/duktape.o	#SHT_PROGBITS,SHF_ALLOC|SHF_MERGE|SHF_STRINGS,1
	0x4304e6c8		.L.str.380
.rodata.str1.1	0x4304e6d2	0xa	./out/src/duk/duktape.o	#SHT_PROGBITS,SHF_ALLOC|SHF_MERGE|SHF_STRINGS,1
	0x4304e6d2		.L.str.381
.rodata.str1.1	0x4304e6dc	0xa	./out/src/duk/duktape.o	#SHT_PROGBITS,SHF_ALLOC|SHF_MERGE|SHF_STRINGS,1
	0x4304e6dc		.L.str.382
.rodata.str1.1	0x4304e6e6	0xa	./out/src/duk/duktape.o	#SHT_PROGBITS,SHF_ALLOC|SHF_MERGE|SHF_STRINGS,1
	0x4304e6e6		.L.str.383
.rodata.str1.1	0x4304e6f0	0xa	./out/src/duk/duktape.o	#SHT_PROGBITS,SHF_ALLOC|SHF_MERGE|SHF_STRINGS,1
	0x4304e6f0		.L.str.384
.rodata.str1.1	0x4304e6fa	0xa	./out/src/duk/duktape.o	#SHT_PROGBITS,SHF_ALLOC|SHF_MERGE|SHF_STRINGS,1
	0x4304e6fa		.L.str.385
.rodata.str1.1	0x4304e704	0xa	./out/src/duk/duktape.o	#SHT_PROGBITS,SHF_ALLOC|SHF_MERGE|SHF_STRINGS,1
	0x4304e704		.L.str.386
.rodata.str1.1	0x4304e70e	0xa	./out/src/duk/duktape.o	#SHT_PROGBITS,SHF_ALLOC|SHF_MERGE|SHF_STRINGS,1
	0x4304e70e		.L.str.387
.rodata.str1.1	0x4304e718	0xa	./out/src/duk/duktape.o	#SHT_PROGBITS,SHF_ALLOC|SHF_MERGE|SHF_STRINGS,1
	0x4304e718		.L.str.388
.rodata.str1.1	0x4304e722	0xa	./out/src/duk/duktape.o	#SHT_PROGBITS,SHF_ALLOC|SHF_MERGE|SHF_STRINGS,1
	0x4304e722		.L.str.389
.rodata.str1.1	0x4304e72c	0xa	./out/src/duk/duktape.o	#SHT_PROGBITS,SHF_ALLOC|SHF_MERGE|SHF_STRINGS,1
	0x4304e72c		.L.str.390
.rodata.str1.1	0x4304e736	0xa	./out/src/duk/duktape.o	#SHT_PROGBITS,SHF_ALLOC|SHF_MERGE|SHF_STRINGS,1
	0x4304e736		.L.str.391
.rodata.str1.1	0x4304e740	0xa	./out/src/duk/duktape.o	#SHT_PROGBITS,SHF_ALLOC|SHF_MERGE|SHF_STRINGS,1
	0x4304e740		.L.str.392
.rodata.str1.1	0x4304e74a	0xa	./out/src/duk/duktape.o	#SHT_PROGBITS,SHF_ALLOC|SHF_MERGE|SHF_STRINGS,1
	0x4304e74a		.L.str.393
.rodata.str1.1	0x4304e754	0xa	./out/src/duk/duktape.o	#SHT_PROGBITS,SHF_ALLOC|SHF_MERGE|SHF_STRINGS,1
	0x4304e754		.L.str.394
.rodata.str1.1	0x4304e75e	0xa	./out/src/duk/duktape.o	#SHT_PROGBITS,SHF_ALLOC|SHF_MERGE|SHF_STRINGS,1
	0x4304e75e		.L.str.395
.rodata.str1.1	0x4304e768	0xa	./out/src/duk/duktape.o	#SHT_PROGBITS,SHF_ALLOC|SHF_MERGE|SHF_STRINGS,1
	0x4304e768		.L.str.396
.rodata.str1.1	0x4304e772	0xa	./out/src/duk/duktape.o	#SHT_PROGBITS,SHF_ALLOC|SHF_MERGE|SHF_STRINGS,1
	0x4304e772		.L.str.397
.rodata.str1.1	0x4304e77c	0xa	./out/src/duk/duktape.o	#SHT_PROGBITS,SHF_ALLOC|SHF_MERGE|SHF_STRINGS,1
	0x4304e77c		.L.str.398
.rodata.str1.1	0x4304e786	0xa	./out/src/duk/duktape.o	#SHT_PROGBITS,SHF_ALLOC|SHF_MERGE|SHF_STRINGS,1
	0x4304e786		.L.str.399
.rodata.str1.1	0x4304e790	0xa	./out/src/duk/duktape.o	#SHT_PROGBITS,SHF_ALLOC|SHF_MERGE|SHF_STRINGS,1
	0x4304e790		.L.str.400
.rodata.str1.1	0x4304e79a	0xa	./out/src/duk/duktape.o	#SHT_PROGBITS,SHF_ALLOC|SHF_MERGE|SHF_STRINGS,1
	0x4304e79a		.L.str.401
.rodata.str1.1	0x4304e7a4	0xa	./out/src/duk/duktape.o	#SHT_PROGBITS,SHF_ALLOC|SHF_MERGE|SHF_STRINGS,1
	0x4304e7a4		.L.str.402
.rodata.str1.1	0x4304e7ae	0xa	./out/src/duk/duktape.o	#SHT_PROGBITS,SHF_ALLOC|SHF_MERGE|SHF_STRINGS,1
	0x4304e7ae		.L.str.403
.rodata.str1.1	0x4304e7b8	0xa	./out/src/duk/duktape.o	#SHT_PROGBITS,SHF_ALLOC|SHF_MERGE|SHF_STRINGS,1
	0x4304e7b8		.L.str.404
.rodata.str1.1	0x4304e7c2	0xa	./out/src/duk/duktape.o	#SHT_PROGBITS,SHF_ALLOC|SHF_MERGE|SHF_STRINGS,1
	0x4304e7c2		.L.str.405
.rodata.str1.1	0x4304e7cc	0xa	./out/src/duk/duktape.o	#SHT_PROGBITS,SHF_ALLOC|SHF_MERGE|SHF_STRINGS,1
	0x4304e7cc		.L.str.406
.rodata.str1.1	0x4304e7d6	0xa	./out/src/duk/duktape.o	#SHT_PROGBITS,SHF_ALLOC|SHF_MERGE|SHF_STRINGS,1
	0x4304e7d6		.L.str.407
.rodata.str1.1	0x4304e7e0	0xa	./out/src/duk/duktape.o	#SHT_PROGBITS,SHF_ALLOC|SHF_MERGE|SHF_STRINGS,1
	0x4304e7e0		.L.str.408
.rodata.str1.1	0x4304e7ea	0xa	./out/src/duk/duktape.o	#SHT_PROGBITS,SHF_ALLOC|SHF_MERGE|SHF_STRINGS,1
	0x4304e7ea		.L.str.409
.rodata.str1.1	0x4304e7f4	0xa	./out/src/duk/duktape.o	#SHT_PROGBITS,SHF_ALLOC|SHF_MERGE|SHF_STRINGS,1
	0x4304e7f4		.L.str.410
.rodata.str1.1	0x4304e7fe	0xa	./out/src/duk/duktape.o	#SHT_PROGBITS,SHF_ALLOC|SHF_MERGE|SHF_STRINGS,1
	0x4304e7fe		.L.str.411
.rodata.str1.1	0x4304e808	0xa	./out/src/duk/duktape.o	#SHT_PROGBITS,SHF_ALLOC|SHF_MERGE|SHF_STRINGS,1
	0x4304e808		.L.str.412
.rodata.str1.1	0x4304e812	0xa	./out/src/duk/duktape.o	#SHT_PROGBITS,SHF_ALLOC|SHF_MERGE|SHF_STRINGS,1
	0x4304e812		.L.str.413
.rodata.str1.1	0x4304e81c	0xa	./out/src/duk/duktape.o	#SHT_PROGBITS,SHF_ALLOC|SHF_MERGE|SHF_STRINGS,1
	0x4304e81c		.L.str.414
.rodata.str1.1	0x4304e826	0xa	./out/src/duk/duktape.o	#SHT_PROGBITS,SHF_ALLOC|SHF_MERGE|SHF_STRINGS,1
	0x4304e826		.L.str.415
.rodata.str1.1	0x4304e830	0xa	./out/src/duk/duktape.o	#SHT_PROGBITS,SHF_ALLOC|SHF_MERGE|SHF_STRINGS,1
	0x4304e830		.L.str.416
.rodata.str1.1	0x4304e83a	0xa	./out/src/duk/duktape.o	#SHT_PROGBITS,SHF_ALLOC|SHF_MERGE|SHF_STRINGS,1
	0x4304e83a		.L.str.417
.rodata.str1.1	0x4304e844	0xa	./out/src/duk/duktape.o	#SHT_PROGBITS,SHF_ALLOC|SHF_MERGE|SHF_STRINGS,1
	0x4304e844		.L.str.418
.rodata.str1.1	0x4304e84e	0xa	./out/src/duk/duktape.o	#SHT_PROGBITS,SHF_ALLOC|SHF_MERGE|SHF_STRINGS,1
	0x4304e84e		.L.str.419
.rodata.str1.1	0x4304e858	0xa	./out/src/duk/duktape.o	#SHT_PROGBITS,SHF_ALLOC|SHF_MERGE|SHF_STRINGS,1
	0x4304e858		.L.str.420
.rodata.str1.1	0x4304e862	0xa	./out/src/duk/duktape.o	#SHT_PROGBITS,SHF_ALLOC|SHF_MERGE|SHF_STRINGS,1
	0x4304e862		.L.str.421
.rodata.str1.1	0x4304e86c	0x7	./out/src/duk/duktape.o	#SHT_PROGBITS,SHF_ALLOC|SHF_MERGE|SHF_STRINGS,1
	0x4304e86c		.L.str.422
.rodata.str1.1	0x4304e873	0x4e	./out/src/duk/duktape.o	#SHT_PROGBITS,SHF_ALLOC|SHF_MERGE|SHF_STRINGS,1
	0x4304e873		.L.str.423
.rodata.str1.1	0x4304e8c1	0xa1	./out/src/duk/duktape.o	#SHT_PROGBITS,SHF_ALLOC|SHF_MERGE|SHF_STRINGS,1
	0x4304e8c1		.L.str.424
.rodata.str1.1	0x4304e962	0xe	./out/src/duk/duktape.o	#SHT_PROGBITS,SHF_ALLOC|SHF_MERGE|SHF_STRINGS,1
	0x4304e962		.L.str.425
.rodata.str1.1	0x4304e970	0xf	./out/src/duk/duktape.o	#SHT_PROGBITS,SHF_ALLOC|SHF_MERGE|SHF_STRINGS,1
	0x4304e970		.L__func__.duk_js_compile
.rodata.str1.1	0x4304e97f	0x18	./out/src/duk/duktape.o	#SHT_PROGBITS,SHF_ALLOC|SHF_MERGE|SHF_STRINGS,1
	0x4304e97f		.L.str.426
.rodata.str1.1	0x4304e997	0x15	./out/src/duk/duktape.o	#SHT_PROGBITS,SHF_ALLOC|SHF_MERGE|SHF_STRINGS,1
	0x4304e997		.L.str.427
.rodata.str1.1	0x4304e9ac	0x14	./out/src/duk/duktape.o	#SHT_PROGBITS,SHF_ALLOC|SHF_MERGE|SHF_STRINGS,1
	0x4304e9ac		.L__func__.duk__advance_helper
.rodata.str1.1	0x4304e9c0	0x21	./out/src/duk/duktape.o	#SHT_PROGBITS,SHF_ALLOC|SHF_MERGE|SHF_STRINGS,1
	0x4304e9c0		.L.str.428
.rodata.str1.1	0x4304e9e1	0xc	./out/src/duk/duktape.o	#SHT_PROGBITS,SHF_ALLOC|SHF_MERGE|SHF_STRINGS,1
	0x4304e9e1		.L.str.429
.rodata.str1.1	0x4304e9ed	0xc	./out/src/duk/duktape.o	#SHT_PROGBITS,SHF_ALLOC|SHF_MERGE|SHF_STRINGS,1
	0x4304e9ed		.L.str.430
.rodata.str1.1	0x4304e9f9	0xe	./out/src/duk/duktape.o	#SHT_PROGBITS,SHF_ALLOC|SHF_MERGE|SHF_STRINGS,1
	0x4304e9f9		.L.str.431
.rodata.str1.1	0x4304ea07	0x17	./out/src/duk/duktape.o	#SHT_PROGBITS,SHF_ALLOC|SHF_MERGE|SHF_STRINGS,1
	0x4304ea07		.L.str.432
.rodata.str1.1	0x4304ea1e	0xf	./out/src/duk/duktape.o	#SHT_PROGBITS,SHF_ALLOC|SHF_MERGE|SHF_STRINGS,1
	0x4304ea1e		.L.str.433
.rodata.str1.1	0x4304ea2d	0x14	./out/src/duk/duktape.o	#SHT_PROGBITS,SHF_ALLOC|SHF_MERGE|SHF_STRINGS,1
	0x4304ea2d		.L.str.434
.rodata.str1.1	0x4304ea41	0x15	./out/src/duk/duktape.o	#SHT_PROGBITS,SHF_ALLOC|SHF_MERGE|SHF_STRINGS,1
	0x4304ea41		.L.str.435
.rodata.str1.1	0x4304ea56	0x14	./out/src/duk/duktape.o	#SHT_PROGBITS,SHF_ALLOC|SHF_MERGE|SHF_STRINGS,1
	0x4304ea56		.L.str.436
.rodata.str1.1	0x4304ea6a	0x9	./out/src/duk/duktape.o	#SHT_PROGBITS,SHF_ALLOC|SHF_MERGE|SHF_STRINGS,1
	0x4304ea6a		.L.str.437
.rodata.str1.1	0x4304ea73	0x13	./out/src/duk/duktape.o	#SHT_PROGBITS,SHF_ALLOC|SHF_MERGE|SHF_STRINGS,1
	0x4304ea73		.L.str.438
.rodata.str1.1	0x4304ea86	0x1b	./out/src/duk/duktape.o	#SHT_PROGBITS,SHF_ALLOC|SHF_MERGE|SHF_STRINGS,1
	0x4304ea86		.L.str.439
.rodata.str1.1	0x4304eaa1	0x17	./out/src/duk/duktape.o	#SHT_PROGBITS,SHF_ALLOC|SHF_MERGE|SHF_STRINGS,1
	0x4304eaa1		.L.str.440
.rodata.str1.1	0x4304eab8	0x19	./out/src/duk/duktape.o	#SHT_PROGBITS,SHF_ALLOC|SHF_MERGE|SHF_STRINGS,1
	0x4304eab8		.L__func__.duk__parse_func_like_raw
.rodata.str1.1	0x4304ead1	0x13	./out/src/duk/duktape.o	#SHT_PROGBITS,SHF_ALLOC|SHF_MERGE|SHF_STRINGS,1
	0x4304ead1		.L.str.441
.rodata.str1.1	0x4304eae4	0x14	./out/src/duk/duktape.o	#SHT_PROGBITS,SHF_ALLOC|SHF_MERGE|SHF_STRINGS,1
	0x4304eae4		.L.str.442
.rodata.str1.1	0x4304eaf8	0x15	./out/src/duk/duktape.o	#SHT_PROGBITS,SHF_ALLOC|SHF_MERGE|SHF_STRINGS,1
	0x4304eaf8		.L__func__.duk__parse_func_body
.rodata.str1.1	0x4304eb0d	0x37	./out/src/duk/duktape.o	#SHT_PROGBITS,SHF_ALLOC|SHF_MERGE|SHF_STRINGS,1
	0x4304eb0d		.L.str.443
.rodata.str1.1	0x4304eb44	0x38	./out/src/duk/duktape.o	#SHT_PROGBITS,SHF_ALLOC|SHF_MERGE|SHF_STRINGS,1
	0x4304eb44		.L.str.444
.rodata.str1.1	0x4304eb7c	0x16	./out/src/duk/duktape.o	#SHT_PROGBITS,SHF_ALLOC|SHF_MERGE|SHF_STRINGS,1
	0x4304eb7c		.L.str.445
.rodata.str1.1	0x4304eb92	0x19	./out/src/duk/duktape.o	#SHT_PROGBITS,SHF_ALLOC|SHF_MERGE|SHF_STRINGS,1
	0x4304eb92		.L.str.446
.rodata.str1.1	0x4304ebab	0xb	./out/src/duk/duktape.o	#SHT_PROGBITS,SHF_ALLOC|SHF_MERGE|SHF_STRINGS,1
	0x4304ebab		.L.str.447
.rodata.str1.1	0x4304ebb6	0x1f	./out/src/duk/duktape.o	#SHT_PROGBITS,SHF_ALLOC|SHF_MERGE|SHF_STRINGS,1
	0x4304ebb6		.L.str.448
.rodata.str1.1	0x4304ebd5	0xb	./out/src/duk/duktape.o	#SHT_PROGBITS,SHF_ALLOC|SHF_MERGE|SHF_STRINGS,1
	0x4304ebd5		.L.str.449
.rodata.str1.1	0x4304ebe0	0xf	./out/src/duk/duktape.o	#SHT_PROGBITS,SHF_ALLOC|SHF_MERGE|SHF_STRINGS,1
	0x4304ebe0		.L.str.450
.rodata.str1.1	0x4304ebef	0x10	./out/src/duk/duktape.o	#SHT_PROGBITS,SHF_ALLOC|SHF_MERGE|SHF_STRINGS,1
	0x4304ebef		.L__func__.duk__parse_stmt
.rodata.str1.1	0x4304ebff	0x4a	./out/src/duk/duktape.o	#SHT_PROGBITS,SHF_ALLOC|SHF_MERGE|SHF_STRINGS,1
	0x4304ebff		.L.str.451
.rodata.str1.1	0x4304ec49	0x17	./out/src/duk/duktape.o	#SHT_PROGBITS,SHF_ALLOC|SHF_MERGE|SHF_STRINGS,1
	0x4304ec49		.L.str.452
.rodata.str1.1	0x4304ec60	0x10	./out/src/duk/duktape.o	#SHT_PROGBITS,SHF_ALLOC|SHF_MERGE|SHF_STRINGS,1
	0x4304ec60		.L.str.453
.rodata.str1.1	0x4304ec70	0xf	./out/src/duk/duktape.o	#SHT_PROGBITS,SHF_ALLOC|SHF_MERGE|SHF_STRINGS,1
	0x4304ec70		.L.str.454
.rodata.str1.1	0x4304ec7f	0x1d	./out/src/duk/duktape.o	#SHT_PROGBITS,SHF_ALLOC|SHF_MERGE|SHF_STRINGS,1
	0x4304ec7f		.L.str.455
.rodata.str1.1	0x4304ec9c	0xc	./out/src/duk/duktape.o	#SHT_PROGBITS,SHF_ALLOC|SHF_MERGE|SHF_STRINGS,1
	0x4304ec9c		.L.str.456
.rodata.str1.1	0x4304eca8	0x18	./out/src/duk/duktape.o	#SHT_PROGBITS,SHF_ALLOC|SHF_MERGE|SHF_STRINGS,1
	0x4304eca8		.L__func__.duk__ivalue_toplain_raw
.rodata.str1.1	0x4304ecc0	0x19	./out/src/duk/duktape.o	#SHT_PROGBITS,SHF_ALLOC|SHF_MERGE|SHF_STRINGS,1
	0x4304ecc0		.L.str.457
.rodata.str1.1	0x4304ecd9	0x10	./out/src/duk/duktape.o	#SHT_PROGBITS,SHF_ALLOC|SHF_MERGE|SHF_STRINGS,1
	0x4304ecd9		.L__func__.duk__emit_a_b_c
.rodata.str1.1	0x4304ece9	0x46	./out/src/duk/duktape.o	#SHT_PROGBITS,SHF_ALLOC|SHF_MERGE|SHF_STRINGS,1
	0x4304ece9		.L.str.458
.rodata.str1.1	0x4304ed2f	0x48	./out/src/duk/duktape.o	#SHT_PROGBITS,SHF_ALLOC|SHF_MERGE|SHF_STRINGS,1
	0x4304ed2f		.L.str.459
.rodata.str1.1	0x4304ed77	0x2c	./out/src/duk/duktape.o	#SHT_PROGBITS,SHF_ALLOC|SHF_MERGE|SHF_STRINGS,1
	0x4304ed77		.L.str.460
.rodata.str1.1	0x4304eda3	0x4a	./out/src/duk/duktape.o	#SHT_PROGBITS,SHF_ALLOC|SHF_MERGE|SHF_STRINGS,1
	0x4304eda3		.L.str.461
.rodata.str1.1	0x4304eded	0x46	./out/src/duk/duktape.o	#SHT_PROGBITS,SHF_ALLOC|SHF_MERGE|SHF_STRINGS,1
	0x4304eded		.L.str.462
.rodata.str1.1	0x4304ee33	0x48	./out/src/duk/duktape.o	#SHT_PROGBITS,SHF_ALLOC|SHF_MERGE|SHF_STRINGS,1
	0x4304ee33		.L.str.463
.rodata.str1.1	0x4304ee7b	0x2c	./out/src/duk/duktape.o	#SHT_PROGBITS,SHF_ALLOC|SHF_MERGE|SHF_STRINGS,1
	0x4304ee7b		.L.str.464
.rodata.str1.1	0x4304eea7	0x4a	./out/src/duk/duktape.o	#SHT_PROGBITS,SHF_ALLOC|SHF_MERGE|SHF_STRINGS,1
	0x4304eea7		.L.str.465
.rodata.str1.1	0x4304eef1	0x46	./out/src/duk/duktape.o	#SHT_PROGBITS,SHF_ALLOC|SHF_MERGE|SHF_STRINGS,1
	0x4304eef1		.L.str.466
.rodata.str1.1	0x4304ef37	0x48	./out/src/duk/duktape.o	#SHT_PROGBITS,SHF_ALLOC|SHF_MERGE|SHF_STRINGS,1
	0x4304ef37		.L.str.467
.rodata.str1.1	0x4304ef7f	0xf	./out/src/duk/duktape.o	#SHT_PROGBITS,SHF_ALLOC|SHF_MERGE|SHF_STRINGS,1
	0x4304ef7f		.L.str.468
.rodata.str1.1	0x4304ef8e	0xf	./out/src/duk/duktape.o	#SHT_PROGBITS,SHF_ALLOC|SHF_MERGE|SHF_STRINGS,1
	0x4304ef8e		.L.str.469
.rodata.str1.1	0x4304ef9d	0x16	./out/src/duk/duktape.o	#SHT_PROGBITS,SHF_ALLOC|SHF_MERGE|SHF_STRINGS,1
	0x4304ef9d		.L.str.470
.rodata.str1.1	0x4304efb3	0x1d	./out/src/duk/duktape.o	#SHT_PROGBITS,SHF_ALLOC|SHF_MERGE|SHF_STRINGS,1
	0x4304efb3		.L.str.471
.rodata.str1.1	0x4304efd0	0xe	./out/src/duk/duktape.o	#SHT_PROGBITS,SHF_ALLOC|SHF_MERGE|SHF_STRINGS,1
	0x4304efd0		.L.str.472
.rodata.str1.1	0x4304efde	0xf	./out/src/duk/duktape.o	#SHT_PROGBITS,SHF_ALLOC|SHF_MERGE|SHF_STRINGS,1
	0x4304efde		.L.str.473
.rodata.str1.1	0x4304efed	0x14	./out/src/duk/duktape.o	#SHT_PROGBITS,SHF_ALLOC|SHF_MERGE|SHF_STRINGS,1
	0x4304efed		.L.str.474
.rodata.str1.1	0x4304f001	0x17	./out/src/duk/duktape.o	#SHT_PROGBITS,SHF_ALLOC|SHF_MERGE|SHF_STRINGS,1
	0x4304f001		.L__func__.duk__parse_switch_stmt
.rodata.str1.1	0x4304f018	0x2c	./out/src/duk/duktape.o	#SHT_PROGBITS,SHF_ALLOC|SHF_MERGE|SHF_STRINGS,1
	0x4304f018		.L.str.475
.rodata.str1.1	0x4304f044	0x19	./out/src/duk/duktape.o	#SHT_PROGBITS,SHF_ALLOC|SHF_MERGE|SHF_STRINGS,1
	0x4304f044		.L.str.476
.rodata.str1.1	0x4304f05d	0xe	./out/src/duk/duktape.o	#SHT_PROGBITS,SHF_ALLOC|SHF_MERGE|SHF_STRINGS,1
	0x4304f05d		.L.str.477
.rodata.str1.1	0x4304f06b	0xc	./out/src/duk/duktape.o	#SHT_PROGBITS,SHF_ALLOC|SHF_MERGE|SHF_STRINGS,1
	0x4304f06b		.L.str.478
.rodata.str1.1	0x4304f077	0x14	./out/src/duk/duktape.o	#SHT_PROGBITS,SHF_ALLOC|SHF_MERGE|SHF_STRINGS,1
	0x4304f077		.L__func__.duk__patch_trycatch
.rodata.str1.1	0x4304f08b	0x50	./out/src/duk/duktape.o	#SHT_PROGBITS,SHF_ALLOC|SHF_MERGE|SHF_STRINGS,1
	0x4304f08b		.L.str.479
.rodata.str1.1	0x4304f0db	0x1d	./out/src/duk/duktape.o	#SHT_PROGBITS,SHF_ALLOC|SHF_MERGE|SHF_STRINGS,1
	0x4304f0db		.L.str.480
.rodata.str1.1	0x4304f0f8	0x19	./out/src/duk/duktape.o	#SHT_PROGBITS,SHF_ALLOC|SHF_MERGE|SHF_STRINGS,1
	0x4304f0f8		.L.str.481
.rodata.str1.1	0x4304f111	0x13	./out/src/duk/duktape.o	#SHT_PROGBITS,SHF_ALLOC|SHF_MERGE|SHF_STRINGS,1
	0x4304f111		.L.str.482
.rodata.str1.1	0x4304f124	0x13	./out/src/duk/duktape.o	#SHT_PROGBITS,SHF_ALLOC|SHF_MERGE|SHF_STRINGS,1
	0x4304f124		.L__func__.duk_regexp_compile
.rodata.str1.1	0x4304f137	0x44	./out/src/duk/duktape.o	#SHT_PROGBITS,SHF_ALLOC|SHF_MERGE|SHF_STRINGS,1
	0x4304f137		.L.str.483
.rodata.str1.1	0x4304f17b	0x1c	./out/src/duk/duktape.o	#SHT_PROGBITS,SHF_ALLOC|SHF_MERGE|SHF_STRINGS,1
	0x4304f17b		.L.str.484
.rodata.str1.1	0x4304f197	0x19	./out/src/duk/duktape.o	#SHT_PROGBITS,SHF_ALLOC|SHF_MERGE|SHF_STRINGS,1
	0x4304f197		.L.str.485
.rodata.str1.1	0x4304f1b0	0x42	./out/src/duk/duktape.o	#SHT_PROGBITS,SHF_ALLOC|SHF_MERGE|SHF_STRINGS,1
	0x4304f1b0		.L.str.486
.rodata.str1.1	0x4304f1f2	0x5	./out/src/duk/duktape.o	#SHT_PROGBITS,SHF_ALLOC|SHF_MERGE|SHF_STRINGS,1
	0x4304f1f2		.L.str.487
.rodata.str1.1	0x4304f1f7	0x15	./out/src/duk/duktape.o	#SHT_PROGBITS,SHF_ALLOC|SHF_MERGE|SHF_STRINGS,1
	0x4304f1f7		.L.str.488
.rodata.str1.1	0x4304f20c	0x20	./out/src/duk/duktape.o	#SHT_PROGBITS,SHF_ALLOC|SHF_MERGE|SHF_STRINGS,1
	0x4304f20c		.L.str.489
.rodata.str1.1	0x4304f22c	0x17	./out/src/duk/duktape.o	#SHT_PROGBITS,SHF_ALLOC|SHF_MERGE|SHF_STRINGS,1
	0x4304f22c		.L__func__.duk__parse_disjunction
.rodata.str1.1	0x4304f243	0x21	./out/src/duk/duktape.o	#SHT_PROGBITS,SHF_ALLOC|SHF_MERGE|SHF_STRINGS,1
	0x4304f243		.L.str.490
.rodata.str1.1	0x4304f264	0x22	./out/src/duk/duktape.o	#SHT_PROGBITS,SHF_ALLOC|SHF_MERGE|SHF_STRINGS,1
	0x4304f264		.L.str.491
.rodata.str1.1	0x4304f286	0x28	./out/src/duk/duktape.o	#SHT_PROGBITS,SHF_ALLOC|SHF_MERGE|SHF_STRINGS,1
	0x4304f286		.L.str.492
.rodata.str1.1	0x4304f2ae	0x29	./out/src/duk/duktape.o	#SHT_PROGBITS,SHF_ALLOC|SHF_MERGE|SHF_STRINGS,1
	0x4304f2ae		.L.str.493
.rodata.str1.1	0x4304f2d7	0x10	./out/src/duk/duktape.o	#SHT_PROGBITS,SHF_ALLOC|SHF_MERGE|SHF_STRINGS,1
	0x4304f2d7		.L.str.494
.rodata.str1.1	0x4304f2e7	0x1f	./out/src/duk/duktape.o	#SHT_PROGBITS,SHF_ALLOC|SHF_MERGE|SHF_STRINGS,1
	0x4304f2e7		.L.str.495
.rodata.str1.1	0x4304f306	0x1a	./out/src/duk/duktape.o	#SHT_PROGBITS,SHF_ALLOC|SHF_MERGE|SHF_STRINGS,1
	0x4304f306		.L.str.496
.rodata.str1.1	0x4304f320	0x1b	./out/src/duk/duktape.o	#SHT_PROGBITS,SHF_ALLOC|SHF_MERGE|SHF_STRINGS,1
	0x4304f320		.L.str.497
.rodata.str1.1	0x4304f33b	0x16	./out/src/duk/duktape.o	#SHT_PROGBITS,SHF_ALLOC|SHF_MERGE|SHF_STRINGS,1
	0x4304f33b		.L.str.498
.rodata.str1.1	0x4304f351	0x15	./out/src/duk/duktape.o	#SHT_PROGBITS,SHF_ALLOC|SHF_MERGE|SHF_STRINGS,1
	0x4304f351		.L.str.499
.rodata.str1.1	0x4304f366	0x1a	./out/src/duk/duktape.o	#SHT_PROGBITS,SHF_ALLOC|SHF_MERGE|SHF_STRINGS,1
	0x4304f366		.L__func__.duk_lexer_parse_re_ranges
.rodata.str1.1	0x4304f380	0x16	./out/src/duk/duktape.o	#SHT_PROGBITS,SHF_ALLOC|SHF_MERGE|SHF_STRINGS,1
	0x4304f380		.L.str.500
.rodata.str1.1	0x4304f396	0xe	./out/src/duk/duktape.o	#SHT_PROGBITS,SHF_ALLOC|SHF_MERGE|SHF_STRINGS,1
	0x4304f396		.L.str.501
.rodata.str1.1	0x4304f3a4	0x1d	./out/src/duk/duktape.o	#SHT_PROGBITS,SHF_ALLOC|SHF_MERGE|SHF_STRINGS,1
	0x4304f3a4		.L.str.502
.rodata.str1.1	0x4304f3c1	0x1c	./out/src/duk/duktape.o	#SHT_PROGBITS,SHF_ALLOC|SHF_MERGE|SHF_STRINGS,1
	0x4304f3c1		.L__func__.duk__regexp_generate_ranges
.rodata.str1.1	0x4304f3dd	0x45	./out/src/duk/duktape.o	#SHT_PROGBITS,SHF_ALLOC|SHF_MERGE|SHF_STRINGS,1
	0x4304f3dd		.L.str.503
.rodata.str1.1	0x4304f422	0x34	./out/src/duk/duktape.o	#SHT_PROGBITS,SHF_ALLOC|SHF_MERGE|SHF_STRINGS,1
	0x4304f422		.L.str.504
.rodata.str1.1	0x4304f456	0x29	./out/src/duk/duktape.o	#SHT_PROGBITS,SHF_ALLOC|SHF_MERGE|SHF_STRINGS,1
	0x4304f456		.L.str.505
.rodata.str1.1	0x4304f47f	0x16	./out/src/duk/duktape.o	#SHT_PROGBITS,SHF_ALLOC|SHF_MERGE|SHF_STRINGS,1
	0x4304f47f		.L.str.506
.rodata.str1.1	0x4304f495	0x17	./out/src/duk/duktape.o	#SHT_PROGBITS,SHF_ALLOC|SHF_MERGE|SHF_STRINGS,1
	0x4304f495		.L.str.507
.rodata.str1.1	0x4304f4ac	0xe	./out/src/duk/duktape.o	#SHT_PROGBITS,SHF_ALLOC|SHF_MERGE|SHF_STRINGS,1
	0x4304f4ac		.L__func__.duk__expr_led
.rodata.str1.1	0x4304f4ba	0x23	./out/src/duk/duktape.o	#SHT_PROGBITS,SHF_ALLOC|SHF_MERGE|SHF_STRINGS,1
	0x4304f4ba		.L.str.508
.rodata.str1.1	0x4304f4dd	0x3d	./out/src/duk/duktape.o	#SHT_PROGBITS,SHF_ALLOC|SHF_MERGE|SHF_STRINGS,1
	0x4304f4dd		.L.str.509
.rodata.str1.1	0x4304f51a	0x35	./out/src/duk/duktape.o	#SHT_PROGBITS,SHF_ALLOC|SHF_MERGE|SHF_STRINGS,1
	0x4304f51a		.L.str.510
.rodata.str1.1	0x4304f54f	0x36	./out/src/duk/duktape.o	#SHT_PROGBITS,SHF_ALLOC|SHF_MERGE|SHF_STRINGS,1
	0x4304f54f		.L.str.511
.rodata.str1.1	0x4304f585	0x4f	./out/src/duk/duktape.o	#SHT_PROGBITS,SHF_ALLOC|SHF_MERGE|SHF_STRINGS,1
	0x4304f585		.L.str.512
.rodata.str1.1	0x4304f5d4	0x57	./out/src/duk/duktape.o	#SHT_PROGBITS,SHF_ALLOC|SHF_MERGE|SHF_STRINGS,1
	0x4304f5d4		.L.str.513
.rodata.str1.1	0x4304f62b	0xf	./out/src/duk/duktape.o	#SHT_PROGBITS,SHF_ALLOC|SHF_MERGE|SHF_STRINGS,1
	0x4304f62b		.L.str.514
.rodata.str1.1	0x4304f63a	0x28	./out/src/duk/duktape.o	#SHT_PROGBITS,SHF_ALLOC|SHF_MERGE|SHF_STRINGS,1
	0x4304f63a		.L__func__.duk__init_varmap_and_prologue_for_pass2
.rodata.str1.1	0x4304f662	0x3d	./out/src/duk/duktape.o	#SHT_PROGBITS,SHF_ALLOC|SHF_MERGE|SHF_STRINGS,1
	0x4304f662		.L.str.515
.rodata.str1.1	0x4304f69f	0x25	./out/src/duk/duktape.o	#SHT_PROGBITS,SHF_ALLOC|SHF_MERGE|SHF_STRINGS,1
	0x4304f69f		.L.str.516
.rodata.str1.1	0x4304f6c4	0x16	./out/src/duk/duktape.o	#SHT_PROGBITS,SHF_ALLOC|SHF_MERGE|SHF_STRINGS,1
	0x4304f6c4		.L.str.517
.rodata.str1.1	0x4304f6da	0x20	./out/src/duk/duktape.o	#SHT_PROGBITS,SHF_ALLOC|SHF_MERGE|SHF_STRINGS,1
	0x4304f6da		.L__func__.duk__peephole_optimize_bytecode
.rodata.str1.1	0x4304f6fa	0x2a	./out/src/duk/duktape.o	#SHT_PROGBITS,SHF_ALLOC|SHF_MERGE|SHF_STRINGS,1
	0x4304f6fa		.L.str.518
.rodata.str1.1	0x4304f724	0x1e	./out/src/duk/duktape.o	#SHT_PROGBITS,SHF_ALLOC|SHF_MERGE|SHF_STRINGS,1
	0x4304f724		.L__func__.duk__convert_to_func_template
.rodata.str1.1	0x4304f742	0x78	./out/src/duk/duktape.o	#SHT_PROGBITS,SHF_ALLOC|SHF_MERGE|SHF_STRINGS,1
	0x4304f742		.L.str.519
.rodata.str1.1	0x4304f7ba	0x11	./out/src/duk/duktape.o	#SHT_PROGBITS,SHF_ALLOC|SHF_MERGE|SHF_STRINGS,1
	0x4304f7ba		.L.str.520
.rodata.str1.1	0x4304f7cb	0x30	./out/src/duk/duktape.o	#SHT_PROGBITS,SHF_ALLOC|SHF_MERGE|SHF_STRINGS,1
	0x4304f7cb		.L.str.521
.rodata.str1.1	0x4304f7fb	0x32	./out/src/duk/duktape.o	#SHT_PROGBITS,SHF_ALLOC|SHF_MERGE|SHF_STRINGS,1
	0x4304f7fb		.L.str.522
.rodata.str1.1	0x4304f82d	0x64	./out/src/duk/duktape.o	#SHT_PROGBITS,SHF_ALLOC|SHF_MERGE|SHF_STRINGS,1
	0x4304f82d		.L.str.523
.rodata.str1.1	0x4304f891	0x49	./out/src/duk/duktape.o	#SHT_PROGBITS,SHF_ALLOC|SHF_MERGE|SHF_STRINGS,1
	0x4304f891		.L.str.524
.rodata.str1.1	0x4304f8da	0x27	./out/src/duk/duktape.o	#SHT_PROGBITS,SHF_ALLOC|SHF_MERGE|SHF_STRINGS,1
	0x4304f8da		.L.str.525
.rodata.str1.1	0x4304f901	0x1a	./out/src/duk/duktape.o	#SHT_PROGBITS,SHF_ALLOC|SHF_MERGE|SHF_STRINGS,1
	0x4304f901		.L.str.526
.rodata.str1.1	0x4304f91b	0x14	./out/src/duk/duktape.o	#SHT_PROGBITS,SHF_ALLOC|SHF_MERGE|SHF_STRINGS,1
	0x4304f91b		.L__func__.duk_js_push_closure
.rodata.str1.1	0x4304f92f	0x41	./out/src/duk/duktape.o	#SHT_PROGBITS,SHF_ALLOC|SHF_MERGE|SHF_STRINGS,1
	0x4304f92f		.L.str.527
.rodata.str1.1	0x4304f970	0x24	./out/src/duk/duktape.o	#SHT_PROGBITS,SHF_ALLOC|SHF_MERGE|SHF_STRINGS,1
	0x4304f970		.L.str.528
.rodata.str1.1	0x4304f994	0x2b	./out/src/duk/duktape.o	#SHT_PROGBITS,SHF_ALLOC|SHF_MERGE|SHF_STRINGS,1
	0x4304f994		.L.str.529
.rodata.str1.1	0x4304f9bf	0x26	./out/src/duk/duktape.o	#SHT_PROGBITS,SHF_ALLOC|SHF_MERGE|SHF_STRINGS,1
	0x4304f9bf		.L.str.530
.rodata.str1.1	0x4304f9e5	0x24	./out/src/duk/duktape.o	#SHT_PROGBITS,SHF_ALLOC|SHF_MERGE|SHF_STRINGS,1
	0x4304f9e5		.L.str.531
.rodata.str1.1	0x4304fa09	0x1a	./out/src/duk/duktape.o	#SHT_PROGBITS,SHF_ALLOC|SHF_MERGE|SHF_STRINGS,1
	0x4304fa09		.L__func__.duk_default_fatal_handler
.rodata.str1.1	0x4304fa23	0x2e	./out/src/duk/duktape.o	#SHT_PROGBITS,SHF_ALLOC|SHF_MERGE|SHF_STRINGS,1
	0x4304fa23		.L.str.532
.rodata.str1.1	0x4304fa51	0x16	./out/src/duk/duktape.o	#SHT_PROGBITS,SHF_ALLOC|SHF_MERGE|SHF_STRINGS,1
	0x4304fa51		.L.str.533
.rodata.str1.1	0x4304fa67	0x13	./out/src/duk/duktape.o	#SHT_PROGBITS,SHF_ALLOC|SHF_MERGE|SHF_STRINGS,1
	0x4304fa67		.L.str.536
.rodata.str1.1	0x4304fa7a	0x14	./out/src/duk/duktape.o	#SHT_PROGBITS,SHF_ALLOC|SHF_MERGE|SHF_STRINGS,1
	0x4304fa7a		.L__func__.duk_hobject_putprop
.rodata.str1.1	0x4304fa8e	0x2e	./out/src/duk/duktape.o	#SHT_PROGBITS,SHF_ALLOC|SHF_MERGE|SHF_STRINGS,1
	0x4304fa8e		.L.str.537
.rodata.str1.1	0x4304fabc	0x34	./out/src/duk/duktape.o	#SHT_PROGBITS,SHF_ALLOC|SHF_MERGE|SHF_STRINGS,1
	0x4304fabc		.L.str.538
.rodata.str1.1	0x4304faf0	0x3c	./out/src/duk/duktape.o	#SHT_PROGBITS,SHF_ALLOC|SHF_MERGE|SHF_STRINGS,1
	0x4304faf0		.L.str.539
.rodata.str1.1	0x4304fb2c	0x4f	./out/src/duk/duktape.o	#SHT_PROGBITS,SHF_ALLOC|SHF_MERGE|SHF_STRINGS,1
	0x4304fb2c		.L.str.540
.rodata.str1.1	0x4304fb7b	0x6f	./out/src/duk/duktape.o	#SHT_PROGBITS,SHF_ALLOC|SHF_MERGE|SHF_STRINGS,1
	0x4304fb7b		.L.str.541
.rodata.str1.1	0x4304fbea	0x51	./out/src/duk/duktape.o	#SHT_PROGBITS,SHF_ALLOC|SHF_MERGE|SHF_STRINGS,1
	0x4304fbea		.L.str.542
.rodata.str1.1	0x4304fc3b	0x50	./out/src/duk/duktape.o	#SHT_PROGBITS,SHF_ALLOC|SHF_MERGE|SHF_STRINGS,1
	0x4304fc3b		.L.str.543
.rodata.str1.1	0x4304fc8b	0x4a	./out/src/duk/duktape.o	#SHT_PROGBITS,SHF_ALLOC|SHF_MERGE|SHF_STRINGS,1
	0x4304fc8b		.L.str.544
.rodata.str1.1	0x4304fcd5	0x2e	./out/src/duk/duktape.o	#SHT_PROGBITS,SHF_ALLOC|SHF_MERGE|SHF_STRINGS,1
	0x4304fcd5		.L.str.545
.rodata.str1.1	0x4304fd03	0x41	./out/src/duk/duktape.o	#SHT_PROGBITS,SHF_ALLOC|SHF_MERGE|SHF_STRINGS,1
	0x4304fd03		.L.str.546
.rodata.str1.1	0x4304fd44	0x1b	./out/src/duk/duktape.o	#SHT_PROGBITS,SHF_ALLOC|SHF_MERGE|SHF_STRINGS,1
	0x4304fd44		.L.str.547
.rodata.str1.1	0x4304fd5f	0x39	./out/src/duk/duktape.o	#SHT_PROGBITS,SHF_ALLOC|SHF_MERGE|SHF_STRINGS,1
	0x4304fd5f		.L.str.548
.rodata.str1.1	0x4304fd98	0x59	./out/src/duk/duktape.o	#SHT_PROGBITS,SHF_ALLOC|SHF_MERGE|SHF_STRINGS,1
	0x4304fd98		.L.str.549
.rodata.str1.1	0x4304fdf1	0x38	./out/src/duk/duktape.o	#SHT_PROGBITS,SHF_ALLOC|SHF_MERGE|SHF_STRINGS,1
	0x4304fdf1		.L.str.550
.rodata.str1.1	0x4304fe29	0x3e	./out/src/duk/duktape.o	#SHT_PROGBITS,SHF_ALLOC|SHF_MERGE|SHF_STRINGS,1
	0x4304fe29		.L.str.551
.rodata.str1.1	0x4304fe67	0x3c	./out/src/duk/duktape.o	#SHT_PROGBITS,SHF_ALLOC|SHF_MERGE|SHF_STRINGS,1
	0x4304fe67		.L.str.552
.rodata.str1.1	0x4304fea3	0x23	./out/src/duk/duktape.o	#SHT_PROGBITS,SHF_ALLOC|SHF_MERGE|SHF_STRINGS,1
	0x4304fea3		.L.str.553
.rodata.str1.1	0x4304fec6	0xf	./out/src/duk/duktape.o	#SHT_PROGBITS,SHF_ALLOC|SHF_MERGE|SHF_STRINGS,1
	0x4304fec6		.L.str.554
.rodata.str1.1	0x4304fed5	0xd	./out/src/duk/duktape.o	#SHT_PROGBITS,SHF_ALLOC|SHF_MERGE|SHF_STRINGS,1
	0x4304fed5		.L.str.555
.rodata.str1.1	0x4304fee2	0x3c	./out/src/duk/duktape.o	#SHT_PROGBITS,SHF_ALLOC|SHF_MERGE|SHF_STRINGS,1
	0x4304fee2		.L.str.556
.rodata.str1.1	0x4304ff1e	0x11	./out/src/duk/duktape.o	#SHT_PROGBITS,SHF_ALLOC|SHF_MERGE|SHF_STRINGS,1
	0x4304ff1e		.L.str.557
.rodata.str1.1	0x4304ff2f	0x22	./out/src/duk/duktape.o	#SHT_PROGBITS,SHF_ALLOC|SHF_MERGE|SHF_STRINGS,1
	0x4304ff2f		.L__func__.duk__putprop_fastpath_bufobj_tval
.rodata.str1.1	0x4304ff51	0x18	./out/src/duk/duktape.o	#SHT_PROGBITS,SHF_ALLOC|SHF_MERGE|SHF_STRINGS,1
	0x4304ff51		.L__func__.duk_hobject_delprop_raw
.rodata.str1.1	0x4304ff69	0x2e	./out/src/duk/duktape.o	#SHT_PROGBITS,SHF_ALLOC|SHF_MERGE|SHF_STRINGS,1
	0x4304ff69		.L.str.558
.rodata.str1.1	0x4304ff97	0x59	./out/src/duk/duktape.o	#SHT_PROGBITS,SHF_ALLOC|SHF_MERGE|SHF_STRINGS,1
	0x4304ff97		.L.str.559
.rodata.str1.1	0x4304fff0	0x20	./out/src/duk/duktape.o	#SHT_PROGBITS,SHF_ALLOC|SHF_MERGE|SHF_STRINGS,1
	0x4304fff0		.L__func__.duk_heap_strcache_string_remove
.rodata.str1.1	0x43050010	0x3c	./out/src/duk/duktape.o	#SHT_PROGBITS,SHF_ALLOC|SHF_MERGE|SHF_STRINGS,1
	0x43050010		.L.str.560
.rodata.str1.1	0x4305004c	0x1e	./out/src/duk/duktape.o	#SHT_PROGBITS,SHF_ALLOC|SHF_MERGE|SHF_STRINGS,1
	0x4305004c		.L__func__.duk__refcount_refzero_hobject
.rodata.str1.1	0x4305006a	0x3c	./out/src/duk/duktape.o	#SHT_PROGBITS,SHF_ALLOC|SHF_MERGE|SHF_STRINGS,1
	0x4305006a		.L.str.561
.rodata.str1.1	0x430500a6	0x23	./out/src/duk/duktape.o	#SHT_PROGBITS,SHF_ALLOC|SHF_MERGE|SHF_STRINGS,1
	0x430500a6		.L__func__.duk_hobject_has_finalizer_fast_raw
.rodata.str1.1	0x430500c9	0x46	./out/src/duk/duktape.o	#SHT_PROGBITS,SHF_ALLOC|SHF_MERGE|SHF_STRINGS,1
	0x430500c9		.L.str.562
.rodata.str1.1	0x4305010f	0x1f	./out/src/duk/duktape.o	#SHT_PROGBITS,SHF_ALLOC|SHF_MERGE|SHF_STRINGS,1
	0x4305010f		.L__func__.duk_heap_process_finalize_list
.rodata.str1.1	0x4305012e	0x2b	./out/src/duk/duktape.o	#SHT_PROGBITS,SHF_ALLOC|SHF_MERGE|SHF_STRINGS,1
	0x4305012e		.L.str.563
.rodata.str1.1	0x43050159	0x2e	./out/src/duk/duktape.o	#SHT_PROGBITS,SHF_ALLOC|SHF_MERGE|SHF_STRINGS,1
	0x43050159		.L.str.564
.rodata.str1.1	0x43050187	0x4a	./out/src/duk/duktape.o	#SHT_PROGBITS,SHF_ALLOC|SHF_MERGE|SHF_STRINGS,1
	0x43050187		.L.str.565
.rodata.str1.1	0x430501d1	0x50	./out/src/duk/duktape.o	#SHT_PROGBITS,SHF_ALLOC|SHF_MERGE|SHF_STRINGS,1
	0x430501d1		.L.str.566
.rodata.str1.1	0x43050221	0x4c	./out/src/duk/duktape.o	#SHT_PROGBITS,SHF_ALLOC|SHF_MERGE|SHF_STRINGS,1
	0x43050221		.L.str.567
.rodata.str1.1	0x4305026d	0x2c	./out/src/duk/duktape.o	#SHT_PROGBITS,SHF_ALLOC|SHF_MERGE|SHF_STRINGS,1
	0x4305026d		.L.str.568
.rodata.str1.1	0x43050299	0x25	./out/src/duk/duktape.o	#SHT_PROGBITS,SHF_ALLOC|SHF_MERGE|SHF_STRINGS,1
	0x43050299		.L.str.569
.rodata.str1.1	0x430502be	0x36	./out/src/duk/duktape.o	#SHT_PROGBITS,SHF_ALLOC|SHF_MERGE|SHF_STRINGS,1
	0x430502be		.L.str.570
.rodata.str1.1	0x430502f4	0x17	./out/src/duk/duktape.o	#SHT_PROGBITS,SHF_ALLOC|SHF_MERGE|SHF_STRINGS,1
	0x430502f4		.L__func__.duk_heap_run_finalizer
.rodata.str1.1	0x4305030b	0x2d	./out/src/duk/duktape.o	#SHT_PROGBITS,SHF_ALLOC|SHF_MERGE|SHF_STRINGS,1
	0x4305030b		.L.str.571
.rodata.str1.1	0x43050338	0x42	./out/src/duk/duktape.o	#SHT_PROGBITS,SHF_ALLOC|SHF_MERGE|SHF_STRINGS,1
	0x43050338		.L.str.572
.rodata.str1.1	0x4305037a	0x23	./out/src/duk/duktape.o	#SHT_PROGBITS,SHF_ALLOC|SHF_MERGE|SHF_STRINGS,1
	0x4305037a		.L__func__.duk_hobject_refcount_finalize_norz
.rodata.str1.1	0x4305039d	0x2e	./out/src/duk/duktape.o	#SHT_PROGBITS,SHF_ALLOC|SHF_MERGE|SHF_STRINGS,1
	0x4305039d		.L.str.573
.rodata.str1.1	0x430503cb	0x20	./out/src/duk/duktape.o	#SHT_PROGBITS,SHF_ALLOC|SHF_MERGE|SHF_STRINGS,1
	0x430503cb		.L.str.574
.rodata.str1.1	0x430503eb	0x1b	./out/src/duk/duktape.o	#SHT_PROGBITS,SHF_ALLOC|SHF_MERGE|SHF_STRINGS,1
	0x430503eb		.L__func__.duk__refcount_free_pending
.rodata.str1.1	0x43050406	0x1e	./out/src/duk/duktape.o	#SHT_PROGBITS,SHF_ALLOC|SHF_MERGE|SHF_STRINGS,1
	0x43050406		.L.str.575
.rodata.str1.1	0x43050424	0x14	./out/src/duk/duktape.o	#SHT_PROGBITS,SHF_ALLOC|SHF_MERGE|SHF_STRINGS,1
	0x43050424		.L__func__.duk_seal_freeze_raw
.rodata.str1.1	0x43050438	0x1e	./out/src/duk/duktape.o	#SHT_PROGBITS,SHF_ALLOC|SHF_MERGE|SHF_STRINGS,1
	0x43050438		.L.str.576
.rodata.str1.1	0x43050456	0x26	./out/src/duk/duktape.o	#SHT_PROGBITS,SHF_ALLOC|SHF_MERGE|SHF_STRINGS,1
	0x43050456		.L__func__.duk_hobject_object_seal_freeze_helper
.rodata.str1.1	0x4305047c	0x31	./out/src/duk/duktape.o	#SHT_PROGBITS,SHF_ALLOC|SHF_MERGE|SHF_STRINGS,1
	0x4305047c		.L.str.577
.rodata.str1.1	0x430504ad	0x18	./out/src/duk/duktape.o	#SHT_PROGBITS,SHF_ALLOC|SHF_MERGE|SHF_STRINGS,1
	0x430504ad		.L.str.578
.rodata.str1.1	0x430504c5	0xf	./out/src/duk/duktape.o	#SHT_PROGBITS,SHF_ALLOC|SHF_MERGE|SHF_STRINGS,1
	0x430504c5		.L.str.579
.rodata.str1.1	0x430504d4	0x15	./out/src/duk/duktape.o	#SHT_PROGBITS,SHF_ALLOC|SHF_MERGE|SHF_STRINGS,1
	0x430504d4		.L__func__.duk__resize_valstack
.rodata.str1.1	0x430504e9	0x35	./out/src/duk/duktape.o	#SHT_PROGBITS,SHF_ALLOC|SHF_MERGE|SHF_STRINGS,1
	0x430504e9		.L.str.580
.rodata.str1.1	0x4305051e	0x3f	./out/src/duk/duktape.o	#SHT_PROGBITS,SHF_ALLOC|SHF_MERGE|SHF_STRINGS,1
	0x4305051e		.L.str.581
.rodata.str1.1	0x4305055d	0x41	./out/src/duk/duktape.o	#SHT_PROGBITS,SHF_ALLOC|SHF_MERGE|SHF_STRINGS,1
	0x4305055d		.L.str.582
.rodata.str1.1	0x4305059e	0x3e	./out/src/duk/duktape.o	#SHT_PROGBITS,SHF_ALLOC|SHF_MERGE|SHF_STRINGS,1
	0x4305059e		.L.str.583
.rodata.str1.1	0x430505dc	0x3e	./out/src/duk/duktape.o	#SHT_PROGBITS,SHF_ALLOC|SHF_MERGE|SHF_STRINGS,1
	0x430505dc		.L.str.584
.rodata.str1.1	0x4305061a	0x44	./out/src/duk/duktape.o	#SHT_PROGBITS,SHF_ALLOC|SHF_MERGE|SHF_STRINGS,1
	0x4305061a		.L.str.585
.rodata.str1.1	0x4305065e	0xd6	./out/src/duk/duktape.o	#SHT_PROGBITS,SHF_ALLOC|SHF_MERGE|SHF_STRINGS,1
	0x4305065e		.L.str.586
.rodata.str1.1	0x43050734	0x1e	./out/src/duk/duktape.o	#SHT_PROGBITS,SHF_ALLOC|SHF_MERGE|SHF_STRINGS,1
	0x43050734		.L__func__.duk_heap_mem_realloc_indirect
.rodata.str1.1	0x43050752	0x62	./out/src/duk/duktape.o	#SHT_PROGBITS,SHF_ALLOC|SHF_MERGE|SHF_STRINGS,1
	0x43050752		.L.str.587
.rodata.str1.1	0x430507b4	0x3f	./out/src/duk/duktape.o	#SHT_PROGBITS,SHF_ALLOC|SHF_MERGE|SHF_STRINGS,1
	0x430507b4		.L.str.588
.rodata.str1.1	0x430507f3	0x28	./out/src/duk/duktape.o	#SHT_PROGBITS,SHF_ALLOC|SHF_MERGE|SHF_STRINGS,1
	0x430507f3		.L__func__.duk__heap_mem_realloc_indirect_slowpath
.rodata.str1.1	0x4305081b	0x35	./out/src/duk/duktape.o	#SHT_PROGBITS,SHF_ALLOC|SHF_MERGE|SHF_STRINGS,1
	0x4305081b		.L.str.589
.rodata.str1.1	0x43050850	0x39	./out/src/duk/duktape.o	#SHT_PROGBITS,SHF_ALLOC|SHF_MERGE|SHF_STRINGS,1
	0x43050850		.L.str.590
.rodata.str1.1	0x43050889	0x4e	./out/src/duk/duktape.o	#SHT_PROGBITS,SHF_ALLOC|SHF_MERGE|SHF_STRINGS,1
	0x43050889		.L.str.591
.rodata.str1.1	0x430508d7	0x45	./out/src/duk/duktape.o	#SHT_PROGBITS,SHF_ALLOC|SHF_MERGE|SHF_STRINGS,1
	0x430508d7		.L.str.592
.rodata.str1.1	0x4305091c	0x23	./out/src/duk/duktape.o	#SHT_PROGBITS,SHF_ALLOC|SHF_MERGE|SHF_STRINGS,1
	0x4305091c		.L.str.593
.rodata.str1.1	0x4305093f	0x28	./out/src/duk/duktape.o	#SHT_PROGBITS,SHF_ALLOC|SHF_MERGE|SHF_STRINGS,1
	0x4305093f		.L.str.594
.rodata.str1.1	0x43050967	0x1d	./out/src/duk/duktape.o	#SHT_PROGBITS,SHF_ALLOC|SHF_MERGE|SHF_STRINGS,1
	0x43050967		.L.str.595
.rodata.str1.1	0x43050984	0x8	./out/src/duk/duktape.o	#SHT_PROGBITS,SHF_ALLOC|SHF_MERGE|SHF_STRINGS,1
	0x43050984		.L.str.596
.rodata.str1.1	0x4305098c	0x7	./out/src/duk/duktape.o	#SHT_PROGBITS,SHF_ALLOC|SHF_MERGE|SHF_STRINGS,1
	0x4305098c		.L.str.597
.rodata.str1.1	0x43050993	0x6	./out/src/duk/duktape.o	#SHT_PROGBITS,SHF_ALLOC|SHF_MERGE|SHF_STRINGS,1
	0x43050993		.L.str.598
.rodata.str1.1	0x43050999	0xd	./out/src/duk/duktape.o	#SHT_PROGBITS,SHF_ALLOC|SHF_MERGE|SHF_STRINGS,1
	0x43050999		.L.str.599
.rodata.str1.1	0x430509a6	0xa	./out/src/duk/duktape.o	#SHT_PROGBITS,SHF_ALLOC|SHF_MERGE|SHF_STRINGS,1
	0x430509a6		.L.str.600
.rodata.str1.1	0x430509b0	0x18	./out/src/duk/duktape.o	#SHT_PROGBITS,SHF_ALLOC|SHF_MERGE|SHF_STRINGS,1
	0x430509b0		.L.str.601
.rodata.str1.1	0x430509c8	0xf	./out/src/duk/duktape.o	#SHT_PROGBITS,SHF_ALLOC|SHF_MERGE|SHF_STRINGS,1
	0x430509c8		.L.str.602
.rodata.str1.1	0x430509d7	0x1c	./out/src/duk/duktape.o	#SHT_PROGBITS,SHF_ALLOC|SHF_MERGE|SHF_STRINGS,1
	0x430509d7		.L__func__.duk_bi_array_prototype_push
.rodata.str1.1	0x430509f3	0x3c	./out/src/duk/duktape.o	#SHT_PROGBITS,SHF_ALLOC|SHF_MERGE|SHF_STRINGS,1
	0x430509f3		.L.str.603
.rodata.str1.1	0x43050a2f	0x1e	./out/src/duk/duktape.o	#SHT_PROGBITS,SHF_ALLOC|SHF_MERGE|SHF_STRINGS,1
	0x43050a2f		.L__func__.duk_bi_array_prototype_splice
.rodata.str1.1	0x43050a4d	0x3e	./out/src/duk/duktape.o	#SHT_PROGBITS,SHF_ALLOC|SHF_MERGE|SHF_STRINGS,1
	0x43050a4d		.L.str.604
.rodata.str1.1	0x43050a8b	0x15	./out/src/duk/duktape.o	#SHT_PROGBITS,SHF_ALLOC|SHF_MERGE|SHF_STRINGS,1
	0x43050a8b		.L.str.605
.rodata.str1.1	0x43050aa0	0x1f	./out/src/duk/duktape.o	#SHT_PROGBITS,SHF_ALLOC|SHF_MERGE|SHF_STRINGS,1
	0x43050aa0		.L__func__.duk_bi_array_prototype_unshift
.rodata.str1.1	0x43050abf	0x3f	./out/src/duk/duktape.o	#SHT_PROGBITS,SHF_ALLOC|SHF_MERGE|SHF_STRINGS,1
	0x43050abf		.L.str.606
.rodata.str1.1	0x43050afe	0x1e	./out/src/duk/duktape.o	#SHT_PROGBITS,SHF_ALLOC|SHF_MERGE|SHF_STRINGS,1
	0x43050afe		.L__func__.duk_bi_typedarray_constructor
.rodata.str1.1	0x43050b1c	0x64	./out/src/duk/duktape.o	#SHT_PROGBITS,SHF_ALLOC|SHF_MERGE|SHF_STRINGS,1
	0x43050b1c		.L.str.607
.rodata.str1.1	0x43050b80	0xb	./out/src/duk/duktape.o	#SHT_PROGBITS,SHF_ALLOC|SHF_MERGE|SHF_STRINGS,1
	0x43050b80		.L.str.608
.rodata.str1.1	0x43050b8b	0x10	./out/src/duk/duktape.o	#SHT_PROGBITS,SHF_ALLOC|SHF_MERGE|SHF_STRINGS,1
	0x43050b8b		.L.str.609
.rodata.str1.1	0x43050b9b	0x1a	./out/src/duk/duktape.o	#SHT_PROGBITS,SHF_ALLOC|SHF_MERGE|SHF_STRINGS,1
	0x43050b9b		.L__func__.duk__hbufobj_promote_this
.rodata.str1.1	0x43050bb5	0x36	./out/src/duk/duktape.o	#SHT_PROGBITS,SHF_ALLOC|SHF_MERGE|SHF_STRINGS,1
	0x43050bb5		.L.str.610
.rodata.str1.1	0x43050beb	0x7	./out/src/duk/duktape.o	#SHT_PROGBITS,SHF_ALLOC|SHF_MERGE|SHF_STRINGS,1
	0x43050beb		.L.str.611
.rodata.str1.1	0x43050bf2	0x13	./out/src/duk/duktape.o	#SHT_PROGBITS,SHF_ALLOC|SHF_MERGE|SHF_STRINGS,1
	0x43050bf2		.L__func__.duk__decode_helper
.rodata.str1.1	0x43050c05	0x2a	./out/src/duk/duktape.o	#SHT_PROGBITS,SHF_ALLOC|SHF_MERGE|SHF_STRINGS,1
	0x43050c05		.L.str.612
.rodata.str1.1	0x43050c2f	0x14	./out/src/duk/duktape.o	#SHT_PROGBITS,SHF_ALLOC|SHF_MERGE|SHF_STRINGS,1
	0x43050c2f		.L.str.613
.rodata.str1.1	0x43050c43	0x5	./out/src/duk/duktape.o	#SHT_PROGBITS,SHF_ALLOC|SHF_MERGE|SHF_STRINGS,1
	0x43050c43		.L.str.614
.rodata.str1.1	0x43050c48	0x6	./out/src/duk/duktape.o	#SHT_PROGBITS,SHF_ALLOC|SHF_MERGE|SHF_STRINGS,1
	0x43050c48		duk__buffer_nbytes_from_fldtype
.rodata.str1.1	0x43050c4e	0x20	./out/src/duk/duktape.o	#SHT_PROGBITS,SHF_ALLOC|SHF_MERGE|SHF_STRINGS,1
	0x43050c4e		.L__func__.duk_bi_typedarray_buffer_getter
.rodata.str1.1	0x43050c6e	0x27	./out/src/duk/duktape.o	#SHT_PROGBITS,SHF_ALLOC|SHF_MERGE|SHF_STRINGS,1
	0x43050c6e		.L.str.615
.rodata.str1.1	0x43050c95	0x32	./out/src/duk/duktape.o	#SHT_PROGBITS,SHF_ALLOC|SHF_MERGE|SHF_STRINGS,1
	0x43050c95		.L.str.616
.rodata.str1.1	0x43050cc7	0x21	./out/src/duk/duktape.o	#SHT_PROGBITS,SHF_ALLOC|SHF_MERGE|SHF_STRINGS,1
	0x43050cc7		.L__func__.duk__cbor_encode_ensure_slowpath
.rodata.str1.1	0x43050ce8	0x22	./out/src/duk/duktape.o	#SHT_PROGBITS,SHF_ALLOC|SHF_MERGE|SHF_STRINGS,1
	0x43050ce8		.L.str.617
.rodata.str1.1	0x43050d0a	0x17	./out/src/duk/duktape.o	#SHT_PROGBITS,SHF_ALLOC|SHF_MERGE|SHF_STRINGS,1
	0x43050d0a		.L.str.618
.rodata.str1.1	0x43050d21	0x5	./out/src/duk/duktape.o	#SHT_PROGBITS,SHF_ALLOC|SHF_MERGE|SHF_STRINGS,1
	0x43050d21		.L.str.619
.rodata.str1.1	0x43050d26	0x12	./out/src/duk/duktape.o	#SHT_PROGBITS,SHF_ALLOC|SHF_MERGE|SHF_STRINGS,1
	0x43050d26		.L.str.620
.rodata.str1.1	0x43050d38	0x11	./out/src/duk/duktape.o	#SHT_PROGBITS,SHF_ALLOC|SHF_MERGE|SHF_STRINGS,1
	0x43050d38		.L.str.621
.rodata.str1.1	0x43050d49	0x17	./out/src/duk/duktape.o	#SHT_PROGBITS,SHF_ALLOC|SHF_MERGE|SHF_STRINGS,1
	0x43050d49		.L.str.622
.rodata.str1.1	0x43050d60	0x12	./out/src/duk/duktape.o	#SHT_PROGBITS,SHF_ALLOC|SHF_MERGE|SHF_STRINGS,1
	0x43050d60		.L.str.623
.rodata.str1.1	0x43050d72	0xe	./out/src/duk/duktape.o	#SHT_PROGBITS,SHF_ALLOC|SHF_MERGE|SHF_STRINGS,1
	0x43050d72		.L__func__.duk__make_day
.rodata.str1.1	0x43050d80	0x40	./out/src/duk/duktape.o	#SHT_PROGBITS,SHF_ALLOC|SHF_MERGE|SHF_STRINGS,1
	0x43050d80		.L.str.624
.rodata.str1.1	0x43050dc0	0x8	./out/src/duk/duktape.o	#SHT_PROGBITS,SHF_ALLOC|SHF_MERGE|SHF_STRINGS,1
	0x43050dc0		duk__parse_iso8601_seps
.rodata.str1.1	0x43050dc8	0x3	./out/src/duk/duktape.o	#SHT_PROGBITS,SHF_ALLOC|SHF_MERGE|SHF_STRINGS,1
	0x43050dc8		.L.str.625
.rodata.str1.1	0x43050dcb	0xe	./out/src/duk/duktape.o	#SHT_PROGBITS,SHF_ALLOC|SHF_MERGE|SHF_STRINGS,1
	0x43050dcb		.L.str.626
.rodata.str1.1	0x43050dd9	0xd	./out/src/duk/duktape.o	#SHT_PROGBITS,SHF_ALLOC|SHF_MERGE|SHF_STRINGS,1
	0x43050dd9		.L.str.627
.rodata.str1.1	0x43050de6	0x3	./out/src/duk/duktape.o	#SHT_PROGBITS,SHF_ALLOC|SHF_MERGE|SHF_STRINGS,1
	0x43050de6		.L.str.628
.rodata.str1.1	0x43050de9	0x3	./out/src/duk/duktape.o	#SHT_PROGBITS,SHF_ALLOC|SHF_MERGE|SHF_STRINGS,1
	0x43050de9		.L.str.629
.rodata.str1.1	0x43050dec	0x6	./out/src/duk/duktape.o	#SHT_PROGBITS,SHF_ALLOC|SHF_MERGE|SHF_STRINGS,1
	0x43050dec		.L.str.630
.rodata.str1.1	0x43050df2	0x7	./out/src/duk/duktape.o	#SHT_PROGBITS,SHF_ALLOC|SHF_MERGE|SHF_STRINGS,1
	0x43050df2		.L.str.631
.rodata.str1.1	0x43050df9	0x6	./out/src/duk/duktape.o	#SHT_PROGBITS,SHF_ALLOC|SHF_MERGE|SHF_STRINGS,1
	0x43050df9		.L.str.632
.rodata.str1.1	0x43050dff	0xb	./out/src/duk/duktape.o	#SHT_PROGBITS,SHF_ALLOC|SHF_MERGE|SHF_STRINGS,1
	0x43050dff		.L.str.633
.rodata.str1.1	0x43050e0a	0xb	./out/src/duk/duktape.o	#SHT_PROGBITS,SHF_ALLOC|SHF_MERGE|SHF_STRINGS,1
	0x43050e0a		.L.str.634
.rodata.str1.1	0x43050e15	0x24	./out/src/duk/duktape.o	#SHT_PROGBITS,SHF_ALLOC|SHF_MERGE|SHF_STRINGS,1
	0x43050e15		.L.str.635
.rodata.str1.1	0x43050e39	0xd	./out/src/duk/duktape.o	#SHT_PROGBITS,SHF_ALLOC|SHF_MERGE|SHF_STRINGS,1
	0x43050e39		.L.str.636
.rodata.str1.1	0x43050e46	0x16	./out/src/duk/duktape.o	#SHT_PROGBITS,SHF_ALLOC|SHF_MERGE|SHF_STRINGS,1
	0x43050e46		.L.str.637
.rodata.str1.1	0x43050e5c	0x6	./out/src/duk/duktape.o	#SHT_PROGBITS,SHF_ALLOC|SHF_MERGE|SHF_STRINGS,1
	0x43050e5c		.L.str.638
.rodata.str1.1	0x43050e62	0x3	./out/src/duk/duktape.o	#SHT_PROGBITS,SHF_ALLOC|SHF_MERGE|SHF_STRINGS,1
	0x43050e62		.L.str.639
.rodata.str1.1	0x43050e65	0x19	./out/src/duk/duktape.o	#SHT_PROGBITS,SHF_ALLOC|SHF_MERGE|SHF_STRINGS,1
	0x43050e65		.L__func__.duk__error_setter_helper
.rodata.str1.1	0x43050e7e	0x1a	./out/src/duk/duktape.o	#SHT_PROGBITS,SHF_ALLOC|SHF_MERGE|SHF_STRINGS,1
	0x43050e7e		.L.str.640
.rodata.str1.1	0x43050e98	0x2	./out/src/duk/duktape.o	#SHT_PROGBITS,SHF_ALLOC|SHF_MERGE|SHF_STRINGS,1
	0x43050e98		.L.str.641
.rodata.str1.1	0x43050e9a	0xa	./out/src/duk/duktape.o	#SHT_PROGBITS,SHF_ALLOC|SHF_MERGE|SHF_STRINGS,1
	0x43050e9a		.L.str.642
.rodata.str1.1	0x43050ea4	0x3	./out/src/duk/duktape.o	#SHT_PROGBITS,SHF_ALLOC|SHF_MERGE|SHF_STRINGS,1
	0x43050ea4		.L.str.643
.rodata.str1.1	0x43050ea7	0x3	./out/src/duk/duktape.o	#SHT_PROGBITS,SHF_ALLOC|SHF_MERGE|SHF_STRINGS,1
	0x43050ea7		.L.str.644
.rodata.str1.1	0x43050eaa	0xa	./out/src/duk/duktape.o	#SHT_PROGBITS,SHF_ALLOC|SHF_MERGE|SHF_STRINGS,1
	0x43050eaa		.L.str.645
.rodata.str1.1	0x43050eb4	0x24	./out/src/duk/duktape.o	#SHT_PROGBITS,SHF_ALLOC|SHF_MERGE|SHF_STRINGS,1
	0x43050eb4		.L.str.647
.rodata.str1.1	0x43050ed8	0x20	./out/src/duk/duktape.o	#SHT_PROGBITS,SHF_ALLOC|SHF_MERGE|SHF_STRINGS,1
	0x43050ed8		.L.str.648
.rodata.str1.1	0x43050ef8	0x1f	./out/src/duk/duktape.o	#SHT_PROGBITS,SHF_ALLOC|SHF_MERGE|SHF_STRINGS,1
	0x43050ef8		.L.str.649
.rodata.str1.1	0x43050f17	0x7	./out/src/duk/duktape.o	#SHT_PROGBITS,SHF_ALLOC|SHF_MERGE|SHF_STRINGS,1
	0x43050f17		.L.str.650
.rodata.str1.1	0x43050f1e	0xe	./out/src/duk/duktape.o	#SHT_PROGBITS,SHF_ALLOC|SHF_MERGE|SHF_STRINGS,1
	0x43050f1e		.L.str.651
.rodata.str1.1	0x43050f2c	0x1d	./out/src/duk/duktape.o	#SHT_PROGBITS,SHF_ALLOC|SHF_MERGE|SHF_STRINGS,1
	0x43050f2c		.L.str.652
.rodata.str1.1	0x43050f49	0x1b	./out/src/duk/duktape.o	#SHT_PROGBITS,SHF_ALLOC|SHF_MERGE|SHF_STRINGS,1
	0x43050f49		.L__func__.duk__json_enc_objarr_entry
.rodata.str1.1	0x43050f64	0x16	./out/src/duk/duktape.o	#SHT_PROGBITS,SHF_ALLOC|SHF_MERGE|SHF_STRINGS,1
	0x43050f64		.L.str.654
.rodata.str1.1	0x43050f7a	0xd	./out/src/duk/duktape.o	#SHT_PROGBITS,SHF_ALLOC|SHF_MERGE|SHF_STRINGS,1
	0x43050f7a		.L.str.655
.rodata.str1.1	0x43050f87	0x5	./out/src/duk/duktape.o	#SHT_PROGBITS,SHF_ALLOC|SHF_MERGE|SHF_STRINGS,1
	0x43050f87		.L.str.656
.rodata.str1.1	0x43050f8c	0x10	./out/src/duk/duktape.o	#SHT_PROGBITS,SHF_ALLOC|SHF_MERGE|SHF_STRINGS,1
	0x43050f8c		.L.str.657
.rodata.str1.1	0x43050f9c	0x9	./out/src/duk/duktape.o	#SHT_PROGBITS,SHF_ALLOC|SHF_MERGE|SHF_STRINGS,1
	0x43050f9c		.L.str.658
.rodata.str1.1	0x43050fa5	0x19	./out/src/duk/duktape.o	#SHT_PROGBITS,SHF_ALLOC|SHF_MERGE|SHF_STRINGS,1
	0x43050fa5		.L__func__.duk__regexp_match_helper
.rodata.str1.1	0x43050fbe	0x24	./out/src/duk/duktape.o	#SHT_PROGBITS,SHF_ALLOC|SHF_MERGE|SHF_STRINGS,1
	0x43050fbe		.L.str.659
.rodata.str1.1	0x43050fe2	0x20	./out/src/duk/duktape.o	#SHT_PROGBITS,SHF_ALLOC|SHF_MERGE|SHF_STRINGS,1
	0x43050fe2		.L.str.660
.rodata.str1.1	0x43051002	0x12	./out/src/duk/duktape.o	#SHT_PROGBITS,SHF_ALLOC|SHF_MERGE|SHF_STRINGS,1
	0x43051002		.L.str.661
.rodata.str1.1	0x43051014	0x12	./out/src/duk/duktape.o	#SHT_PROGBITS,SHF_ALLOC|SHF_MERGE|SHF_STRINGS,1
	0x43051014		.L__func__.duk__match_regexp
.rodata.str1.1	0x43051026	0x32	./out/src/duk/duktape.o	#SHT_PROGBITS,SHF_ALLOC|SHF_MERGE|SHF_STRINGS,1
	0x43051026		.L.str.662
.rodata.str1.1	0x43051058	0x49	./out/src/duk/duktape.o	#SHT_PROGBITS,SHF_ALLOC|SHF_MERGE|SHF_STRINGS,1
	0x43051058		.L.str.663
.rodata.str1.1	0x430510a1	0x2b	./out/src/duk/duktape.o	#SHT_PROGBITS,SHF_ALLOC|SHF_MERGE|SHF_STRINGS,1
	0x430510a1		.L.str.664
.rodata.str1.1	0x430510cc	0x29	./out/src/duk/duktape.o	#SHT_PROGBITS,SHF_ALLOC|SHF_MERGE|SHF_STRINGS,1
	0x430510cc		.L.str.665
.rodata.str1.1	0x430510f5	0x8	./out/src/duk/duktape.o	#SHT_PROGBITS,SHF_ALLOC|SHF_MERGE|SHF_STRINGS,1
	0x430510f5		.L.str.667
.rodata.str1.1	0x430510fd	0x2	./out/src/duk/duktape.o	#SHT_PROGBITS,SHF_ALLOC|SHF_MERGE|SHF_STRINGS,1
	0x430510fd		.L.str.668
.rodata.str1.1	0x430510ff	0x10	./out/src/duk/duktape.o	#SHT_PROGBITS,SHF_ALLOC|SHF_MERGE|SHF_STRINGS,1
	0x430510ff		.L__func__.duk_err_longjmp
.rodata.str1.1	0x4305110f	0x38	./out/src/duk/duktape.o	#SHT_PROGBITS,SHF_ALLOC|SHF_MERGE|SHF_STRINGS,1
	0x4305110f		.L.str.669
.rodata.str1.1	0x43051147	0x27	./out/src/duk/duktape.o	#SHT_PROGBITS,SHF_ALLOC|SHF_MERGE|SHF_STRINGS,1
	0x43051147		.L.str.670
.rodata.str1.1	0x4305116e	0x39	./out/src/duk/duktape.o	#SHT_PROGBITS,SHF_ALLOC|SHF_MERGE|SHF_STRINGS,1
	0x4305116e		.L.str.671
.rodata.str1.1	0x430511a7	0xf	./out/src/duk/duktape.o	#SHT_PROGBITS,SHF_ALLOC|SHF_MERGE|SHF_STRINGS,1
	0x430511a7		.L.str.672
.rodata.str1.1	0x430511b6	0x12	./out/src/duk/duktape.o	#SHT_PROGBITS,SHF_ALLOC|SHF_MERGE|SHF_STRINGS,1
	0x430511b6		.L__func__.duk_hbuffer_alloc
.rodata.str1.1	0x430511c8	0x1a	./out/src/duk/duktape.o	#SHT_PROGBITS,SHF_ALLOC|SHF_MERGE|SHF_STRINGS,1
	0x430511c8		.L.str.674
.rodata.str1.1	0x430511e2	0xe	./out/src/duk/duktape.o	#SHT_PROGBITS,SHF_ALLOC|SHF_MERGE|SHF_STRINGS,1
	0x430511e2		.L__func__.duk_heap_free
.rodata.str1.1	0x430511f0	0xe	./out/src/duk/duktape.o	#SHT_PROGBITS,SHF_ALLOC|SHF_MERGE|SHF_STRINGS,1
	0x430511f0		.L.str.675
.rodata.str1.1	0x430511fe	0x27	./out/src/duk/duktape.o	#SHT_PROGBITS,SHF_ALLOC|SHF_MERGE|SHF_STRINGS,1
	0x430511fe		.L.str.676
.rodata.str1.1	0x43051225	0x21	./out/src/duk/duktape.o	#SHT_PROGBITS,SHF_ALLOC|SHF_MERGE|SHF_STRINGS,1
	0x43051225		.L.str.677
.rodata.str1.1	0x43051246	0x21	./out/src/duk/duktape.o	#SHT_PROGBITS,SHF_ALLOC|SHF_MERGE|SHF_STRINGS,1
	0x43051246		.L.str.678
.rodata.str1.1	0x43051267	0x38	./out/src/duk/duktape.o	#SHT_PROGBITS,SHF_ALLOC|SHF_MERGE|SHF_STRINGS,1
	0x43051267		.L.str.679
.rodata.str1.1	0x4305129f	0x31	./out/src/duk/duktape.o	#SHT_PROGBITS,SHF_ALLOC|SHF_MERGE|SHF_STRINGS,1
	0x4305129f		.L.str.680
.rodata.str1.1	0x430512d0	0x1c	./out/src/duk/duktape.o	#SHT_PROGBITS,SHF_ALLOC|SHF_MERGE|SHF_STRINGS,1
	0x430512d0		.L.str.681
.rodata.str1.1	0x430512ec	0x23	./out/src/duk/duktape.o	#SHT_PROGBITS,SHF_ALLOC|SHF_MERGE|SHF_STRINGS,1
	0x430512ec		.L.str.682
.rodata.str1.1	0x4305130f	0x22	./out/src/duk/duktape.o	#SHT_PROGBITS,SHF_ALLOC|SHF_MERGE|SHF_STRINGS,1
	0x4305130f		.L.str.683
.rodata.str1.1	0x43051331	0x21	./out/src/duk/duktape.o	#SHT_PROGBITS,SHF_ALLOC|SHF_MERGE|SHF_STRINGS,1
	0x43051331		.L.str.684
.rodata.str1.1	0x43051352	0x1b	./out/src/duk/duktape.o	#SHT_PROGBITS,SHF_ALLOC|SHF_MERGE|SHF_STRINGS,1
	0x43051352		.L.str.685
.rodata.str1.1	0x4305136d	0x17	./out/src/duk/duktape.o	#SHT_PROGBITS,SHF_ALLOC|SHF_MERGE|SHF_STRINGS,1
	0x4305136d		.L__func__.duk_heap_strtable_dump
.rodata.str1.1	0x43051384	0x18	./out/src/duk/duktape.o	#SHT_PROGBITS,SHF_ALLOC|SHF_MERGE|SHF_STRINGS,1
	0x43051384		.L.str.686
.rodata.str1.1	0x4305139c	0x1a	./out/src/duk/duktape.o	#SHT_PROGBITS,SHF_ALLOC|SHF_MERGE|SHF_STRINGS,1
	0x4305139c		.L.str.687
.rodata.str1.1	0x430513b6	0x6f	./out/src/duk/duktape.o	#SHT_PROGBITS,SHF_ALLOC|SHF_MERGE|SHF_STRINGS,1
	0x430513b6		.L.str.688
.rodata.str1.1	0x43051425	0x19	./out/src/duk/duktape.o	#SHT_PROGBITS,SHF_ALLOC|SHF_MERGE|SHF_STRINGS,1
	0x43051425		.L__func__.duk__free_run_finalizers
.rodata.str1.1	0x4305143e	0x3f	./out/src/duk/duktape.o	#SHT_PROGBITS,SHF_ALLOC|SHF_MERGE|SHF_STRINGS,1
	0x4305143e		.L.str.689
.rodata.str1.1	0x4305147d	0x61	./out/src/duk/duktape.o	#SHT_PROGBITS,SHF_ALLOC|SHF_MERGE|SHF_STRINGS,1
	0x4305147d		.L.str.690
.rodata.str1.1	0x430514de	0x3a	./out/src/duk/duktape.o	#SHT_PROGBITS,SHF_ALLOC|SHF_MERGE|SHF_STRINGS,1
	0x430514de		.L.str.691
.rodata.str1.1	0x43051518	0x56	./out/src/duk/duktape.o	#SHT_PROGBITS,SHF_ALLOC|SHF_MERGE|SHF_STRINGS,1
	0x43051518		.L.str.692
.rodata.str1.1	0x4305156e	0x18	./out/src/duk/duktape.o	#SHT_PROGBITS,SHF_ALLOC|SHF_MERGE|SHF_STRINGS,1
	0x4305156e		.L__func__.duk_heap_free_freelists
.rodata.str1.1	0x43051586	0x44	./out/src/duk/duktape.o	#SHT_PROGBITS,SHF_ALLOC|SHF_MERGE|SHF_STRINGS,1
	0x43051586		.L.str.693
.rodata.str1.1	0x430515ca	0xf	./out/src/duk/duktape.o	#SHT_PROGBITS,SHF_ALLOC|SHF_MERGE|SHF_STRINGS,1
	0x430515ca		.L__func__.duk_heap_alloc
.rodata.str1.1	0x430515d9	0xe	./out/src/duk/duktape.o	#SHT_PROGBITS,SHF_ALLOC|SHF_MERGE|SHF_STRINGS,1
	0x430515d9		.L.str.694
.rodata.str1.1	0x430515e7	0x16	./out/src/duk/duktape.o	#SHT_PROGBITS,SHF_ALLOC|SHF_MERGE|SHF_STRINGS,1
	0x430515e7		.L.str.695
.rodata.str1.1	0x430515fd	0x3f	./out/src/duk/duktape.o	#SHT_PROGBITS,SHF_ALLOC|SHF_MERGE|SHF_STRINGS,1
	0x430515fd		.L.str.696
.rodata.str1.1	0x4305163c	0x23	./out/src/duk/duktape.o	#SHT_PROGBITS,SHF_ALLOC|SHF_MERGE|SHF_STRINGS,1
	0x4305163c		.L.str.697
.rodata.str1.1	0x4305165f	0x22	./out/src/duk/duktape.o	#SHT_PROGBITS,SHF_ALLOC|SHF_MERGE|SHF_STRINGS,1
	0x4305165f		.L.str.698
.rodata.str1.1	0x43051681	0x22	./out/src/duk/duktape.o	#SHT_PROGBITS,SHF_ALLOC|SHF_MERGE|SHF_STRINGS,1
	0x43051681		.L.str.699
.rodata.str1.1	0x430516a3	0x35	./out/src/duk/duktape.o	#SHT_PROGBITS,SHF_ALLOC|SHF_MERGE|SHF_STRINGS,1
	0x430516a3		.L.str.700
.rodata.str1.1	0x430516d8	0x13	./out/src/duk/duktape.o	#SHT_PROGBITS,SHF_ALLOC|SHF_MERGE|SHF_STRINGS,1
	0x430516d8		.L.str.701
.rodata.str1.1	0x430516eb	0x17	./out/src/duk/duktape.o	#SHT_PROGBITS,SHF_ALLOC|SHF_MERGE|SHF_STRINGS,1
	0x430516eb		.L.str.702
.rodata.str1.1	0x43051702	0x17	./out/src/duk/duktape.o	#SHT_PROGBITS,SHF_ALLOC|SHF_MERGE|SHF_STRINGS,1
	0x43051702		.L__func__.duk__dump_misc_options
.rodata.str1.1	0x43051719	0x11	./out/src/duk/duktape.o	#SHT_PROGBITS,SHF_ALLOC|SHF_MERGE|SHF_STRINGS,1
	0x43051719		.L.str.703
.rodata.str1.1	0x4305172a	0x15	./out/src/duk/duktape.o	#SHT_PROGBITS,SHF_ALLOC|SHF_MERGE|SHF_STRINGS,1
	0x4305172a		.L.str.704
.rodata.str1.1	0x4305173f	0x8	./out/src/duk/duktape.o	#SHT_PROGBITS,SHF_ALLOC|SHF_MERGE|SHF_STRINGS,1
	0x4305173f		.L.str.705
.rodata.str1.1	0x43051747	0xe	./out/src/duk/duktape.o	#SHT_PROGBITS,SHF_ALLOC|SHF_MERGE|SHF_STRINGS,1
	0x43051747		.L.str.706
.rodata.str1.1	0x43051755	0x6	./out/src/duk/duktape.o	#SHT_PROGBITS,SHF_ALLOC|SHF_MERGE|SHF_STRINGS,1
	0x43051755		.L.str.707
.rodata.str1.1	0x4305175b	0x18	./out/src/duk/duktape.o	#SHT_PROGBITS,SHF_ALLOC|SHF_MERGE|SHF_STRINGS,1
	0x4305175b		.L.str.708
.rodata.str1.1	0x43051773	0x6	./out/src/duk/duktape.o	#SHT_PROGBITS,SHF_ALLOC|SHF_MERGE|SHF_STRINGS,1
	0x43051773		.L.str.709
.rodata.str1.1	0x43051779	0x14	./out/src/duk/duktape.o	#SHT_PROGBITS,SHF_ALLOC|SHF_MERGE|SHF_STRINGS,1
	0x43051779		.L.str.710
.rodata.str1.1	0x4305178d	0x6	./out/src/duk/duktape.o	#SHT_PROGBITS,SHF_ALLOC|SHF_MERGE|SHF_STRINGS,1
	0x4305178d		.L.str.711
.rodata.str1.1	0x43051793	0x11	./out/src/duk/duktape.o	#SHT_PROGBITS,SHF_ALLOC|SHF_MERGE|SHF_STRINGS,1
	0x43051793		.L.str.712
.rodata.str1.1	0x430517a4	0x19	./out/src/duk/duktape.o	#SHT_PROGBITS,SHF_ALLOC|SHF_MERGE|SHF_STRINGS,1
	0x430517a4		.L.str.713
.rodata.str1.1	0x430517bd	0x1d	./out/src/duk/duktape.o	#SHT_PROGBITS,SHF_ALLOC|SHF_MERGE|SHF_STRINGS,1
	0x430517bd		.L.str.714
.rodata.str1.1	0x430517da	0x1b	./out/src/duk/duktape.o	#SHT_PROGBITS,SHF_ALLOC|SHF_MERGE|SHF_STRINGS,1
	0x430517da		.L.str.715
.rodata.str1.1	0x430517f5	0x1f	./out/src/duk/duktape.o	#SHT_PROGBITS,SHF_ALLOC|SHF_MERGE|SHF_STRINGS,1
	0x430517f5		.L.str.716
.rodata.str1.1	0x43051814	0x15	./out/src/duk/duktape.o	#SHT_PROGBITS,SHF_ALLOC|SHF_MERGE|SHF_STRINGS,1
	0x43051814		.L__func__.duk__dump_type_sizes
.rodata.str1.1	0x43051829	0x9	./out/src/duk/duktape.o	#SHT_PROGBITS,SHF_ALLOC|SHF_MERGE|SHF_STRINGS,1
	0x43051829		.L.str.717
.rodata.str1.1	0x43051832	0x9	./out/src/duk/duktape.o	#SHT_PROGBITS,SHF_ALLOC|SHF_MERGE|SHF_STRINGS,1
	0x43051832		.L.str.718
.rodata.str1.1	0x4305183b	0xa	./out/src/duk/duktape.o	#SHT_PROGBITS,SHF_ALLOC|SHF_MERGE|SHF_STRINGS,1
	0x4305183b		.L.str.719
.rodata.str1.1	0x43051845	0x8	./out/src/duk/duktape.o	#SHT_PROGBITS,SHF_ALLOC|SHF_MERGE|SHF_STRINGS,1
	0x43051845		.L.str.720
.rodata.str1.1	0x4305184d	0x9	./out/src/duk/duktape.o	#SHT_PROGBITS,SHF_ALLOC|SHF_MERGE|SHF_STRINGS,1
	0x4305184d		.L.str.721
.rodata.str1.1	0x43051856	0xb	./out/src/duk/duktape.o	#SHT_PROGBITS,SHF_ALLOC|SHF_MERGE|SHF_STRINGS,1
	0x43051856		.L.str.722
.rodata.str1.1	0x43051861	0xb	./out/src/duk/duktape.o	#SHT_PROGBITS,SHF_ALLOC|SHF_MERGE|SHF_STRINGS,1
	0x43051861		.L.str.723
.rodata.str1.1	0x4305186c	0xb	./out/src/duk/duktape.o	#SHT_PROGBITS,SHF_ALLOC|SHF_MERGE|SHF_STRINGS,1
	0x4305186c		.L.str.724
.rodata.str1.1	0x43051877	0x10	./out/src/duk/duktape.o	#SHT_PROGBITS,SHF_ALLOC|SHF_MERGE|SHF_STRINGS,1
	0x43051877		.L.str.725
.rodata.str1.1	0x43051887	0xf	./out/src/duk/duktape.o	#SHT_PROGBITS,SHF_ALLOC|SHF_MERGE|SHF_STRINGS,1
	0x43051887		.L.str.726
.rodata.str1.1	0x43051896	0x11	./out/src/duk/duktape.o	#SHT_PROGBITS,SHF_ALLOC|SHF_MERGE|SHF_STRINGS,1
	0x43051896		.L.str.727
.rodata.str1.1	0x430518a7	0x10	./out/src/duk/duktape.o	#SHT_PROGBITS,SHF_ALLOC|SHF_MERGE|SHF_STRINGS,1
	0x430518a7		.L.str.728
.rodata.str1.1	0x430518b7	0x11	./out/src/duk/duktape.o	#SHT_PROGBITS,SHF_ALLOC|SHF_MERGE|SHF_STRINGS,1
	0x430518b7		.L.str.729
.rodata.str1.1	0x430518c8	0x10	./out/src/duk/duktape.o	#SHT_PROGBITS,SHF_ALLOC|SHF_MERGE|SHF_STRINGS,1
	0x430518c8		.L.str.730
.rodata.str1.1	0x430518d8	0x11	./out/src/duk/duktape.o	#SHT_PROGBITS,SHF_ALLOC|SHF_MERGE|SHF_STRINGS,1
	0x430518d8		.L.str.731
.rodata.str1.1	0x430518e9	0x10	./out/src/duk/duktape.o	#SHT_PROGBITS,SHF_ALLOC|SHF_MERGE|SHF_STRINGS,1
	0x430518e9		.L.str.732
.rodata.str1.1	0x430518f9	0x16	./out/src/duk/duktape.o	#SHT_PROGBITS,SHF_ALLOC|SHF_MERGE|SHF_STRINGS,1
	0x430518f9		.L.str.733
.rodata.str1.1	0x4305190f	0x15	./out/src/duk/duktape.o	#SHT_PROGBITS,SHF_ALLOC|SHF_MERGE|SHF_STRINGS,1
	0x4305190f		.L.str.734
.rodata.str1.1	0x43051924	0x17	./out/src/duk/duktape.o	#SHT_PROGBITS,SHF_ALLOC|SHF_MERGE|SHF_STRINGS,1
	0x43051924		.L.str.735
.rodata.str1.1	0x4305193b	0x16	./out/src/duk/duktape.o	#SHT_PROGBITS,SHF_ALLOC|SHF_MERGE|SHF_STRINGS,1
	0x4305193b		.L.str.736
.rodata.str1.1	0x43051951	0x17	./out/src/duk/duktape.o	#SHT_PROGBITS,SHF_ALLOC|SHF_MERGE|SHF_STRINGS,1
	0x43051951		.L.str.737
.rodata.str1.1	0x43051968	0x16	./out/src/duk/duktape.o	#SHT_PROGBITS,SHF_ALLOC|SHF_MERGE|SHF_STRINGS,1
	0x43051968		.L.str.738
.rodata.str1.1	0x4305197e	0x17	./out/src/duk/duktape.o	#SHT_PROGBITS,SHF_ALLOC|SHF_MERGE|SHF_STRINGS,1
	0x4305197e		.L.str.739
.rodata.str1.1	0x43051995	0x16	./out/src/duk/duktape.o	#SHT_PROGBITS,SHF_ALLOC|SHF_MERGE|SHF_STRINGS,1
	0x43051995		.L.str.740
.rodata.str1.1	0x430519ab	0x15	./out/src/duk/duktape.o	#SHT_PROGBITS,SHF_ALLOC|SHF_MERGE|SHF_STRINGS,1
	0x430519ab		.L.str.741
.rodata.str1.1	0x430519c0	0x14	./out/src/duk/duktape.o	#SHT_PROGBITS,SHF_ALLOC|SHF_MERGE|SHF_STRINGS,1
	0x430519c0		.L.str.742
.rodata.str1.1	0x430519d4	0x16	./out/src/duk/duktape.o	#SHT_PROGBITS,SHF_ALLOC|SHF_MERGE|SHF_STRINGS,1
	0x430519d4		.L.str.743
.rodata.str1.1	0x430519ea	0x15	./out/src/duk/duktape.o	#SHT_PROGBITS,SHF_ALLOC|SHF_MERGE|SHF_STRINGS,1
	0x430519ea		.L.str.744
.rodata.str1.1	0x430519ff	0x16	./out/src/duk/duktape.o	#SHT_PROGBITS,SHF_ALLOC|SHF_MERGE|SHF_STRINGS,1
	0x430519ff		.L.str.745
.rodata.str1.1	0x43051a15	0x15	./out/src/duk/duktape.o	#SHT_PROGBITS,SHF_ALLOC|SHF_MERGE|SHF_STRINGS,1
	0x43051a15		.L.str.746
.rodata.str1.1	0x43051a2a	0x16	./out/src/duk/duktape.o	#SHT_PROGBITS,SHF_ALLOC|SHF_MERGE|SHF_STRINGS,1
	0x43051a2a		.L.str.747
.rodata.str1.1	0x43051a40	0x15	./out/src/duk/duktape.o	#SHT_PROGBITS,SHF_ALLOC|SHF_MERGE|SHF_STRINGS,1
	0x43051a40		.L.str.748
.rodata.str1.1	0x43051a55	0x12	./out/src/duk/duktape.o	#SHT_PROGBITS,SHF_ALLOC|SHF_MERGE|SHF_STRINGS,1
	0x43051a55		.L.str.749
.rodata.str1.1	0x43051a67	0x11	./out/src/duk/duktape.o	#SHT_PROGBITS,SHF_ALLOC|SHF_MERGE|SHF_STRINGS,1
	0x43051a67		.L.str.750
.rodata.str1.1	0x43051a78	0x12	./out/src/duk/duktape.o	#SHT_PROGBITS,SHF_ALLOC|SHF_MERGE|SHF_STRINGS,1
	0x43051a78		.L.str.751
.rodata.str1.1	0x43051a8a	0x11	./out/src/duk/duktape.o	#SHT_PROGBITS,SHF_ALLOC|SHF_MERGE|SHF_STRINGS,1
	0x43051a8a		.L.str.752
.rodata.str1.1	0x43051a9b	0x11	./out/src/duk/duktape.o	#SHT_PROGBITS,SHF_ALLOC|SHF_MERGE|SHF_STRINGS,1
	0x43051a9b		.L.str.753
.rodata.str1.1	0x43051aac	0xe	./out/src/duk/duktape.o	#SHT_PROGBITS,SHF_ALLOC|SHF_MERGE|SHF_STRINGS,1
	0x43051aac		.L.str.754
.rodata.str1.1	0x43051aba	0xf	./out/src/duk/duktape.o	#SHT_PROGBITS,SHF_ALLOC|SHF_MERGE|SHF_STRINGS,1
	0x43051aba		.L.str.755
.rodata.str1.1	0x43051ac9	0x13	./out/src/duk/duktape.o	#SHT_PROGBITS,SHF_ALLOC|SHF_MERGE|SHF_STRINGS,1
	0x43051ac9		.L.str.756
.rodata.str1.1	0x43051adc	0x14	./out/src/duk/duktape.o	#SHT_PROGBITS,SHF_ALLOC|SHF_MERGE|SHF_STRINGS,1
	0x43051adc		.L.str.757
.rodata.str1.1	0x43051af0	0x14	./out/src/duk/duktape.o	#SHT_PROGBITS,SHF_ALLOC|SHF_MERGE|SHF_STRINGS,1
	0x43051af0		.L.str.758
.rodata.str1.1	0x43051b04	0x15	./out/src/duk/duktape.o	#SHT_PROGBITS,SHF_ALLOC|SHF_MERGE|SHF_STRINGS,1
	0x43051b04		.L.str.759
.rodata.str1.1	0x43051b19	0x19	./out/src/duk/duktape.o	#SHT_PROGBITS,SHF_ALLOC|SHF_MERGE|SHF_STRINGS,1
	0x43051b19		.L.str.760
.rodata.str1.1	0x43051b32	0x1a	./out/src/duk/duktape.o	#SHT_PROGBITS,SHF_ALLOC|SHF_MERGE|SHF_STRINGS,1
	0x43051b32		.L.str.761
.rodata.str1.1	0x43051b4c	0x14	./out/src/duk/duktape.o	#SHT_PROGBITS,SHF_ALLOC|SHF_MERGE|SHF_STRINGS,1
	0x43051b4c		.L.str.762
.rodata.str1.1	0x43051b60	0x15	./out/src/duk/duktape.o	#SHT_PROGBITS,SHF_ALLOC|SHF_MERGE|SHF_STRINGS,1
	0x43051b60		.L.str.763
.rodata.str1.1	0x43051b75	0xe	./out/src/duk/duktape.o	#SHT_PROGBITS,SHF_ALLOC|SHF_MERGE|SHF_STRINGS,1
	0x43051b75		.L.str.764
.rodata.str1.1	0x43051b83	0x12	./out/src/duk/duktape.o	#SHT_PROGBITS,SHF_ALLOC|SHF_MERGE|SHF_STRINGS,1
	0x43051b83		.L.str.765
.rodata.str1.1	0x43051b95	0x12	./out/src/duk/duktape.o	#SHT_PROGBITS,SHF_ALLOC|SHF_MERGE|SHF_STRINGS,1
	0x43051b95		.L.str.766
.rodata.str1.1	0x43051ba7	0x15	./out/src/duk/duktape.o	#SHT_PROGBITS,SHF_ALLOC|SHF_MERGE|SHF_STRINGS,1
	0x43051ba7		.L.str.767
.rodata.str1.1	0x43051bbc	0xd	./out/src/duk/duktape.o	#SHT_PROGBITS,SHF_ALLOC|SHF_MERGE|SHF_STRINGS,1
	0x43051bbc		.L.str.768
.rodata.str1.1	0x43051bc9	0xf	./out/src/duk/duktape.o	#SHT_PROGBITS,SHF_ALLOC|SHF_MERGE|SHF_STRINGS,1
	0x43051bc9		.L.str.769
.rodata.str1.1	0x43051bd8	0x10	./out/src/duk/duktape.o	#SHT_PROGBITS,SHF_ALLOC|SHF_MERGE|SHF_STRINGS,1
	0x43051bd8		.L.str.770
.rodata.str1.1	0x43051be8	0x17	./out/src/duk/duktape.o	#SHT_PROGBITS,SHF_ALLOC|SHF_MERGE|SHF_STRINGS,1
	0x43051be8		.L.str.771
.rodata.str1.1	0x43051bff	0x10	./out/src/duk/duktape.o	#SHT_PROGBITS,SHF_ALLOC|SHF_MERGE|SHF_STRINGS,1
	0x43051bff		.L.str.772
.rodata.str1.1	0x43051c0f	0x19	./out/src/duk/duktape.o	#SHT_PROGBITS,SHF_ALLOC|SHF_MERGE|SHF_STRINGS,1
	0x43051c0f		.L.str.773
.rodata.str1.1	0x43051c28	0x10	./out/src/duk/duktape.o	#SHT_PROGBITS,SHF_ALLOC|SHF_MERGE|SHF_STRINGS,1
	0x43051c28		.L.str.774
.rodata.str1.1	0x43051c38	0xf	./out/src/duk/duktape.o	#SHT_PROGBITS,SHF_ALLOC|SHF_MERGE|SHF_STRINGS,1
	0x43051c38		.L.str.775
.rodata.str1.1	0x43051c47	0x12	./out/src/duk/duktape.o	#SHT_PROGBITS,SHF_ALLOC|SHF_MERGE|SHF_STRINGS,1
	0x43051c47		.L.str.776
.rodata.str1.1	0x43051c59	0x11	./out/src/duk/duktape.o	#SHT_PROGBITS,SHF_ALLOC|SHF_MERGE|SHF_STRINGS,1
	0x43051c59		.L.str.777
.rodata.str1.1	0x43051c6a	0x10	./out/src/duk/duktape.o	#SHT_PROGBITS,SHF_ALLOC|SHF_MERGE|SHF_STRINGS,1
	0x43051c6a		.L.str.778
.rodata.str1.1	0x43051c7a	0x10	./out/src/duk/duktape.o	#SHT_PROGBITS,SHF_ALLOC|SHF_MERGE|SHF_STRINGS,1
	0x43051c7a		.L.str.779
.rodata.str1.1	0x43051c8a	0x10	./out/src/duk/duktape.o	#SHT_PROGBITS,SHF_ALLOC|SHF_MERGE|SHF_STRINGS,1
	0x43051c8a		.L.str.780
.rodata.str1.1	0x43051c9a	0x10	./out/src/duk/duktape.o	#SHT_PROGBITS,SHF_ALLOC|SHF_MERGE|SHF_STRINGS,1
	0x43051c9a		.L.str.781
.rodata.str1.1	0x43051caa	0xf	./out/src/duk/duktape.o	#SHT_PROGBITS,SHF_ALLOC|SHF_MERGE|SHF_STRINGS,1
	0x43051caa		.L.str.782
.rodata.str1.1	0x43051cb9	0x10	./out/src/duk/duktape.o	#SHT_PROGBITS,SHF_ALLOC|SHF_MERGE|SHF_STRINGS,1
	0x43051cb9		.L.str.783
.rodata.str1.1	0x43051cc9	0x16	./out/src/duk/duktape.o	#SHT_PROGBITS,SHF_ALLOC|SHF_MERGE|SHF_STRINGS,1
	0x43051cc9		.L.str.784
.rodata.str1.1	0x43051cdf	0x18	./out/src/duk/duktape.o	#SHT_PROGBITS,SHF_ALLOC|SHF_MERGE|SHF_STRINGS,1
	0x43051cdf		.L.str.785
.rodata.str1.1	0x43051cf7	0x19	./out/src/duk/duktape.o	#SHT_PROGBITS,SHF_ALLOC|SHF_MERGE|SHF_STRINGS,1
	0x43051cf7		.L.str.786
.rodata.str1.1	0x43051d10	0x15	./out/src/duk/duktape.o	#SHT_PROGBITS,SHF_ALLOC|SHF_MERGE|SHF_STRINGS,1
	0x43051d10		.L.str.787
.rodata.str1.1	0x43051d25	0x12	./out/src/duk/duktape.o	#SHT_PROGBITS,SHF_ALLOC|SHF_MERGE|SHF_STRINGS,1
	0x43051d25		.L.str.788
.rodata.str1.1	0x43051d37	0x11	./out/src/duk/duktape.o	#SHT_PROGBITS,SHF_ALLOC|SHF_MERGE|SHF_STRINGS,1
	0x43051d37		.L.str.789
.rodata.str1.1	0x43051d48	0xd	./out/src/duk/duktape.o	#SHT_PROGBITS,SHF_ALLOC|SHF_MERGE|SHF_STRINGS,1
	0x43051d48		.L.str.790
.rodata.str1.1	0x43051d55	0x13	./out/src/duk/duktape.o	#SHT_PROGBITS,SHF_ALLOC|SHF_MERGE|SHF_STRINGS,1
	0x43051d55		.L.str.791
.rodata.str1.1	0x43051d68	0x10	./out/src/duk/duktape.o	#SHT_PROGBITS,SHF_ALLOC|SHF_MERGE|SHF_STRINGS,1
	0x43051d68		.L.str.792
.rodata.str1.1	0x43051d78	0x17	./out/src/duk/duktape.o	#SHT_PROGBITS,SHF_ALLOC|SHF_MERGE|SHF_STRINGS,1
	0x43051d78		.L.str.793
.rodata.str1.1	0x43051d8f	0x17	./out/src/duk/duktape.o	#SHT_PROGBITS,SHF_ALLOC|SHF_MERGE|SHF_STRINGS,1
	0x43051d8f		.L.str.794
.rodata.str1.1	0x43051da6	0x10	./out/src/duk/duktape.o	#SHT_PROGBITS,SHF_ALLOC|SHF_MERGE|SHF_STRINGS,1
	0x43051da6		.L.str.795
.rodata.str1.1	0x43051db6	0x14	./out/src/duk/duktape.o	#SHT_PROGBITS,SHF_ALLOC|SHF_MERGE|SHF_STRINGS,1
	0x43051db6		.L.str.796
.rodata.str1.1	0x43051dca	0x17	./out/src/duk/duktape.o	#SHT_PROGBITS,SHF_ALLOC|SHF_MERGE|SHF_STRINGS,1
	0x43051dca		.L.str.797
.rodata.str1.1	0x43051de1	0x17	./out/src/duk/duktape.o	#SHT_PROGBITS,SHF_ALLOC|SHF_MERGE|SHF_STRINGS,1
	0x43051de1		.L.str.798
.rodata.str1.1	0x43051df8	0xe	./out/src/duk/duktape.o	#SHT_PROGBITS,SHF_ALLOC|SHF_MERGE|SHF_STRINGS,1
	0x43051df8		.L.str.799
.rodata.str1.1	0x43051e06	0x11	./out/src/duk/duktape.o	#SHT_PROGBITS,SHF_ALLOC|SHF_MERGE|SHF_STRINGS,1
	0x43051e06		.L.str.800
.rodata.str1.1	0x43051e17	0x14	./out/src/duk/duktape.o	#SHT_PROGBITS,SHF_ALLOC|SHF_MERGE|SHF_STRINGS,1
	0x43051e17		.L.str.801
.rodata.str1.1	0x43051e2b	0x12	./out/src/duk/duktape.o	#SHT_PROGBITS,SHF_ALLOC|SHF_MERGE|SHF_STRINGS,1
	0x43051e2b		.L.str.802
.rodata.str1.1	0x43051e3d	0x17	./out/src/duk/duktape.o	#SHT_PROGBITS,SHF_ALLOC|SHF_MERGE|SHF_STRINGS,1
	0x43051e3d		.L.str.803
.rodata.str1.1	0x43051e54	0x16	./out/src/duk/duktape.o	#SHT_PROGBITS,SHF_ALLOC|SHF_MERGE|SHF_STRINGS,1
	0x43051e54		.L.str.804
.rodata.str1.1	0x43051e6a	0x15	./out/src/duk/duktape.o	#SHT_PROGBITS,SHF_ALLOC|SHF_MERGE|SHF_STRINGS,1
	0x43051e6a		.L.str.805
.rodata.str1.1	0x43051e7f	0x17	./out/src/duk/duktape.o	#SHT_PROGBITS,SHF_ALLOC|SHF_MERGE|SHF_STRINGS,1
	0x43051e7f		.L.str.806
.rodata.str1.1	0x43051e96	0x18	./out/src/duk/duktape.o	#SHT_PROGBITS,SHF_ALLOC|SHF_MERGE|SHF_STRINGS,1
	0x43051e96		.L.str.807
.rodata.str1.1	0x43051eae	0x16	./out/src/duk/duktape.o	#SHT_PROGBITS,SHF_ALLOC|SHF_MERGE|SHF_STRINGS,1
	0x43051eae		.L__func__.duk__dump_type_limits
.rodata.str1.1	0x43051ec4	0x7	./out/src/duk/duktape.o	#SHT_PROGBITS,SHF_ALLOC|SHF_MERGE|SHF_STRINGS,1
	0x43051ec4		.L.str.808
.rodata.str1.1	0x43051ecb	0x27	./out/src/duk/duktape.o	#SHT_PROGBITS,SHF_ALLOC|SHF_MERGE|SHF_STRINGS,1
	0x43051ecb		.L.str.809
.rodata.str1.1	0x43051ef2	0x28	./out/src/duk/duktape.o	#SHT_PROGBITS,SHF_ALLOC|SHF_MERGE|SHF_STRINGS,1
	0x43051ef2		.L.str.810
.rodata.str1.1	0x43051f1a	0x2c	./out/src/duk/duktape.o	#SHT_PROGBITS,SHF_ALLOC|SHF_MERGE|SHF_STRINGS,1
	0x43051f1a		.L.str.811
.rodata.str1.1	0x43051f46	0x2d	./out/src/duk/duktape.o	#SHT_PROGBITS,SHF_ALLOC|SHF_MERGE|SHF_STRINGS,1
	0x43051f46		.L.str.812
.rodata.str1.1	0x43051f73	0x2d	./out/src/duk/duktape.o	#SHT_PROGBITS,SHF_ALLOC|SHF_MERGE|SHF_STRINGS,1
	0x43051f73		.L.str.813
.rodata.str1.1	0x43051fa0	0x2e	./out/src/duk/duktape.o	#SHT_PROGBITS,SHF_ALLOC|SHF_MERGE|SHF_STRINGS,1
	0x43051fa0		.L.str.814
.rodata.str1.1	0x43051fce	0x28	./out/src/duk/duktape.o	#SHT_PROGBITS,SHF_ALLOC|SHF_MERGE|SHF_STRINGS,1
	0x43051fce		.L.str.815
.rodata.str1.1	0x43051ff6	0x29	./out/src/duk/duktape.o	#SHT_PROGBITS,SHF_ALLOC|SHF_MERGE|SHF_STRINGS,1
	0x43051ff6		.L.str.816
.rodata.str1.1	0x4305201f	0x2d	./out/src/duk/duktape.o	#SHT_PROGBITS,SHF_ALLOC|SHF_MERGE|SHF_STRINGS,1
	0x4305201f		.L.str.817
.rodata.str1.1	0x4305204c	0x2e	./out/src/duk/duktape.o	#SHT_PROGBITS,SHF_ALLOC|SHF_MERGE|SHF_STRINGS,1
	0x4305204c		.L.str.818
.rodata.str1.1	0x4305207a	0x2e	./out/src/duk/duktape.o	#SHT_PROGBITS,SHF_ALLOC|SHF_MERGE|SHF_STRINGS,1
	0x4305207a		.L.str.819
.rodata.str1.1	0x430520a8	0x2f	./out/src/duk/duktape.o	#SHT_PROGBITS,SHF_ALLOC|SHF_MERGE|SHF_STRINGS,1
	0x430520a8		.L.str.820
.rodata.str1.1	0x430520d7	0x28	./out/src/duk/duktape.o	#SHT_PROGBITS,SHF_ALLOC|SHF_MERGE|SHF_STRINGS,1
	0x430520d7		.L.str.821
.rodata.str1.1	0x430520ff	0x29	./out/src/duk/duktape.o	#SHT_PROGBITS,SHF_ALLOC|SHF_MERGE|SHF_STRINGS,1
	0x430520ff		.L.str.822
.rodata.str1.1	0x43052128	0x2d	./out/src/duk/duktape.o	#SHT_PROGBITS,SHF_ALLOC|SHF_MERGE|SHF_STRINGS,1
	0x43052128		.L.str.823
.rodata.str1.1	0x43052155	0x2e	./out/src/duk/duktape.o	#SHT_PROGBITS,SHF_ALLOC|SHF_MERGE|SHF_STRINGS,1
	0x43052155		.L.str.824
.rodata.str1.1	0x43052183	0x2e	./out/src/duk/duktape.o	#SHT_PROGBITS,SHF_ALLOC|SHF_MERGE|SHF_STRINGS,1
	0x43052183		.L.str.825
.rodata.str1.1	0x430521b1	0x2f	./out/src/duk/duktape.o	#SHT_PROGBITS,SHF_ALLOC|SHF_MERGE|SHF_STRINGS,1
	0x430521b1		.L.str.826
.rodata.str1.1	0x430521e0	0x28	./out/src/duk/duktape.o	#SHT_PROGBITS,SHF_ALLOC|SHF_MERGE|SHF_STRINGS,1
	0x430521e0		.L.str.827
.rodata.str1.1	0x43052208	0x29	./out/src/duk/duktape.o	#SHT_PROGBITS,SHF_ALLOC|SHF_MERGE|SHF_STRINGS,1
	0x43052208		.L.str.828
.rodata.str1.1	0x43052231	0x2d	./out/src/duk/duktape.o	#SHT_PROGBITS,SHF_ALLOC|SHF_MERGE|SHF_STRINGS,1
	0x43052231		.L.str.829
.rodata.str1.1	0x4305225e	0x2e	./out/src/duk/duktape.o	#SHT_PROGBITS,SHF_ALLOC|SHF_MERGE|SHF_STRINGS,1
	0x4305225e		.L.str.830
.rodata.str1.1	0x4305228c	0x2e	./out/src/duk/duktape.o	#SHT_PROGBITS,SHF_ALLOC|SHF_MERGE|SHF_STRINGS,1
	0x4305228c		.L.str.831
.rodata.str1.1	0x430522ba	0x2f	./out/src/duk/duktape.o	#SHT_PROGBITS,SHF_ALLOC|SHF_MERGE|SHF_STRINGS,1
	0x430522ba		.L.str.832
.rodata.str1.1	0x430522e9	0x29	./out/src/duk/duktape.o	#SHT_PROGBITS,SHF_ALLOC|SHF_MERGE|SHF_STRINGS,1
	0x430522e9		.L.str.833
.rodata.str1.1	0x43052312	0x2a	./out/src/duk/duktape.o	#SHT_PROGBITS,SHF_ALLOC|SHF_MERGE|SHF_STRINGS,1
	0x43052312		.L.str.834
.rodata.str1.1	0x4305233c	0x29	./out/src/duk/duktape.o	#SHT_PROGBITS,SHF_ALLOC|SHF_MERGE|SHF_STRINGS,1
	0x4305233c		.L.str.835
.rodata.str1.1	0x43052365	0x2a	./out/src/duk/duktape.o	#SHT_PROGBITS,SHF_ALLOC|SHF_MERGE|SHF_STRINGS,1
	0x43052365		.L.str.836
.rodata.str1.1	0x4305238f	0x26	./out/src/duk/duktape.o	#SHT_PROGBITS,SHF_ALLOC|SHF_MERGE|SHF_STRINGS,1
	0x4305238f		.L.str.837
.rodata.str1.1	0x430523b5	0x27	./out/src/duk/duktape.o	#SHT_PROGBITS,SHF_ALLOC|SHF_MERGE|SHF_STRINGS,1
	0x430523b5		.L.str.838
.rodata.str1.1	0x430523dc	0x2b	./out/src/duk/duktape.o	#SHT_PROGBITS,SHF_ALLOC|SHF_MERGE|SHF_STRINGS,1
	0x430523dc		.L.str.839
.rodata.str1.1	0x43052407	0x2c	./out/src/duk/duktape.o	#SHT_PROGBITS,SHF_ALLOC|SHF_MERGE|SHF_STRINGS,1
	0x43052407		.L.str.840
.rodata.str1.1	0x43052433	0x2c	./out/src/duk/duktape.o	#SHT_PROGBITS,SHF_ALLOC|SHF_MERGE|SHF_STRINGS,1
	0x43052433		.L.str.841
.rodata.str1.1	0x4305245f	0x2d	./out/src/duk/duktape.o	#SHT_PROGBITS,SHF_ALLOC|SHF_MERGE|SHF_STRINGS,1
	0x4305245f		.L.str.842
.rodata.str1.1	0x4305248c	0x31	./out/src/duk/duktape.o	#SHT_PROGBITS,SHF_ALLOC|SHF_MERGE|SHF_STRINGS,1
	0x4305248c		.L.str.843
.rodata.str1.1	0x430524bd	0x32	./out/src/duk/duktape.o	#SHT_PROGBITS,SHF_ALLOC|SHF_MERGE|SHF_STRINGS,1
	0x430524bd		.L.str.844
.rodata.str1.1	0x430524ef	0x16	./out/src/duk/duktape.o	#SHT_PROGBITS,SHF_ALLOC|SHF_MERGE|SHF_STRINGS,1
	0x430524ef		.L__func__.duk__init_heap_thread
.rodata.str1.1	0x43052505	0x1d	./out/src/duk/duktape.o	#SHT_PROGBITS,SHF_ALLOC|SHF_MERGE|SHF_STRINGS,1
	0x43052505		.L.str.845
.rodata.str1.1	0x43052522	0x1c	./out/src/duk/duktape.o	#SHT_PROGBITS,SHF_ALLOC|SHF_MERGE|SHF_STRINGS,1
	0x43052522		.L.str.846
.rodata.str1.1	0x4305253e	0x23	./out/src/duk/duktape.o	#SHT_PROGBITS,SHF_ALLOC|SHF_MERGE|SHF_STRINGS,1
	0x4305253e		.L.str.847
.rodata.str1.1	0x43052561	0x18	./out/src/duk/duktape.o	#SHT_PROGBITS,SHF_ALLOC|SHF_MERGE|SHF_STRINGS,1
	0x43052561		.L__func__.duk_heap_mark_and_sweep
.rodata.str1.1	0x43052579	0x20	./out/src/duk/duktape.o	#SHT_PROGBITS,SHF_ALLOC|SHF_MERGE|SHF_STRINGS,1
	0x43052579		.L.str.848
.rodata.str1.1	0x43052599	0x5e	./out/src/duk/duktape.o	#SHT_PROGBITS,SHF_ALLOC|SHF_MERGE|SHF_STRINGS,1
	0x43052599		.L.str.849
.rodata.str1.1	0x430525f7	0x3e	./out/src/duk/duktape.o	#SHT_PROGBITS,SHF_ALLOC|SHF_MERGE|SHF_STRINGS,1
	0x430525f7		.L.str.850
.rodata.str1.1	0x43052635	0x12	./out/src/duk/duktape.o	#SHT_PROGBITS,SHF_ALLOC|SHF_MERGE|SHF_STRINGS,1
	0x43052635		.L.str.851
.rodata.str1.1	0x43052647	0x29	./out/src/duk/duktape.o	#SHT_PROGBITS,SHF_ALLOC|SHF_MERGE|SHF_STRINGS,1
	0x43052647		.L.str.852
.rodata.str1.1	0x43052670	0x64	./out/src/duk/duktape.o	#SHT_PROGBITS,SHF_ALLOC|SHF_MERGE|SHF_STRINGS,1
	0x43052670		.L.str.853
.rodata.str1.1	0x430526d4	0x15	./out/src/duk/duktape.o	#SHT_PROGBITS,SHF_ALLOC|SHF_MERGE|SHF_STRINGS,1
	0x430526d4		.L__func__.duk__mark_roots_heap
.rodata.str1.1	0x430526e9	0x19	./out/src/duk/duktape.o	#SHT_PROGBITS,SHF_ALLOC|SHF_MERGE|SHF_STRINGS,1
	0x430526e9		.L.str.854
.rodata.str1.1	0x43052702	0x12	./out/src/duk/duktape.o	#SHT_PROGBITS,SHF_ALLOC|SHF_MERGE|SHF_STRINGS,1
	0x43052702		.L__func__.duk__mark_heaphdr
.rodata.str1.1	0x43052714	0x40	./out/src/duk/duktape.o	#SHT_PROGBITS,SHF_ALLOC|SHF_MERGE|SHF_STRINGS,1
	0x43052714		.L.str.855
.rodata.str1.1	0x43052754	0x32	./out/src/duk/duktape.o	#SHT_PROGBITS,SHF_ALLOC|SHF_MERGE|SHF_STRINGS,1
	0x43052754		.L.str.856
.rodata.str1.1	0x43052786	0x12	./out/src/duk/duktape.o	#SHT_PROGBITS,SHF_ALLOC|SHF_MERGE|SHF_STRINGS,1
	0x43052786		.L__func__.duk__mark_hobject
.rodata.str1.1	0x43052798	0x2f	./out/src/duk/duktape.o	#SHT_PROGBITS,SHF_ALLOC|SHF_MERGE|SHF_STRINGS,1
	0x43052798		.L.str.857
.rodata.str1.1	0x430527c7	0x21	./out/src/duk/duktape.o	#SHT_PROGBITS,SHF_ALLOC|SHF_MERGE|SHF_STRINGS,1
	0x430527c7		.L__func__.duk__mark_temproots_by_heap_scan
.rodata.str1.1	0x430527e8	0x25	./out/src/duk/duktape.o	#SHT_PROGBITS,SHF_ALLOC|SHF_MERGE|SHF_STRINGS,1
	0x430527e8		.L.str.858
.rodata.str1.1	0x4305280d	0x44	./out/src/duk/duktape.o	#SHT_PROGBITS,SHF_ALLOC|SHF_MERGE|SHF_STRINGS,1
	0x4305280d		.L.str.859
.rodata.str1.1	0x43052851	0x31	./out/src/duk/duktape.o	#SHT_PROGBITS,SHF_ALLOC|SHF_MERGE|SHF_STRINGS,1
	0x43052851		.L.str.860
.rodata.str1.1	0x43052882	0x16	./out/src/duk/duktape.o	#SHT_PROGBITS,SHF_ALLOC|SHF_MERGE|SHF_STRINGS,1
	0x43052882		.L__func__.duk__mark_finalizable
.rodata.str1.1	0x43052898	0x1a	./out/src/duk/duktape.o	#SHT_PROGBITS,SHF_ALLOC|SHF_MERGE|SHF_STRINGS,1
	0x43052898		.L.str.861
.rodata.str1.1	0x430528b2	0x66	./out/src/duk/duktape.o	#SHT_PROGBITS,SHF_ALLOC|SHF_MERGE|SHF_STRINGS,1
	0x430528b2		.L.str.862
.rodata.str1.1	0x43052918	0x40	./out/src/duk/duktape.o	#SHT_PROGBITS,SHF_ALLOC|SHF_MERGE|SHF_STRINGS,1
	0x43052918		.L.str.863
.rodata.str1.1	0x43052958	0x18	./out/src/duk/duktape.o	#SHT_PROGBITS,SHF_ALLOC|SHF_MERGE|SHF_STRINGS,1
	0x43052958		.L__func__.duk__mark_finalize_list
.rodata.str1.1	0x43052970	0x1c	./out/src/duk/duktape.o	#SHT_PROGBITS,SHF_ALLOC|SHF_MERGE|SHF_STRINGS,1
	0x43052970		.L.str.864
.rodata.str1.1	0x4305298c	0x56	./out/src/duk/duktape.o	#SHT_PROGBITS,SHF_ALLOC|SHF_MERGE|SHF_STRINGS,1
	0x4305298c		.L.str.865
.rodata.str1.1	0x430529e2	0x18	./out/src/duk/duktape.o	#SHT_PROGBITS,SHF_ALLOC|SHF_MERGE|SHF_STRINGS,1
	0x430529e2		.L__func__.duk__finalize_refcounts
.rodata.str1.1	0x430529fa	0x21	./out/src/duk/duktape.o	#SHT_PROGBITS,SHF_ALLOC|SHF_MERGE|SHF_STRINGS,1
	0x430529fa		.L.str.866
.rodata.str1.1	0x43052a1b	0x10	./out/src/duk/duktape.o	#SHT_PROGBITS,SHF_ALLOC|SHF_MERGE|SHF_STRINGS,1
	0x43052a1b		.L__func__.duk__sweep_heap
.rodata.str1.1	0x43052a2b	0x14	./out/src/duk/duktape.o	#SHT_PROGBITS,SHF_ALLOC|SHF_MERGE|SHF_STRINGS,1
	0x43052a2b		.L.str.867
.rodata.str1.1	0x43052a3f	0x3c	./out/src/duk/duktape.o	#SHT_PROGBITS,SHF_ALLOC|SHF_MERGE|SHF_STRINGS,1
	0x43052a3f		.L.str.868
.rodata.str1.1	0x43052a7b	0x68	./out/src/duk/duktape.o	#SHT_PROGBITS,SHF_ALLOC|SHF_MERGE|SHF_STRINGS,1
	0x43052a7b		.L.str.869
.rodata.str1.1	0x43052ae3	0x3f	./out/src/duk/duktape.o	#SHT_PROGBITS,SHF_ALLOC|SHF_MERGE|SHF_STRINGS,1
	0x43052ae3		.L.str.870
.rodata.str1.1	0x43052b22	0x20	./out/src/duk/duktape.o	#SHT_PROGBITS,SHF_ALLOC|SHF_MERGE|SHF_STRINGS,1
	0x43052b22		.L.str.871
.rodata.str1.1	0x43052b42	0x29	./out/src/duk/duktape.o	#SHT_PROGBITS,SHF_ALLOC|SHF_MERGE|SHF_STRINGS,1
	0x43052b42		.L.str.872
.rodata.str1.1	0x43052b6b	0x43	./out/src/duk/duktape.o	#SHT_PROGBITS,SHF_ALLOC|SHF_MERGE|SHF_STRINGS,1
	0x43052b6b		.L.str.873
.rodata.str1.1	0x43052bae	0x22	./out/src/duk/duktape.o	#SHT_PROGBITS,SHF_ALLOC|SHF_MERGE|SHF_STRINGS,1
	0x43052bae		.L.str.874
.rodata.str1.1	0x43052bd0	0x69	./out/src/duk/duktape.o	#SHT_PROGBITS,SHF_ALLOC|SHF_MERGE|SHF_STRINGS,1
	0x43052bd0		.L.str.875
.rodata.str1.1	0x43052c39	0x22	./out/src/duk/duktape.o	#SHT_PROGBITS,SHF_ALLOC|SHF_MERGE|SHF_STRINGS,1
	0x43052c39		.L__func__.duk_valstack_shrink_check_nothrow
.rodata.str1.1	0x43052c5b	0x5a	./out/src/duk/duktape.o	#SHT_PROGBITS,SHF_ALLOC|SHF_MERGE|SHF_STRINGS,1
	0x43052c5b		.L.str.876
.rodata.str1.1	0x43052cb5	0x34	./out/src/duk/duktape.o	#SHT_PROGBITS,SHF_ALLOC|SHF_MERGE|SHF_STRINGS,1
	0x43052cb5		.L.str.877
.rodata.str1.1	0x43052ce9	0x17	./out/src/duk/duktape.o	#SHT_PROGBITS,SHF_ALLOC|SHF_MERGE|SHF_STRINGS,1
	0x43052ce9		.L__func__.duk__sweep_stringtable
.rodata.str1.1	0x43052d00	0x1b	./out/src/duk/duktape.o	#SHT_PROGBITS,SHF_ALLOC|SHF_MERGE|SHF_STRINGS,1
	0x43052d00		.L.str.878
.rodata.str1.1	0x43052d1b	0x36	./out/src/duk/duktape.o	#SHT_PROGBITS,SHF_ALLOC|SHF_MERGE|SHF_STRINGS,1
	0x43052d1b		.L.str.879
.rodata.str1.1	0x43052d51	0x1f	./out/src/duk/duktape.o	#SHT_PROGBITS,SHF_ALLOC|SHF_MERGE|SHF_STRINGS,1
	0x43052d51		.L__func__.duk__clear_finalize_list_flags
.rodata.str1.1	0x43052d70	0x23	./out/src/duk/duktape.o	#SHT_PROGBITS,SHF_ALLOC|SHF_MERGE|SHF_STRINGS,1
	0x43052d70		.L.str.880
.rodata.str1.1	0x43052d93	0x15	./out/src/duk/duktape.o	#SHT_PROGBITS,SHF_ALLOC|SHF_MERGE|SHF_STRINGS,1
	0x43052d93		.L__func__.duk__compact_objects
.rodata.str1.1	0x43052da8	0x19	./out/src/duk/duktape.o	#SHT_PROGBITS,SHF_ALLOC|SHF_MERGE|SHF_STRINGS,1
	0x43052da8		.L.str.881
.rodata.str1.1	0x43052dc1	0x64	./out/src/duk/duktape.o	#SHT_PROGBITS,SHF_ALLOC|SHF_MERGE|SHF_STRINGS,1
	0x43052dc1		.L.str.882
.rodata.str1.1	0x43052e25	0x19	./out/src/duk/duktape.o	#SHT_PROGBITS,SHF_ALLOC|SHF_MERGE|SHF_STRINGS,1
	0x43052e25		.L__func__.duk__compact_object_list
.rodata.str1.1	0x43052e3e	0x13	./out/src/duk/duktape.o	#SHT_PROGBITS,SHF_ALLOC|SHF_MERGE|SHF_STRINGS,1
	0x43052e3e		.L.str.883
.rodata.str1.1	0x43052e51	0x10	./out/src/duk/duktape.o	#SHT_PROGBITS,SHF_ALLOC|SHF_MERGE|SHF_STRINGS,1
	0x43052e51		.L__func__.duk__dump_stats
.rodata.str1.1	0x43052e61	0x36	./out/src/duk/duktape.o	#SHT_PROGBITS,SHF_ALLOC|SHF_MERGE|SHF_STRINGS,1
	0x43052e61		.L.str.884
.rodata.str1.1	0x43052e97	0x32	./out/src/duk/duktape.o	#SHT_PROGBITS,SHF_ALLOC|SHF_MERGE|SHF_STRINGS,1
	0x43052e97		.L.str.885
.rodata.str1.1	0x43052ec9	0x30	./out/src/duk/duktape.o	#SHT_PROGBITS,SHF_ALLOC|SHF_MERGE|SHF_STRINGS,1
	0x43052ec9		.L.str.886
.rodata.str1.1	0x43052ef9	0x49	./out/src/duk/duktape.o	#SHT_PROGBITS,SHF_ALLOC|SHF_MERGE|SHF_STRINGS,1
	0x43052ef9		.L.str.887
.rodata.str1.1	0x43052f42	0xa0	./out/src/duk/duktape.o	#SHT_PROGBITS,SHF_ALLOC|SHF_MERGE|SHF_STRINGS,1
	0x43052f42		.L.str.888
.rodata.str1.1	0x43052fe2	0x33	./out/src/duk/duktape.o	#SHT_PROGBITS,SHF_ALLOC|SHF_MERGE|SHF_STRINGS,1
	0x43052fe2		.L.str.889
.rodata.str1.1	0x43053015	0x33	./out/src/duk/duktape.o	#SHT_PROGBITS,SHF_ALLOC|SHF_MERGE|SHF_STRINGS,1
	0x43053015		.L.str.890
.rodata.str1.1	0x43053048	0x30	./out/src/duk/duktape.o	#SHT_PROGBITS,SHF_ALLOC|SHF_MERGE|SHF_STRINGS,1
	0x43053048		.L.str.891
.rodata.str1.1	0x43053078	0x8a	./out/src/duk/duktape.o	#SHT_PROGBITS,SHF_ALLOC|SHF_MERGE|SHF_STRINGS,1
	0x43053078		.L.str.892
.rodata.str1.1	0x43053102	0x4e	./out/src/duk/duktape.o	#SHT_PROGBITS,SHF_ALLOC|SHF_MERGE|SHF_STRINGS,1
	0x43053102		.L.str.893
.rodata.str1.1	0x43053150	0x16	./out/src/duk/duktape.o	#SHT_PROGBITS,SHF_ALLOC|SHF_MERGE|SHF_STRINGS,1
	0x43053150		.L.str.894
.rodata.str1.1	0x43053166	0x16	./out/src/duk/duktape.o	#SHT_PROGBITS,SHF_ALLOC|SHF_MERGE|SHF_STRINGS,1
	0x43053166		.L.str.895
.rodata.str1.1	0x4305317c	0x55	./out/src/duk/duktape.o	#SHT_PROGBITS,SHF_ALLOC|SHF_MERGE|SHF_STRINGS,1
	0x4305317c		.L.str.896
.rodata.str1.1	0x430531d1	0x13	./out/src/duk/duktape.o	#SHT_PROGBITS,SHF_ALLOC|SHF_MERGE|SHF_STRINGS,1
	0x430531d1		.L__func__.duk_heap_mem_alloc
.rodata.str1.1	0x430531e4	0x55	./out/src/duk/duktape.o	#SHT_PROGBITS,SHF_ALLOC|SHF_MERGE|SHF_STRINGS,1
	0x430531e4		.L.str.897
.rodata.str1.1	0x43053239	0x34	./out/src/duk/duktape.o	#SHT_PROGBITS,SHF_ALLOC|SHF_MERGE|SHF_STRINGS,1
	0x43053239		.L.str.898
.rodata.str1.1	0x4305326d	0x1d	./out/src/duk/duktape.o	#SHT_PROGBITS,SHF_ALLOC|SHF_MERGE|SHF_STRINGS,1
	0x4305326d		.L__func__.duk__heap_mem_alloc_slowpath
.rodata.str1.1	0x4305328a	0x2a	./out/src/duk/duktape.o	#SHT_PROGBITS,SHF_ALLOC|SHF_MERGE|SHF_STRINGS,1
	0x4305328a		.L.str.899
.rodata.str1.1	0x430532b4	0x52	./out/src/duk/duktape.o	#SHT_PROGBITS,SHF_ALLOC|SHF_MERGE|SHF_STRINGS,1
	0x430532b4		.L.str.900
.rodata.str1.1	0x43053306	0x43	./out/src/duk/duktape.o	#SHT_PROGBITS,SHF_ALLOC|SHF_MERGE|SHF_STRINGS,1
	0x43053306		.L.str.901
.rodata.str1.1	0x43053349	0x3a	./out/src/duk/duktape.o	#SHT_PROGBITS,SHF_ALLOC|SHF_MERGE|SHF_STRINGS,1
	0x43053349		.L.str.902
.rodata.str1.1	0x43053383	0x15	./out/src/duk/duktape.o	#SHT_PROGBITS,SHF_ALLOC|SHF_MERGE|SHF_STRINGS,1
	0x43053383		.L__func__.duk_heap_mem_realloc
.rodata.str1.1	0x43053398	0x59	./out/src/duk/duktape.o	#SHT_PROGBITS,SHF_ALLOC|SHF_MERGE|SHF_STRINGS,1
	0x43053398		.L.str.903
.rodata.str1.1	0x430533f1	0x36	./out/src/duk/duktape.o	#SHT_PROGBITS,SHF_ALLOC|SHF_MERGE|SHF_STRINGS,1
	0x430533f1		.L.str.904
.rodata.str1.1	0x43053427	0x1f	./out/src/duk/duktape.o	#SHT_PROGBITS,SHF_ALLOC|SHF_MERGE|SHF_STRINGS,1
	0x43053427		.L__func__.duk__heap_mem_realloc_slowpath
.rodata.str1.1	0x43053446	0x2c	./out/src/duk/duktape.o	#SHT_PROGBITS,SHF_ALLOC|SHF_MERGE|SHF_STRINGS,1
	0x43053446		.L.str.905
.rodata.str1.1	0x43053472	0x45	./out/src/duk/duktape.o	#SHT_PROGBITS,SHF_ALLOC|SHF_MERGE|SHF_STRINGS,1
	0x43053472		.L.str.906
.rodata.str1.1	0x430534b7	0x3c	./out/src/duk/duktape.o	#SHT_PROGBITS,SHF_ALLOC|SHF_MERGE|SHF_STRINGS,1
	0x430534b7		.L.str.907
.rodata.str1.1	0x430534f3	0x1a	./out/src/duk/duktape.o	#SHT_PROGBITS,SHF_ALLOC|SHF_MERGE|SHF_STRINGS,1
	0x430534f3		.L__func__.duk_hobject_compact_props
.rodata.str1.1	0x4305350d	0x27	./out/src/duk/duktape.o	#SHT_PROGBITS,SHF_ALLOC|SHF_MERGE|SHF_STRINGS,1
	0x4305350d		.L.str.908
.rodata.str1.1	0x43053534	0x74	./out/src/duk/duktape.o	#SHT_PROGBITS,SHF_ALLOC|SHF_MERGE|SHF_STRINGS,1
	0x43053534		.L.str.909
.rodata.str1.1	0x430535a8	0x43	./out/src/duk/duktape.o	#SHT_PROGBITS,SHF_ALLOC|SHF_MERGE|SHF_STRINGS,1
	0x430535a8		.L.str.910
.rodata.str1.1	0x430535eb	0x28	./out/src/duk/duktape.o	#SHT_PROGBITS,SHF_ALLOC|SHF_MERGE|SHF_STRINGS,1
	0x430535eb		.L.str.911
.rodata.str1.1	0x43053613	0x58	./out/src/duk/duktape.o	#SHT_PROGBITS,SHF_ALLOC|SHF_MERGE|SHF_STRINGS,1
	0x43053613		.L.str.912
.rodata.str1.1	0x4305366b	0x1c	./out/src/duk/duktape.o	#SHT_PROGBITS,SHF_ALLOC|SHF_MERGE|SHF_STRINGS,1
	0x4305366b		.L.str.913
.rodata.str1.1	0x43053687	0x22	./out/src/duk/duktape.o	#SHT_PROGBITS,SHF_ALLOC|SHF_MERGE|SHF_STRINGS,1
	0x43053687		.L__func__.duk__getprop_fastpath_bufobj_tval
.rodata.str1.1	0x430536a9	0x23	./out/src/duk/duktape.o	#SHT_PROGBITS,SHF_ALLOC|SHF_MERGE|SHF_STRINGS,1
	0x430536a9		.L__func__.duk_hobject_define_property_helper
.rodata.str1.1	0x430536cc	0x38	./out/src/duk/duktape.o	#SHT_PROGBITS,SHF_ALLOC|SHF_MERGE|SHF_STRINGS,1
	0x430536cc		.L.str.914
.rodata.str1.1	0x43053704	0x36	./out/src/duk/duktape.o	#SHT_PROGBITS,SHF_ALLOC|SHF_MERGE|SHF_STRINGS,1
	0x43053704		.L.str.915
.rodata.str1.1	0x4305373a	0x49	./out/src/duk/duktape.o	#SHT_PROGBITS,SHF_ALLOC|SHF_MERGE|SHF_STRINGS,1
	0x4305373a		.L.str.916
.rodata.str1.1	0x43053783	0x6b	./out/src/duk/duktape.o	#SHT_PROGBITS,SHF_ALLOC|SHF_MERGE|SHF_STRINGS,1
	0x43053783		.L.str.917
.rodata.str1.1	0x430537ee	0x3b	./out/src/duk/duktape.o	#SHT_PROGBITS,SHF_ALLOC|SHF_MERGE|SHF_STRINGS,1
	0x430537ee		.L.str.918
.rodata.str1.1	0x43053829	0x43	./out/src/duk/duktape.o	#SHT_PROGBITS,SHF_ALLOC|SHF_MERGE|SHF_STRINGS,1
	0x43053829		.L.str.919
.rodata.str1.1	0x4305386c	0x2d	./out/src/duk/duktape.o	#SHT_PROGBITS,SHF_ALLOC|SHF_MERGE|SHF_STRINGS,1
	0x4305386c		.L.str.920
.rodata.str1.1	0x43053899	0x21	./out/src/duk/duktape.o	#SHT_PROGBITS,SHF_ALLOC|SHF_MERGE|SHF_STRINGS,1
	0x43053899		.L__func__.duk__duplicate_ram_global_object
.rodata.str1.1	0x430538ba	0x1e	./out/src/duk/duktape.o	#SHT_PROGBITS,SHF_ALLOC|SHF_MERGE|SHF_STRINGS,1
	0x430538ba		.L.str.921
.rodata.str1.1	0x430538d8	0x1b	./out/src/duk/duktape.o	#SHT_PROGBITS,SHF_ALLOC|SHF_MERGE|SHF_STRINGS,1
	0x430538d8		.L.str.922
.rodata.str1.1	0x430538f3	0x15	./out/src/duk/duktape.o	#SHT_PROGBITS,SHF_ALLOC|SHF_MERGE|SHF_STRINGS,1
	0x430538f3		.L__func__.duk__handle_call_raw
.rodata.str1.1	0x43053908	0x123	./out/src/duk/duktape.o	#SHT_PROGBITS,SHF_ALLOC|SHF_MERGE|SHF_STRINGS,1
	0x43053908		.L.str.923
.rodata.str1.1	0x43053a2b	0x29	./out/src/duk/duktape.o	#SHT_PROGBITS,SHF_ALLOC|SHF_MERGE|SHF_STRINGS,1
	0x43053a2b		.L.str.924
.rodata.str1.1	0x43053a54	0x16	./out/src/duk/duktape.o	#SHT_PROGBITS,SHF_ALLOC|SHF_MERGE|SHF_STRINGS,1
	0x43053a54		.L.str.925
.rodata.str1.1	0x43053a6a	0x1b	./out/src/duk/duktape.o	#SHT_PROGBITS,SHF_ALLOC|SHF_MERGE|SHF_STRINGS,1
	0x43053a6a		.L.str.926
.rodata.str1.1	0x43053a85	0x2b	./out/src/duk/duktape.o	#SHT_PROGBITS,SHF_ALLOC|SHF_MERGE|SHF_STRINGS,1
	0x43053a85		.L__func__.duk__call_c_recursion_limit_check_slowpath
.rodata.str1.1	0x43053ab0	0x31	./out/src/duk/duktape.o	#SHT_PROGBITS,SHF_ALLOC|SHF_MERGE|SHF_STRINGS,1
	0x43053ab0		.L.str.927
.rodata.str1.1	0x43053ae1	0x14	./out/src/duk/duktape.o	#SHT_PROGBITS,SHF_ALLOC|SHF_MERGE|SHF_STRINGS,1
	0x43053ae1		.L.str.928
.rodata.str1.1	0x43053af5	0x2a	./out/src/duk/duktape.o	#SHT_PROGBITS,SHF_ALLOC|SHF_MERGE|SHF_STRINGS,1
	0x43053af5		.L__func__.duk__resolve_target_func_and_this_binding
.rodata.str1.1	0x43053b1f	0x12	./out/src/duk/duktape.o	#SHT_PROGBITS,SHF_ALLOC|SHF_MERGE|SHF_STRINGS,1
	0x43053b1f		.L.str.929
.rodata.str1.1	0x43053b31	0x21	./out/src/duk/duktape.o	#SHT_PROGBITS,SHF_ALLOC|SHF_MERGE|SHF_STRINGS,1
	0x43053b31		.L.str.930
.rodata.str1.1	0x43053b52	0x10	./out/src/duk/duktape.o	#SHT_PROGBITS,SHF_ALLOC|SHF_MERGE|SHF_STRINGS,1
	0x43053b52		.L.str.931
.rodata.str1.1	0x43053b62	0x15	./out/src/duk/duktape.o	#SHT_PROGBITS,SHF_ALLOC|SHF_MERGE|SHF_STRINGS,1
	0x43053b62		.L.str.932
.rodata.str1.1	0x43053b77	0x23	./out/src/duk/duktape.o	#SHT_PROGBITS,SHF_ALLOC|SHF_MERGE|SHF_STRINGS,1
	0x43053b77		.L__func__.duk__coerce_nonstrict_this_binding
.rodata.str1.1	0x43053b9a	0x55	./out/src/duk/duktape.o	#SHT_PROGBITS,SHF_ALLOC|SHF_MERGE|SHF_STRINGS,1
	0x43053b9a		.L.str.933
.rodata.str1.1	0x43053bef	0x29	./out/src/duk/duktape.o	#SHT_PROGBITS,SHF_ALLOC|SHF_MERGE|SHF_STRINGS,1
	0x43053bef		.L__func__.duk__call_callstack_limit_check_slowpath
.rodata.str1.1	0x43053c18	0x30	./out/src/duk/duktape.o	#SHT_PROGBITS,SHF_ALLOC|SHF_MERGE|SHF_STRINGS,1
	0x43053c18		.L.str.934
.rodata.str1.1	0x43053c48	0x10	./out/src/duk/duktape.o	#SHT_PROGBITS,SHF_ALLOC|SHF_MERGE|SHF_STRINGS,1
	0x43053c48		.L.str.935
.rodata.str1.1	0x43053c58	0x1d	./out/src/duk/duktape.o	#SHT_PROGBITS,SHF_ALLOC|SHF_MERGE|SHF_STRINGS,1
	0x43053c58		.L__func__.duk__create_arguments_object
.rodata.str1.1	0x43053c75	0x42	./out/src/duk/duktape.o	#SHT_PROGBITS,SHF_ALLOC|SHF_MERGE|SHF_STRINGS,1
	0x43053c75		.L.str.936
.rodata.str1.1	0x43053cb7	0x18	./out/src/duk/duktape.o	#SHT_PROGBITS,SHF_ALLOC|SHF_MERGE|SHF_STRINGS,1
	0x43053cb7		.L__func__.duk__handle_catch_part2
.rodata.str1.1	0x43053ccf	0x27	./out/src/duk/duktape.o	#SHT_PROGBITS,SHF_ALLOC|SHF_MERGE|SHF_STRINGS,1
	0x43053ccf		.L.str.937
.rodata.str1.1	0x43053cf6	0x1f	./out/src/duk/duktape.o	#SHT_PROGBITS,SHF_ALLOC|SHF_MERGE|SHF_STRINGS,1
	0x43053cf6		.L__func__.duk__js_execute_bytecode_inner
.rodata.str1.1	0x43053d15	0x79	./out/src/duk/duktape.o	#SHT_PROGBITS,SHF_ALLOC|SHF_MERGE|SHF_STRINGS,1
	0x43053d15		.L.str.938
.rodata.str1.1	0x43053d8e	0x30	./out/src/duk/duktape.o	#SHT_PROGBITS,SHF_ALLOC|SHF_MERGE|SHF_STRINGS,1
	0x43053d8e		.L.str.939
.rodata.str1.1	0x43053dbe	0x15	./out/src/duk/duktape.o	#SHT_PROGBITS,SHF_ALLOC|SHF_MERGE|SHF_STRINGS,1
	0x43053dbe		.L.str.940
.rodata.str1.1	0x43053dd3	0x1a	./out/src/duk/duktape.o	#SHT_PROGBITS,SHF_ALLOC|SHF_MERGE|SHF_STRINGS,1
	0x43053dd3		.L.str.941
.rodata.str1.1	0x43053ded	0xf	./out/src/duk/duktape.o	#SHT_PROGBITS,SHF_ALLOC|SHF_MERGE|SHF_STRINGS,1
	0x43053ded		.L.str.942
.rodata.str1.1	0x43053dfc	0x13	./out/src/duk/duktape.o	#SHT_PROGBITS,SHF_ALLOC|SHF_MERGE|SHF_STRINGS,1
	0x43053dfc		.L.str.943
.rodata.str1.1	0x43053e0f	0x13	./out/src/duk/duktape.o	#SHT_PROGBITS,SHF_ALLOC|SHF_MERGE|SHF_STRINGS,1
	0x43053e0f		.L__func__.duk__handle_return
.rodata.str1.1	0x43053e22	0x31	./out/src/duk/duktape.o	#SHT_PROGBITS,SHF_ALLOC|SHF_MERGE|SHF_STRINGS,1
	0x43053e22		.L.str.944
.rodata.str1.1	0x43053e53	0x37	./out/src/duk/duktape.o	#SHT_PROGBITS,SHF_ALLOC|SHF_MERGE|SHF_STRINGS,1
	0x43053e53		.L.str.945
.rodata.str1.1	0x43053e8a	0x1e	./out/src/duk/duktape.o	#SHT_PROGBITS,SHF_ALLOC|SHF_MERGE|SHF_STRINGS,1
	0x43053e8a		.L__func__.duk__handle_break_or_continue
.rodata.str1.1	0x43053ea8	0x39	./out/src/duk/duktape.o	#SHT_PROGBITS,SHF_ALLOC|SHF_MERGE|SHF_STRINGS,1
	0x43053ea8		.L.str.946
.rodata.str1.1	0x43053ee1	0x56	./out/src/duk/duktape.o	#SHT_PROGBITS,SHF_ALLOC|SHF_MERGE|SHF_STRINGS,1
	0x43053ee1		.L.str.947
.rodata.str1.1	0x43053f37	0x6d	./out/src/duk/duktape.o	#SHT_PROGBITS,SHF_ALLOC|SHF_MERGE|SHF_STRINGS,1
	0x43053f37		.L.str.948
.rodata.str1.1	0x43053fa4	0x1b	./out/src/duk/duktape.o	#SHT_PROGBITS,SHF_ALLOC|SHF_MERGE|SHF_STRINGS,1
	0x43053fa4		.L__func__.duk__handle_executor_error
.rodata.str1.1	0x43053fbf	0x38	./out/src/duk/duktape.o	#SHT_PROGBITS,SHF_ALLOC|SHF_MERGE|SHF_STRINGS,1
	0x43053fbf		.L.str.949
.rodata.str1.1	0x43053ff7	0x14	./out/src/duk/duktape.o	#SHT_PROGBITS,SHF_ALLOC|SHF_MERGE|SHF_STRINGS,1
	0x43053ff7		.L__func__.duk__handle_longjmp
.rodata.str1.1	0x4305400b	0x49	./out/src/duk/duktape.o	#SHT_PROGBITS,SHF_ALLOC|SHF_MERGE|SHF_STRINGS,1
	0x4305400b		.L.str.950
.rodata.str1.1	0x43054054	0x37	./out/src/duk/duktape.o	#SHT_PROGBITS,SHF_ALLOC|SHF_MERGE|SHF_STRINGS,1
	0x43054054		.L.str.951
.rodata.str1.1	0x4305408b	0x39	./out/src/duk/duktape.o	#SHT_PROGBITS,SHF_ALLOC|SHF_MERGE|SHF_STRINGS,1
	0x4305408b		.L.str.952
.rodata.str1.1	0x430540c4	0x4a	./out/src/duk/duktape.o	#SHT_PROGBITS,SHF_ALLOC|SHF_MERGE|SHF_STRINGS,1
	0x430540c4		.L.str.953
.rodata.str1.1	0x4305410e	0x52	./out/src/duk/duktape.o	#SHT_PROGBITS,SHF_ALLOC|SHF_MERGE|SHF_STRINGS,1
	0x4305410e		.L.str.954
.rodata.str1.1	0x43054160	0x39	./out/src/duk/duktape.o	#SHT_PROGBITS,SHF_ALLOC|SHF_MERGE|SHF_STRINGS,1
	0x43054160		.L.str.955
.rodata.str1.1	0x43054199	0x30	./out/src/duk/duktape.o	#SHT_PROGBITS,SHF_ALLOC|SHF_MERGE|SHF_STRINGS,1
	0x43054199		.L.str.956
.rodata.str1.1	0x430541c9	0x18	./out/src/duk/duktape.o	#SHT_PROGBITS,SHF_ALLOC|SHF_MERGE|SHF_STRINGS,1
	0x430541c9		.L__func__.duk__handle_catch_part1
.rodata.str1.1	0x430541e1	0x27	./out/src/duk/duktape.o	#SHT_PROGBITS,SHF_ALLOC|SHF_MERGE|SHF_STRINGS,1
	0x430541e1		.L.str.957
.rodata.str1.1	0x43054208	0xf	./out/src/duk/duktape.o	#SHT_PROGBITS,SHF_ALLOC|SHF_MERGE|SHF_STRINGS,1
	0x43054208		.L.str.958
.rodata.str1.1	0x43054217	0x15	./out/src/duk/duktape.o	#SHT_PROGBITS,SHF_ALLOC|SHF_MERGE|SHF_STRINGS,1
	0x43054217		.L__func__.duk_handle_safe_call
.rodata.str1.1	0x4305422c	0xfa	./out/src/duk/duktape.o	#SHT_PROGBITS,SHF_ALLOC|SHF_MERGE|SHF_STRINGS,1
	0x4305422c		.L.str.960
.rodata.str1.1	0x43054326	0x1c	./out/src/duk/duktape.o	#SHT_PROGBITS,SHF_ALLOC|SHF_MERGE|SHF_STRINGS,1
	0x43054326		.L__func__.duk__handle_safe_call_error
.rodata.str1.1	0x43054342	0x39	./out/src/duk/duktape.o	#SHT_PROGBITS,SHF_ALLOC|SHF_MERGE|SHF_STRINGS,1
	0x43054342		.L.str.961
.rodata.str1.1	0x4305437b	0x1c	./out/src/duk/duktape.o	#SHT_PROGBITS,SHF_ALLOC|SHF_MERGE|SHF_STRINGS,1
	0x4305437b		.L.str.962
.rodata.str1.1	0x43054397	0x18	./out/src/duk/duktape.o	#SHT_PROGBITS,SHF_ALLOC|SHF_MERGE|SHF_STRINGS,1
	0x43054397		.L.str.963
.rodata.str1.1	0x430543af	0x22	./out/src/duk/duktape.o	#SHT_PROGBITS,SHF_ALLOC|SHF_MERGE|SHF_STRINGS,1
	0x430543af		.L.str.964
.rodata.str1.1	0x430543d1	0xe	./out/src/duk/duktape.o	#SHT_PROGBITS,SHF_ALLOC|SHF_MERGE|SHF_STRINGS,1
	0x430543d1		.L__func__.duk_bw_resize
.rodata.str1.1	0x430543df	0x31	./out/src/duk/duktape.o	#SHT_PROGBITS,SHF_ALLOC|SHF_MERGE|SHF_STRINGS,1
	0x430543df		.L.str.965
.rodata.cst4	0x43054410	0x4	./out/src/duk/duktape.o	#SHT_PROGBITS,SHF_ALLOC|SHF_MERGE,2
	0x43054410		duk__closure_copy_proplist
.rodata.cst32	0x43054414	0x40	./out/src/duk/duktape.o	#SHT_PROGBITS,SHF_ALLOC|SHF_MERGE,1
	0x43054414		duk__cbor_decode_skip_aival_int.skips
	0x43054434		duk_class_number_to_stridx
.rodata.cst16	0x43054454	0x30	./out/src/duk/duktape.o	#SHT_PROGBITS,SHF_ALLOC|SHF_MERGE,4
	0x43054454		duk_uc_nybbles
	0x43054464		duk__escape_unescaped_table
	0x43054474		duk__object_keys_enum_flags
.rodata.cst16	0x43054484	0x10	C:\Users\nikol\projects\quectel\development\customer\threadx\tools\LLVM\4.0.3\armv7m-none-eabi\libc\lib/libc.a(setlocale.o)	#SHT_PROGBITS,SHF_ALLOC|SHF_MERGE,4
	0x43054484		$d
PADDING_ALIGNMENT	0x43054494	0x4	0x0
.rodata.cst32	0x43054498	0x40	C:\Users\nikol\projects\quectel\development\customer\threadx\tools\LLVM\4.0.3\armv7m-none-eabi\libc\lib/libc.a(atan.o)	#SHT_PROGBITS,SHF_ALLOC|SHF_MERGE,8
	0x43054498		atanhi
	0x43054498		$d
	0x430544b8		atanlo
.rodata.cst16	0x430544d8	0x10	C:\Users\nikol\projects\quectel\development\customer\threadx\tools\LLVM\4.0.3\armv7m-none-eabi\libc\lib/libc.a(exp.o)	#SHT_PROGBITS,SHF_ALLOC|SHF_MERGE,8
	0x430544d8		half
	0x430544d8		$d
.rodata.cst16	0x430544e8	0x30	C:\Users\nikol\projects\quectel\development\customer\threadx\tools\LLVM\4.0.3\armv7m-none-eabi\libc\lib/libc.a(pow.o)	#SHT_PROGBITS,SHF_ALLOC|SHF_MERGE,8
	0x430544e8		bp
	0x430544e8		$d
	0x430544f8		dp_l
	0x43054508		dp_h
.rodata.str1.1	0x43054518	0x18	C:\Users\nikol\projects\quectel\development\customer\threadx\tools\LLVM\4.0.3\armv7m-none-eabi\libc\lib/libc.a(getopt.o)	#SHT_PROGBITS,SHF_ALLOC|SHF_MERGE|SHF_STRINGS,1
.rodata.str1.1	0x43054530	0x20	C:\Users\nikol\projects\quectel\development\customer\threadx\tools\LLVM\4.0.3\armv7m-none-eabi\libc\lib/libc.a(getopt.o)	#SHT_PROGBITS,SHF_ALLOC|SHF_MERGE|SHF_STRINGS,1
.rodata.str1.1	0x43054550	0xa	C:\Users\nikol\projects\quectel\development\customer\threadx\tools\LLVM\4.0.3\armv7m-none-eabi\libc\lib/libc.a(vfprintf.o)	#SHT_PROGBITS,SHF_ALLOC|SHF_MERGE|SHF_STRINGS,1
.rodata.states	0x4305455a	0x1d0	C:\Users\nikol\projects\quectel\development\customer\threadx\tools\LLVM\4.0.3\armv7m-none-eabi\libc\lib/libc.a(vfprintf.o)	#SHT_PROGBITS,SHF_ALLOC,1
	0x4305455a		states
.rodata.cst16	0x4305472a	0x10	C:\Users\nikol\projects\quectel\development\customer\threadx\tools\LLVM\4.0.3\armv7m-none-eabi\libc\lib/libc.a(vfprintf.o)	#SHT_PROGBITS,SHF_ALLOC|SHF_MERGE,1
	0x4305472a		xdigits
PADDING_ALIGNMENT	0x4305473a	0x2	0x0
.rodata.str1.4	0x4305473c	0x14	C:\Users\nikol\projects\quectel\development\customer\threadx\tools\LLVM\4.0.3\armv7m-none-eabi\libc\lib/libc.a(vfprintf.o)	#SHT_PROGBITS,SHF_ALLOC|SHF_MERGE|SHF_STRINGS,4
	0x4305473c		$d
.rodata.stderr	0x43054750	0x4	C:\Users\nikol\projects\quectel\development\customer\threadx\tools\LLVM\4.0.3\armv7m-none-eabi\libc\lib/libc.a(stderr.o)	#SHT_PROGBITS,SHF_ALLOC,4
	0x43054750		$d
	0x43054750		stderr
PADDING_ALIGNMENT	0x43054754	0x4	0x0
.rodata..Lvsnprintf_full.f	0x43054758	0x90	C:\Users\nikol\projects\quectel\development\customer\threadx\tools\LLVM\4.0.3\armv7m-none-eabi\libc\lib/libc.a(vsnprintf.o)	#SHT_PROGBITS,SHF_ALLOC,8
	0x43054758		$d
.rodata.str1.1	0x430547e8	0x2	C:\Users\nikol\projects\quectel\development\customer\threadx\tools\LLVM\4.0.3\armv7m-none-eabi\libc\lib/libc.a(strftime.o)	#SHT_PROGBITS,SHF_ALLOC|SHF_MERGE|SHF_STRINGS,1
.rodata.str1.1	0x430547ea	0x9	C:\Users\nikol\projects\quectel\development\customer\threadx\tools\LLVM\4.0.3\armv7m-none-eabi\libc\lib/libc.a(strftime.o)	#SHT_PROGBITS,SHF_ALLOC|SHF_MERGE|SHF_STRINGS,1
.rodata.str1.1	0x430547f3	0x4	C:\Users\nikol\projects\quectel\development\customer\threadx\tools\LLVM\4.0.3\armv7m-none-eabi\libc\lib/libc.a(strftime.o)	#SHT_PROGBITS,SHF_ALLOC|SHF_MERGE|SHF_STRINGS,1
.rodata.str1.1	0x430547f7	0x9	C:\Users\nikol\projects\quectel\development\customer\threadx\tools\LLVM\4.0.3\armv7m-none-eabi\libc\lib/libc.a(strftime.o)	#SHT_PROGBITS,SHF_ALLOC|SHF_MERGE|SHF_STRINGS,1
.rodata.str1.1	0x43054800	0x2	C:\Users\nikol\projects\quectel\development\customer\threadx\tools\LLVM\4.0.3\armv7m-none-eabi\libc\lib/libc.a(strftime.o)	#SHT_PROGBITS,SHF_ALLOC|SHF_MERGE|SHF_STRINGS,1
.rodata.str1.1	0x43054802	0x6	C:\Users\nikol\projects\quectel\development\customer\threadx\tools\LLVM\4.0.3\armv7m-none-eabi\libc\lib/libc.a(strftime.o)	#SHT_PROGBITS,SHF_ALLOC|SHF_MERGE|SHF_STRINGS,1
.rodata.str1.1	0x43054808	0x2	C:\Users\nikol\projects\quectel\development\customer\threadx\tools\LLVM\4.0.3\armv7m-none-eabi\libc\lib/libc.a(strftime.o)	#SHT_PROGBITS,SHF_ALLOC|SHF_MERGE|SHF_STRINGS,1
.rodata.str1.1	0x4305480a	0x9	C:\Users\nikol\projects\quectel\development\customer\threadx\tools\LLVM\4.0.3\armv7m-none-eabi\libc\lib/libc.a(strftime.o)	#SHT_PROGBITS,SHF_ALLOC|SHF_MERGE|SHF_STRINGS,1
.rodata.str1.1	0x43054813	0x6	C:\Users\nikol\projects\quectel\development\customer\threadx\tools\LLVM\4.0.3\armv7m-none-eabi\libc\lib/libc.a(strftime.o)	#SHT_PROGBITS,SHF_ALLOC|SHF_MERGE|SHF_STRINGS,1
.rodata.str1.1	0x43054819	0xa	C:\Users\nikol\projects\quectel\development\customer\threadx\tools\LLVM\4.0.3\armv7m-none-eabi\libc\lib/libc.a(strftime.o)	#SHT_PROGBITS,SHF_ALLOC|SHF_MERGE|SHF_STRINGS,1
.rodata.str1.1	0x43054823	0x2	C:\Users\nikol\projects\quectel\development\customer\threadx\tools\LLVM\4.0.3\armv7m-none-eabi\libc\lib/libc.a(strftime.o)	#SHT_PROGBITS,SHF_ALLOC|SHF_MERGE|SHF_STRINGS,1
.rodata.str1.1	0x43054825	0x7	C:\Users\nikol\projects\quectel\development\customer\threadx\tools\LLVM\4.0.3\armv7m-none-eabi\libc\lib/libc.a(strftime.o)	#SHT_PROGBITS,SHF_ALLOC|SHF_MERGE|SHF_STRINGS,1
.rodata.str1.1	0x4305482c	0x58	C:\Users\nikol\projects\quectel\development\customer\threadx\tools\LLVM\4.0.3\armv7m-none-eabi\libc\lib/libc.a(strerror.o)	#SHT_PROGBITS,SHF_ALLOC|SHF_MERGE|SHF_STRINGS,1
	0x4305482c		errid
.rodata.errmsg	0x43054884	0x70c	C:\Users\nikol\projects\quectel\development\customer\threadx\tools\LLVM\4.0.3\armv7m-none-eabi\libc\lib/libc.a(strerror.o)	#SHT_PROGBITS,SHF_ALLOC,1
	0x43054884		errmsg
.rodata.str1.1	0x43054f90	0x6	C:\Users\nikol\projects\quectel\development\customer\threadx\tools\LLVM\4.0.3\armv7m-none-eabi\libc\lib/libc.a(langinfo.o)	#SHT_PROGBITS,SHF_ALLOC|SHF_MERGE|SHF_STRINGS,1
.rodata.str1.1	0x43054f96	0x6	C:\Users\nikol\projects\quectel\development\customer\threadx\tools\LLVM\4.0.3\armv7m-none-eabi\libc\lib/libc.a(langinfo.o)	#SHT_PROGBITS,SHF_ALLOC|SHF_MERGE|SHF_STRINGS,1
.rodata.c_numeric	0x43054f9c	0x3	C:\Users\nikol\projects\quectel\development\customer\threadx\tools\LLVM\4.0.3\armv7m-none-eabi\libc\lib/libc.a(langinfo.o)	#SHT_PROGBITS,SHF_ALLOC,1
	0x43054f9c		c_numeric
.rodata.c_time	0x43054f9f	0x13c	C:\Users\nikol\projects\quectel\development\customer\threadx\tools\LLVM\4.0.3\armv7m-none-eabi\libc\lib/libc.a(langinfo.o)	#SHT_PROGBITS,SHF_ALLOC,1
	0x43054f9f		c_time
.rodata.c_messages	0x430550db	0x13	C:\Users\nikol\projects\quectel\development\customer\threadx\tools\LLVM\4.0.3\armv7m-none-eabi\libc\lib/libc.a(langinfo.o)	#SHT_PROGBITS,SHF_ALLOC,1
	0x430550db		c_messages
.rodata.str1.1	0x430550ee	0x7	C:\Users\nikol\projects\quectel\development\customer\threadx\tools\LLVM\4.0.3\armv7m-none-eabi\libc\lib/libc.a(locale_map.o)	#SHT_PROGBITS,SHF_ALLOC|SHF_MERGE|SHF_STRINGS,1
.rodata.str1.1	0x430550f5	0x5	C:\Users\nikol\projects\quectel\development\customer\threadx\tools\LLVM\4.0.3\armv7m-none-eabi\libc\lib/libc.a(locale_map.o)	#SHT_PROGBITS,SHF_ALLOC|SHF_MERGE|SHF_STRINGS,1
.rodata.str1.1	0x430550fa	0x8	C:\Users\nikol\projects\quectel\development\customer\threadx\tools\LLVM\4.0.3\armv7m-none-eabi\libc\lib/libc.a(locale_map.o)	#SHT_PROGBITS,SHF_ALLOC|SHF_MERGE|SHF_STRINGS,1
.rodata.str1.1	0x43055102	0x6	C:\Users\nikol\projects\quectel\development\customer\threadx\tools\LLVM\4.0.3\armv7m-none-eabi\libc\lib/libc.a(locale_map.o)	#SHT_PROGBITS,SHF_ALLOC|SHF_MERGE|SHF_STRINGS,1
.rodata.str1.1	0x43055108	0xd	C:\Users\nikol\projects\quectel\development\customer\threadx\tools\LLVM\4.0.3\armv7m-none-eabi\libc\lib/libc.a(locale_map.o)	#SHT_PROGBITS,SHF_ALLOC|SHF_MERGE|SHF_STRINGS,1
.rodata.envvars	0x43055115	0x48	C:\Users\nikol\projects\quectel\development\customer\threadx\tools\LLVM\4.0.3\armv7m-none-eabi\libc\lib/libc.a(locale_map.o)	#SHT_PROGBITS,SHF_ALLOC,1
	0x43055115		envvars
PADDING_ALIGNMENT	0x4305515d	0x3	0x0
.rodata.cst16	0x43055160	0x10	C:\Users\nikol\projects\quectel\development\customer\threadx\tools\LLVM\4.0.3\armv7m-none-eabi\libc\lib/libc.a(__rem_pio2_large.o)	#SHT_PROGBITS,SHF_ALLOC|SHF_MERGE,4
	0x43055160		init_jk
	0x43055160		$d
.rodata.ipio2	0x43055170	0x108	C:\Users\nikol\projects\quectel\development\customer\threadx\tools\LLVM\4.0.3\armv7m-none-eabi\libc\lib/libc.a(__rem_pio2_large.o)	#SHT_PROGBITS,SHF_ALLOC,4
	0x43055170		ipio2
	0x43055170		$d
.rodata.PIo2	0x43055278	0x40	C:\Users\nikol\projects\quectel\development\customer\threadx\tools\LLVM\4.0.3\armv7m-none-eabi\libc\lib/libc.a(__rem_pio2_large.o)	#SHT_PROGBITS,SHF_ALLOC,8
	0x43055278		PIo2
	0x43055278		$d
.rodata.__fsmu8	0x430552b8	0xcc	C:\Users\nikol\projects\quectel\development\customer\threadx\tools\LLVM\4.0.3\armv7m-none-eabi\libc\lib/libc.a(internal.o)	#SHT_PROGBITS,SHF_ALLOC,4
	0x430552b8		$d
	0x430552b8		__fsmu8
.rodata.__secs_to_tm.days_in_month	0x43055384	0xc	C:\Users\nikol\projects\quectel\development\customer\threadx\tools\LLVM\4.0.3\armv7m-none-eabi\libc\lib/libc.a(__secs_to_tm.o)	#SHT_PROGBITS,SHF_ALLOC,1
	0x43055384		__secs_to_tm.days_in_month
.rodata.__gmt	0x43055390	0x4	C:\Users\nikol\projects\quectel\development\customer\threadx\tools\LLVM\4.0.3\armv7m-none-eabi\libc\lib/libc.a(__tz.o)	#SHT_PROGBITS,SHF_ALLOC,1
	0x43055390		__gmt
.rodata.str1.1	0x43055394	0x3	C:\Users\nikol\projects\quectel\development\customer\threadx\tools\LLVM\4.0.3\armv7m-none-eabi\libc\lib/libc.a(__tz.o)	#SHT_PROGBITS,SHF_ALLOC|SHF_MERGE|SHF_STRINGS,1
.rodata.str1.1	0x43055397	0xf	C:\Users\nikol\projects\quectel\development\customer\threadx\tools\LLVM\4.0.3\armv7m-none-eabi\libc\lib/libc.a(__tz.o)	#SHT_PROGBITS,SHF_ALLOC|SHF_MERGE|SHF_STRINGS,1
.rodata.str1.1	0x430553a6	0x5	C:\Users\nikol\projects\quectel\development\customer\threadx\tools\LLVM\4.0.3\armv7m-none-eabi\libc\lib/libc.a(__tz.o)	#SHT_PROGBITS,SHF_ALLOC|SHF_MERGE|SHF_STRINGS,1
.rodata.do_tzset.search	0x430553ab	0x36	C:\Users\nikol\projects\quectel\development\customer\threadx\tools\LLVM\4.0.3\armv7m-none-eabi\libc\lib/libc.a(__tz.o)	#SHT_PROGBITS,SHF_ALLOC,1
	0x430553ab		do_tzset.search
.rodata.str1.1	0x430553e1	0x9	C:\Users\nikol\projects\quectel\development\customer\threadx\tools\LLVM\4.0.3\armv7m-none-eabi\libc\lib/libc.a(floatscan.o)	#SHT_PROGBITS,SHF_ALLOC|SHF_MERGE|SHF_STRINGS,1
PADDING_ALIGNMENT	0x430553ea	0x2	0x0
.rodata.cst8	0x430553ec	0x8	C:\Users\nikol\projects\quectel\development\customer\threadx\tools\LLVM\4.0.3\armv7m-none-eabi\libc\lib/libc.a(floatscan.o)	#SHT_PROGBITS,SHF_ALLOC|SHF_MERGE,4
	0x430553ec		decfloat.th
	0x430553ec		$d
.rodata.cst32	0x430553f4	0x20	C:\Users\nikol\projects\quectel\development\customer\threadx\tools\LLVM\4.0.3\armv7m-none-eabi\libc\lib/libc.a(floatscan.o)	#SHT_PROGBITS,SHF_ALLOC|SHF_MERGE,4
	0x430553f4		decfloat.p10s
	0x430553f4		$d
.rodata.table	0x43055414	0x101	C:\Users\nikol\projects\quectel\development\customer\threadx\tools\LLVM\4.0.3\armv7m-none-eabi\libc\lib/libc.a(intscan.o)	#SHT_PROGBITS,SHF_ALLOC,1
	0x43055414		table
.rodata..L.str	0x43055515	0x9	C:\Users\nikol\projects\quectel\development\customer\threadx\tools\LLVM\4.0.3\armv7m-none-eabi\libc\lib/libc.a(intscan.o)	#SHT_PROGBITS,SHF_ALLOC,1
PADDING_ALIGNMENT	0x4305551e	0x2	0x0
.rodata.empty_mo	0x43055520	0x14	C:\Users\nikol\projects\quectel\development\customer\threadx\tools\LLVM\4.0.3\armv7m-none-eabi\libc\lib/libc.a(c_locale.o)	#SHT_PROGBITS,SHF_ALLOC,4
	0x43055520		empty_mo
	0x43055520		$d
.rodata.__c_dot_utf8	0x43055534	0x1c	C:\Users\nikol\projects\quectel\development\customer\threadx\tools\LLVM\4.0.3\armv7m-none-eabi\libc\lib/libc.a(c_locale.o)	#SHT_PROGBITS,SHF_ALLOC,4
	0x43055534		$d
	0x43055534		__c_dot_utf8
.rodata.__month_to_secs.secs_through_month	0x43055550	0x30	C:\Users\nikol\projects\quectel\development\customer\threadx\tools\LLVM\4.0.3\armv7m-none-eabi\libc\lib/libc.a(__month_to_secs.o)	#SHT_PROGBITS,SHF_ALLOC,4
	0x43055550		__month_to_secs.secs_through_month
	0x43055550		$d
	Image$$ER_RO$$Limit(0x4305561c) = .( 0x4305561c );
Image$$ER_RO$$Length(0x5561c) = Image$$ER_RO$$Limit( 0x4305561c ) - Image$$ER_RO$$Base( 0x43000000 );

ER_RW	0x43055620	0x12f0 # Offset: 0x55680, LMA: 0x43055620
	Image$$ER_RW$$Base(0x43055620) = .( 0x43055620 );
KEEP (*(.data .data.* ))
.data	0x43055620	0x2c	./out/common/src/cli.o	#SHT_PROGBITS,SHF_ALLOC|SHF_WRITE,16
	0x43055620		CLI_CMD_HELP
	0x43055630		CLI_CMD_MEMINFO
	0x43055634		CLI_CMD_LS
	0x43055638		CLI_CMD_CAT
	0x4305563c		CLI_CMD_RM
	0x43055640		CLI_CMD_MKDIR
	0x43055644		CLI_CMD_TOUCH
	0x43055648		CLI_CMD_ECHO
.data	0x4305564c	0x4	./out/./src/noomiojs.o	#SHT_PROGBITS,SHF_ALLOC|SHF_WRITE,4
	0x4305564c		LICENSE
.data	0x43055650	0x1060	./out/./src/native/at.o	#SHT_PROGBITS,SHF_ALLOC|SHF_WRITE,4
	0x43055650		at_pipe_map_tbl
.data	0x430566b0	0x68	./out/./src/native/i2c.o	#SHT_PROGBITS,SHF_ALLOC|SHF_WRITE,4
	0x430566b0		i2c_map_tbl
PADDING_ALIGNMENT	0x43056718	0x8	0x0
.data..L_MergedGlobals	0x43056720	0x70	C:\Users\nikol\projects\quectel\development\customer\threadx\tools\LLVM\4.0.3\armv7m-none-eabi\libc\lib/libc.a(setlocale.o)	#SHT_PROGBITS,SHF_ALLOC|SHF_WRITE,16
	0x43056720		$d
	0x43056720		setlocale.lock
	0x43056728		buf
.data..L_MergedGlobals	0x43056790	0xc	C:\Users\nikol\projects\quectel\development\customer\threadx\tools\LLVM\4.0.3\armv7m-none-eabi\libc\lib/libc.a(getopt.o)	#SHT_PROGBITS,SHF_ALLOC|SHF_WRITE,4
	0x43056790		$d
	0x43056790		optind
	0x43056794		opterr
	0x43056798		optreset
	0x43056798		__optreset
PADDING_ALIGNMENT	0x4305679c	0x4	0x0
.data.f	0x430567a0	0x90	C:\Users\nikol\projects\quectel\development\customer\threadx\tools\LLVM\4.0.3\armv7m-none-eabi\libc\lib/libc.a(stderr.o)	#SHT_PROGBITS,SHF_ALLOC|SHF_WRITE,8
	0x430567a0		f
	0x430567a0		$d
.data.__stderr_used	0x43056830	0x4	C:\Users\nikol\projects\quectel\development\customer\threadx\tools\LLVM\4.0.3\armv7m-none-eabi\libc\lib/libc.a(stderr.o)	#SHT_PROGBITS,SHF_ALLOC|SHF_WRITE,4
	0x43056830		$d
	0x43056830		__stderr_used
.data.buf	0x43056834	0x8	C:\Users\nikol\projects\quectel\development\customer\threadx\tools\LLVM\4.0.3\armv7m-none-eabi\libc\lib/libc.a(stderr.o)	#SHT_PROGBITS,SHF_ALLOC|SHF_WRITE,1
	0x43056834		buf
	0x43056834		$d
.data.strtok.p	0x4305683c	0x4	C:\Users\nikol\projects\quectel\development\customer\threadx\tools\LLVM\4.0.3\armv7m-none-eabi\libc\lib/libc.a(strtok.o)	#SHT_PROGBITS,SHF_ALLOC|SHF_WRITE,4
	0x4305683c		strtok.p
	0x4305683c		$d
.data.__progname	0x43056840	0x4	C:\Users\nikol\projects\quectel\development\customer\threadx\tools\LLVM\4.0.3\armv7m-none-eabi\libc\lib/libc.a(libc.o)	#SHT_PROGBITS,SHF_ALLOC|SHF_WRITE,4
	0x43056840		$d
	0x43056840		__progname
	0x43056840		program_invocation_short_name
.data.__progname_full	0x43056844	0x4	C:\Users\nikol\projects\quectel\development\customer\threadx\tools\LLVM\4.0.3\armv7m-none-eabi\libc\lib/libc.a(libc.o)	#SHT_PROGBITS,SHF_ALLOC|SHF_WRITE,4
	0x43056844		$d
	0x43056844		__progname_full
	0x43056844		program_invocation_name
.data..L_MergedGlobals	0x43056848	0xc	C:\Users\nikol\projects\quectel\development\customer\threadx\tools\LLVM\4.0.3\armv7m-none-eabi\libc\lib/libc.a(locale_map.o)	#SHT_PROGBITS,SHF_ALLOC|SHF_WRITE,4
	0x43056848		$d
	0x43056848		__get_locale.loc_head
	0x4305684c		__get_locale.lock
.data.old_tz_buf	0x43056854	0x20	C:\Users\nikol\projects\quectel\development\customer\threadx\tools\LLVM\4.0.3\armv7m-none-eabi\libc\lib/libc.a(__tz.o)	#SHT_PROGBITS,SHF_ALLOC|SHF_WRITE,1
	0x43056854		old_tz_buf
	0x43056854		$d
PADDING_ALIGNMENT	0x43056874	0xc	0x0
.data..L_MergedGlobals	0x43056880	0x80	C:\Users\nikol\projects\quectel\development\customer\threadx\tools\LLVM\4.0.3\armv7m-none-eabi\libc\lib/libc.a(__tz.o)	#SHT_PROGBITS,SHF_ALLOC|SHF_WRITE,16
	0x43056880		$d
	0x43056880		timezone
	0x43056880		__timezone
	0x43056884		daylight
	0x43056884		__daylight
	0x43056888		zi
	0x4305688c		types
	0x43056890		abbrevs
	0x43056894		dst_off
	0x43056898		abbrevs_end
	0x4305689c		old_tz
	0x430568a0		map_size
	0x430568a4		old_tz_size
	0x430568a8		trans
	0x430568ac		index
	0x430568b0		std_name
	0x430568b7		dst_name
	0x430568c0		tzname
	0x430568c0		__tzname
	0x430568c8		lock
	0x430568d0		r0
	0x430568e4		r1
.data.mbrtowc.internal_state	0x43056900	0x4	C:\Users\nikol\projects\quectel\development\customer\threadx\tools\LLVM\4.0.3\armv7m-none-eabi\libc\lib/libc.a(mbrtowc.o)	#SHT_PROGBITS,SHF_ALLOC|SHF_WRITE,4
	0x43056900		mbrtowc.internal_state
	0x43056900		$d
.data.dummy_file	0x43056904	0x4	C:\Users\nikol\projects\quectel\development\customer\threadx\tools\LLVM\4.0.3\armv7m-none-eabi\libc\lib/libc.a(__stdio_exit.o)	#SHT_PROGBITS,SHF_ALLOC|SHF_WRITE,4
	0x43056904		dummy_file
	0x43056904		$d
	0x43056904		__stdin_used
	0x43056904		__stdout_used
.data.ofl_head	0x43056908	0x4	C:\Users\nikol\projects\quectel\development\customer\threadx\tools\LLVM\4.0.3\armv7m-none-eabi\libc\lib/libc.a(ofl.o)	#SHT_PROGBITS,SHF_ALLOC|SHF_WRITE,4
	0x43056908		ofl_head
	0x43056908		$d
.data.__environ	0x4305690c	0x4	C:\Users\nikol\projects\quectel\development\customer\threadx\tools\LLVM\4.0.3\armv7m-none-eabi\libc\lib/libc.a(__environ.o)	#SHT_PROGBITS,SHF_ALLOC|SHF_WRITE,4
	0x4305690c		$d
	0x4305690c		__environ
	0x4305690c		___environ
	0x4305690c		_environ
	0x4305690c		environ
	Image$$ER_RW$$Limit(0x43056910) = .( 0x43056910 );
Image$$ER_RW$$Length(0x12f0) = Image$$ER_RW$$Limit( 0x43056910 ) - Image$$ER_RW$$Base( 0x43055620 );

ER_ZI	0x43056910	0x85f44 # Offset: 0x56970, LMA: 0x43056910
	Image$$ER_ZI$$Base(0x43056910) = .( 0x43056910 );
*(.bss* .bss.* .common COMMON )
	0x43056910	0x400	./out/common/src/retarget.o	#SHT_NOBITS,SHF_ALLOC|SHF_WRITE,8
	0x43056910		bytes
	0x43056d10	0x400	./out/common/src/retarget.o	#SHT_NOBITS,SHF_ALLOC|SHF_WRITE,8
	0x43056d10		recv_queue_mem
	0x43057110	0x2004	./out/common/src/retarget.o	#SHT_NOBITS,SHF_ALLOC|SHF_WRITE,8
	0x43057110		in_buffer
	0x43059114	0x4	./out/common/src/retarget.o	#SHT_NOBITS,SHF_ALLOC|SHF_WRITE,8
	0x43059114		out_tx_done_sem
	0x43059118	0x4	./out/common/src/retarget.o	#SHT_NOBITS,SHF_ALLOC|SHF_WRITE,8
	0x43059118		out_tx_mutex
	0x4305911c	0x4	./out/common/src/retarget.o	#SHT_NOBITS,SHF_ALLOC|SHF_WRITE,8
	0x4305911c		recv_queue
	0x43059120	0x80000	./out/common/src/malloc.o	#SHT_NOBITS,SHF_ALLOC|SHF_WRITE,8
	0x43059120		mem_heap
	0x430d9120	0x4	./out/common/src/malloc.o	#SHT_NOBITS,SHF_ALLOC|SHF_WRITE,8
	0x430d9120		byte_malloc_mem_pool
	0x430d9124	0x80	./out/./src/noomiojs.o	#SHT_NOBITS,SHF_ALLOC|SHF_WRITE,8
	0x430d9124		at_msg_mem
	0x430d91a4	0xc8	./out/./src/noomiojs.o	#SHT_NOBITS,SHF_ALLOC|SHF_WRITE,8
	0x430d91a4		event_mngr_msg_mem
	0x430d926c	0x3000	./out/./src/noomiojs.o	#SHT_NOBITS,SHF_ALLOC|SHF_WRITE,8
	0x430d926c		event_mngr_task_mem
	0x430dc26c	0x90	./out/./src/noomiojs.o	#SHT_NOBITS,SHF_ALLOC|SHF_WRITE,8
	0x430dc26c		timer_mem
	0x430dc2fc	0x4	./out/./src/noomiojs.o	#SHT_NOBITS,SHF_ALLOC|SHF_WRITE,8
	0x430dc2fc		at_data_queue
	0x430dc300	0x4	./out/./src/noomiojs.o	#SHT_NOBITS,SHF_ALLOC|SHF_WRITE,8
	0x430dc300		at_msg_queue
	0x430dc304	0x4	./out/./src/noomiojs.o	#SHT_NOBITS,SHF_ALLOC|SHF_WRITE,8
	0x430dc304		event_mngr_msg_queue
	0x430dc308	0x4	./out/./src/noomiojs.o	#SHT_NOBITS,SHF_ALLOC|SHF_WRITE,8
	0x430dc308		event_mngr_task_byte_pool
	0x430dc30c	0x4	./out/./src/noomiojs.o	#SHT_NOBITS,SHF_ALLOC|SHF_WRITE,8
	0x430dc30c		event_mngr_thread_handle
	0x430dc310	0x4	./out/./src/noomiojs.o	#SHT_NOBITS,SHF_ALLOC|SHF_WRITE,8
	0x430dc310		event_mngr_thread_stack
	0x430dc314	0x4	./out/./src/noomiojs.o	#SHT_NOBITS,SHF_ALLOC|SHF_WRITE,8
	0x430dc314		evnt_gatekeeper
	0x430dc318	0x4	./out/./src/noomiojs.o	#SHT_NOBITS,SHF_ALLOC|SHF_WRITE,8
	0x430dc318		evnt_group
	0x430dc31c	0x4	./out/./src/noomiojs.o	#SHT_NOBITS,SHF_ALLOC|SHF_WRITE,8
	0x430dc31c		timer_pool
	0x430dc320	0x4	./out/./src/noomiojs.o	#SHT_NOBITS,SHF_ALLOC|SHF_WRITE,8
	0x430dc320		worker_thread_handle
	0x430dc324	0x4	./out/./src/noomiojs.o	#SHT_NOBITS,SHF_ALLOC|SHF_WRITE,8
	0x430dc324		worker_thread_stack
	0x430dc328	0x38	./out/./src/native/gpio.o	#SHT_NOBITS,SHF_ALLOC|SHF_WRITE,8
	0x430dc328		gpio_id_tbl
	0x430dc360	0x38	./out/./src/native/gpio.o	#SHT_NOBITS,SHF_ALLOC|SHF_WRITE,8
	0x430dc360		gpio_interrupt_id_tbl
	0x430dc398	0x118	./out/./src/native/gpio.o	#SHT_NOBITS,SHF_ALLOC|SHF_WRITE,8
	0x430dc398		tlmm_config
	0x430dc4b0	0x4	../../../../Quectel_BG96_QuecOpen_SDK_Package_V3.0.1-AUS/SDK/libs/llvm\txm_lib.lib(txm_module_thread_shell_entry.o)	#SHT_NOBITS,SHF_ALLOC|SHF_WRITE,8
	0x430dc4b0		_txm_module_entry_info
	0x430dc4b4	0x4	../../../../Quectel_BG96_QuecOpen_SDK_Package_V3.0.1-AUS/SDK/libs/llvm\txm_lib.lib(txm_module_thread_shell_entry.o)	#SHT_NOBITS,SHF_ALLOC|SHF_WRITE,8
	0x430dc4b4		_txm_module_instance_ptr
	0x430dc4b8	0x4	../../../../Quectel_BG96_QuecOpen_SDK_Package_V3.0.1-AUS/SDK/libs/llvm\txm_lib.lib(txm_module_thread_shell_entry.o)	#SHT_NOBITS,SHF_ALLOC|SHF_WRITE,8
	0x430dc4b8		_txm_module_kernel_call_dispatcher
	0x430dc4bc	0x40	C:\Users\nikol\projects\quectel\development\customer\threadx\tools\LLVM\4.0.3\armv7m-none-eabi\libc\lib/libc.a(libc.o)	#SHT_NOBITS,SHF_ALLOC|SHF_WRITE,8
	0x430dc4bc		__libc
	0x430dc4fc	0x4	C:\Users\nikol\projects\quectel\development\customer\threadx\tools\LLVM\4.0.3\armv7m-none-eabi\libc\lib/libc.a(getopt.o)	#SHT_NOBITS,SHF_ALLOC|SHF_WRITE,8
	0x430dc4fc		__optpos
	0x430dc500	0x4	C:\Users\nikol\projects\quectel\development\customer\threadx\tools\LLVM\4.0.3\armv7m-none-eabi\libc\lib/libc.a(getopt.o)	#SHT_NOBITS,SHF_ALLOC|SHF_WRITE,8
	0x430dc500		optarg
	0x430dc504	0x4	C:\Users\nikol\projects\quectel\development\customer\threadx\tools\LLVM\4.0.3\armv7m-none-eabi\libc\lib/libc.a(getopt.o)	#SHT_NOBITS,SHF_ALLOC|SHF_WRITE,8
	0x430dc504		optopt
.bss	0x430dc508	0x204	./out/common/src/retarget.o	#SHT_NOBITS,SHF_ALLOC|SHF_WRITE,4
	0x430dc508		handle
	0x430dc50c		__wrap_printf.stdout_buf
PADDING_ALIGNMENT	0x430dc70c	0x4	0x0
.bss	0x430dc710	0x118	./out/common/src/file.o	#SHT_NOBITS,SHF_ALLOC|SHF_WRITE,8
	0x430dc710		readdir.d
.bss	0x430dc828	0x2c	./out/common/src/time.o	#SHT_NOBITS,SHF_ALLOC|SHF_WRITE,8
	0x430dc828		localtime.tm
	Image$$ER_ZI$$Limit(0x430dc854) = .( 0x430dc854 );
Image$$ER_ZI$$ZI$$Length(0x85f44) = Image$$ER_ZI$$Limit( 0x430dc854 ) - Image$$ER_ZI$$Base( 0x43056910 );

.debug	0x0	0x0 # Offset: 0x0

.line	0x0	0x0 # Offset: 0x0

.debug_srcinfo	0x0	0x0 # Offset: 0x0

.debug_sfnames	0x0	0x0 # Offset: 0x0

.debug_aranges	0x0	0x0 # Offset: 0x0

.debug_pubnames	0x56970	0x22d # Offset: 0x56970
*(.debug_pubnames )
.debug_pubnames	0x56970	0xa2	../../../../Quectel_BG96_QuecOpen_SDK_Package_V3.0.1-AUS/SDK/libs/llvm\txm_lib.lib(txm_module_thread_shell_entry.o)	#SHT_PROGBITS,,1
.debug_pubnames	0x56a12	0x40	../../../../Quectel_BG96_QuecOpen_SDK_Package_V3.0.1-AUS/SDK/libs/llvm\txm_lib.lib(txm_module_callback_request_thread_entry.o)	#SHT_PROGBITS,,1
.debug_pubnames	0x56a52	0x30	../../../../Quectel_BG96_QuecOpen_SDK_Package_V3.0.1-AUS/SDK/libs/llvm\txm_lib.lib(txm_module_system_call11.o)	#SHT_PROGBITS,,1
.debug_pubnames	0x56a82	0x30	../../../../Quectel_BG96_QuecOpen_SDK_Package_V3.0.1-AUS/SDK/libs/llvm\txm_lib.lib(txm_module_system_call12.o)	#SHT_PROGBITS,,1
.debug_pubnames	0x56ab2	0x2f	../../../../Quectel_BG96_QuecOpen_SDK_Package_V3.0.1-AUS/SDK/libs/llvm\txm_lib.lib(txm_module_system_call4.o)	#SHT_PROGBITS,,1
.debug_pubnames	0x56ae1	0x2f	../../../../Quectel_BG96_QuecOpen_SDK_Package_V3.0.1-AUS/SDK/libs/llvm\txm_lib.lib(txm_module_system_call5.o)	#SHT_PROGBITS,,1
.debug_pubnames	0x56b10	0x2f	../../../../Quectel_BG96_QuecOpen_SDK_Package_V3.0.1-AUS/SDK/libs/llvm\txm_lib.lib(txm_module_system_call6.o)	#SHT_PROGBITS,,1
.debug_pubnames	0x56b3f	0x2f	../../../../Quectel_BG96_QuecOpen_SDK_Package_V3.0.1-AUS/SDK/libs/llvm\txm_lib.lib(txm_module_system_call7.o)	#SHT_PROGBITS,,1
.debug_pubnames	0x56b6e	0x2f	../../../../Quectel_BG96_QuecOpen_SDK_Package_V3.0.1-AUS/SDK/libs/llvm\txm_lib.lib(txm_module_system_call8.o)	#SHT_PROGBITS,,1

.debug_info	0x56b9d	0x2400 # Offset: 0x56b9d
*(.debug_info .gnu.linkonce.wi.* )
.debug_info	0x56b9d	0xcd5	../../../../Quectel_BG96_QuecOpen_SDK_Package_V3.0.1-AUS/SDK/libs/llvm\txm_lib.lib(txm_module_thread_shell_entry.o)	#SHT_PROGBITS,,1
.debug_info	0x57872	0x1019	../../../../Quectel_BG96_QuecOpen_SDK_Package_V3.0.1-AUS/SDK/libs/llvm\txm_lib.lib(txm_module_callback_request_thread_entry.o)	#SHT_PROGBITS,,1
.debug_info	0x5888b	0x136	../../../../Quectel_BG96_QuecOpen_SDK_Package_V3.0.1-AUS/SDK/libs/llvm\txm_lib.lib(txm_module_system_call11.o)	#SHT_PROGBITS,,1
.debug_info	0x589c1	0x145	../../../../Quectel_BG96_QuecOpen_SDK_Package_V3.0.1-AUS/SDK/libs/llvm\txm_lib.lib(txm_module_system_call12.o)	#SHT_PROGBITS,,1
.debug_info	0x58b06	0xcd	../../../../Quectel_BG96_QuecOpen_SDK_Package_V3.0.1-AUS/SDK/libs/llvm\txm_lib.lib(txm_module_system_call4.o)	#SHT_PROGBITS,,1
.debug_info	0x58bd3	0xdc	../../../../Quectel_BG96_QuecOpen_SDK_Package_V3.0.1-AUS/SDK/libs/llvm\txm_lib.lib(txm_module_system_call5.o)	#SHT_PROGBITS,,1
.debug_info	0x58caf	0xeb	../../../../Quectel_BG96_QuecOpen_SDK_Package_V3.0.1-AUS/SDK/libs/llvm\txm_lib.lib(txm_module_system_call6.o)	#SHT_PROGBITS,,1
.debug_info	0x58d9a	0xfa	../../../../Quectel_BG96_QuecOpen_SDK_Package_V3.0.1-AUS/SDK/libs/llvm\txm_lib.lib(txm_module_system_call7.o)	#SHT_PROGBITS,,1
.debug_info	0x58e94	0x109	../../../../Quectel_BG96_QuecOpen_SDK_Package_V3.0.1-AUS/SDK/libs/llvm\txm_lib.lib(txm_module_system_call8.o)	#SHT_PROGBITS,,1

.debug_abbrev	0x58f9d	0x5a8 # Offset: 0x58f9d
*(.debug_abbrev )
.debug_abbrev	0x58f9d	0xe2	../../../../Quectel_BG96_QuecOpen_SDK_Package_V3.0.1-AUS/SDK/libs/llvm\txm_lib.lib(txm_module_thread_shell_entry.o)	#SHT_PROGBITS,,1
.debug_abbrev	0x5907f	0xeb	../../../../Quectel_BG96_QuecOpen_SDK_Package_V3.0.1-AUS/SDK/libs/llvm\txm_lib.lib(txm_module_callback_request_thread_entry.o)	#SHT_PROGBITS,,1
.debug_abbrev	0x5916a	0x8d	../../../../Quectel_BG96_QuecOpen_SDK_Package_V3.0.1-AUS/SDK/libs/llvm\txm_lib.lib(txm_module_system_call11.o)	#SHT_PROGBITS,,1
.debug_abbrev	0x591f7	0x8d	../../../../Quectel_BG96_QuecOpen_SDK_Package_V3.0.1-AUS/SDK/libs/llvm\txm_lib.lib(txm_module_system_call12.o)	#SHT_PROGBITS,,1
.debug_abbrev	0x59284	0x8d	../../../../Quectel_BG96_QuecOpen_SDK_Package_V3.0.1-AUS/SDK/libs/llvm\txm_lib.lib(txm_module_system_call4.o)	#SHT_PROGBITS,,1
.debug_abbrev	0x59311	0x8d	../../../../Quectel_BG96_QuecOpen_SDK_Package_V3.0.1-AUS/SDK/libs/llvm\txm_lib.lib(txm_module_system_call5.o)	#SHT_PROGBITS,,1
.debug_abbrev	0x5939e	0x8d	../../../../Quectel_BG96_QuecOpen_SDK_Package_V3.0.1-AUS/SDK/libs/llvm\txm_lib.lib(txm_module_system_call6.o)	#SHT_PROGBITS,,1
.debug_abbrev	0x5942b	0x8d	../../../../Quectel_BG96_QuecOpen_SDK_Package_V3.0.1-AUS/SDK/libs/llvm\txm_lib.lib(txm_module_system_call7.o)	#SHT_PROGBITS,,1
.debug_abbrev	0x594b8	0x8d	../../../../Quectel_BG96_QuecOpen_SDK_Package_V3.0.1-AUS/SDK/libs/llvm\txm_lib.lib(txm_module_system_call8.o)	#SHT_PROGBITS,,1

.debug_line	0x59545	0xe4d # Offset: 0x59545
*(.debug_line )
.debug_line	0x59545	0x1c2	../../../../Quectel_BG96_QuecOpen_SDK_Package_V3.0.1-AUS/SDK/libs/llvm\txm_lib.lib(txm_module_thread_shell_entry.o)	#SHT_PROGBITS,,1
.debug_line	0x59707	0x27c	../../../../Quectel_BG96_QuecOpen_SDK_Package_V3.0.1-AUS/SDK/libs/llvm\txm_lib.lib(txm_module_callback_request_thread_entry.o)	#SHT_PROGBITS,,1
.debug_line	0x59983	0x174	../../../../Quectel_BG96_QuecOpen_SDK_Package_V3.0.1-AUS/SDK/libs/llvm\txm_lib.lib(txm_module_system_call11.o)	#SHT_PROGBITS,,1
.debug_line	0x59af7	0x175	../../../../Quectel_BG96_QuecOpen_SDK_Package_V3.0.1-AUS/SDK/libs/llvm\txm_lib.lib(txm_module_system_call12.o)	#SHT_PROGBITS,,1
.debug_line	0x59c6c	0x16c	../../../../Quectel_BG96_QuecOpen_SDK_Package_V3.0.1-AUS/SDK/libs/llvm\txm_lib.lib(txm_module_system_call4.o)	#SHT_PROGBITS,,1
.debug_line	0x59dd8	0x16d	../../../../Quectel_BG96_QuecOpen_SDK_Package_V3.0.1-AUS/SDK/libs/llvm\txm_lib.lib(txm_module_system_call5.o)	#SHT_PROGBITS,,1
.debug_line	0x59f45	0x16e	../../../../Quectel_BG96_QuecOpen_SDK_Package_V3.0.1-AUS/SDK/libs/llvm\txm_lib.lib(txm_module_system_call6.o)	#SHT_PROGBITS,,1
.debug_line	0x5a0b3	0x16f	../../../../Quectel_BG96_QuecOpen_SDK_Package_V3.0.1-AUS/SDK/libs/llvm\txm_lib.lib(txm_module_system_call7.o)	#SHT_PROGBITS,,1
.debug_line	0x5a222	0x170	../../../../Quectel_BG96_QuecOpen_SDK_Package_V3.0.1-AUS/SDK/libs/llvm\txm_lib.lib(txm_module_system_call8.o)	#SHT_PROGBITS,,1

.debug_frame	0x5a392	0x188 # Offset: 0x5a392
*(.debug_frame )
.debug_frame	0x5a392	0x2c	../../../../Quectel_BG96_QuecOpen_SDK_Package_V3.0.1-AUS/SDK/libs/llvm\txm_lib.lib(txm_module_thread_shell_entry.o)	#SHT_PROGBITS,,4
.debug_frame	0x5a3be	0x3c	../../../../Quectel_BG96_QuecOpen_SDK_Package_V3.0.1-AUS/SDK/libs/llvm\txm_lib.lib(txm_module_callback_request_thread_entry.o)	#SHT_PROGBITS,,4
.debug_frame	0x5a3fa	0x2c	../../../../Quectel_BG96_QuecOpen_SDK_Package_V3.0.1-AUS/SDK/libs/llvm\txm_lib.lib(txm_module_system_call11.o)	#SHT_PROGBITS,,4
.debug_frame	0x5a426	0x2c	../../../../Quectel_BG96_QuecOpen_SDK_Package_V3.0.1-AUS/SDK/libs/llvm\txm_lib.lib(txm_module_system_call12.o)	#SHT_PROGBITS,,4
.debug_frame	0x5a452	0x28	../../../../Quectel_BG96_QuecOpen_SDK_Package_V3.0.1-AUS/SDK/libs/llvm\txm_lib.lib(txm_module_system_call4.o)	#SHT_PROGBITS,,4
.debug_frame	0x5a47a	0x28	../../../../Quectel_BG96_QuecOpen_SDK_Package_V3.0.1-AUS/SDK/libs/llvm\txm_lib.lib(txm_module_system_call5.o)	#SHT_PROGBITS,,4
.debug_frame	0x5a4a2	0x28	../../../../Quectel_BG96_QuecOpen_SDK_Package_V3.0.1-AUS/SDK/libs/llvm\txm_lib.lib(txm_module_system_call6.o)	#SHT_PROGBITS,,4
.debug_frame	0x5a4ca	0x28	../../../../Quectel_BG96_QuecOpen_SDK_Package_V3.0.1-AUS/SDK/libs/llvm\txm_lib.lib(txm_module_system_call7.o)	#SHT_PROGBITS,,4
.debug_frame	0x5a4f2	0x28	../../../../Quectel_BG96_QuecOpen_SDK_Package_V3.0.1-AUS/SDK/libs/llvm\txm_lib.lib(txm_module_system_call8.o)	#SHT_PROGBITS,,4

.debug_str	0x5a51a	0x2702 # Offset: 0x5a51a
*(.debug_str )
.debug_str	0x5a51a	0x3c	../../../../Quectel_BG96_QuecOpen_SDK_Package_V3.0.1-AUS/SDK/libs/llvm\txm_lib.lib(txm_module_thread_shell_entry.o)	#SHT_PROGBITS,SHF_MERGE|SHF_STRINGS,1
	0x0		
.debug_str	0x5a556	0xa9	../../../../Quectel_BG96_QuecOpen_SDK_Package_V3.0.1-AUS/SDK/libs/llvm\txm_lib.lib(txm_module_thread_shell_entry.o)	#SHT_PROGBITS,SHF_MERGE|SHF_STRINGS,1
	0x3c		
.debug_str	0x5a5ff	0x66	../../../../Quectel_BG96_QuecOpen_SDK_Package_V3.0.1-AUS/SDK/libs/llvm\txm_lib.lib(txm_module_thread_shell_entry.o)	#SHT_PROGBITS,SHF_MERGE|SHF_STRINGS,1
	0xe5		
.debug_str	0x5a665	0x17	../../../../Quectel_BG96_QuecOpen_SDK_Package_V3.0.1-AUS/SDK/libs/llvm\txm_lib.lib(txm_module_thread_shell_entry.o)	#SHT_PROGBITS,SHF_MERGE|SHF_STRINGS,1
	0x14b		
.debug_str	0x5a67c	0x24	../../../../Quectel_BG96_QuecOpen_SDK_Package_V3.0.1-AUS/SDK/libs/llvm\txm_lib.lib(txm_module_thread_shell_entry.o)	#SHT_PROGBITS,SHF_MERGE|SHF_STRINGS,1
	0x162		
.debug_str	0x5a6a0	0xd	../../../../Quectel_BG96_QuecOpen_SDK_Package_V3.0.1-AUS/SDK/libs/llvm\txm_lib.lib(txm_module_thread_shell_entry.o)	#SHT_PROGBITS,SHF_MERGE|SHF_STRINGS,1
	0x186		
.debug_str	0x5a6ad	0x12	../../../../Quectel_BG96_QuecOpen_SDK_Package_V3.0.1-AUS/SDK/libs/llvm\txm_lib.lib(txm_module_thread_shell_entry.o)	#SHT_PROGBITS,SHF_MERGE|SHF_STRINGS,1
	0x193		
.debug_str	0x5a6bf	0x6	../../../../Quectel_BG96_QuecOpen_SDK_Package_V3.0.1-AUS/SDK/libs/llvm\txm_lib.lib(txm_module_thread_shell_entry.o)	#SHT_PROGBITS,SHF_MERGE|SHF_STRINGS,1
	0x1a5		
.debug_str	0x5a6c5	0x14	../../../../Quectel_BG96_QuecOpen_SDK_Package_V3.0.1-AUS/SDK/libs/llvm\txm_lib.lib(txm_module_thread_shell_entry.o)	#SHT_PROGBITS,SHF_MERGE|SHF_STRINGS,1
	0x1ab		
.debug_str	0x5a6d9	0x14	../../../../Quectel_BG96_QuecOpen_SDK_Package_V3.0.1-AUS/SDK/libs/llvm\txm_lib.lib(txm_module_thread_shell_entry.o)	#SHT_PROGBITS,SHF_MERGE|SHF_STRINGS,1
	0x1bf		
.debug_str	0x5a6ed	0x16	../../../../Quectel_BG96_QuecOpen_SDK_Package_V3.0.1-AUS/SDK/libs/llvm\txm_lib.lib(txm_module_thread_shell_entry.o)	#SHT_PROGBITS,SHF_MERGE|SHF_STRINGS,1
	0x1d3		
.debug_str	0x5a703	0x14	../../../../Quectel_BG96_QuecOpen_SDK_Package_V3.0.1-AUS/SDK/libs/llvm\txm_lib.lib(txm_module_thread_shell_entry.o)	#SHT_PROGBITS,SHF_MERGE|SHF_STRINGS,1
	0x1e9		
.debug_str	0x5a717	0x15	../../../../Quectel_BG96_QuecOpen_SDK_Package_V3.0.1-AUS/SDK/libs/llvm\txm_lib.lib(txm_module_thread_shell_entry.o)	#SHT_PROGBITS,SHF_MERGE|SHF_STRINGS,1
	0x1fd		
.debug_str	0x5a72c	0x15	../../../../Quectel_BG96_QuecOpen_SDK_Package_V3.0.1-AUS/SDK/libs/llvm\txm_lib.lib(txm_module_thread_shell_entry.o)	#SHT_PROGBITS,SHF_MERGE|SHF_STRINGS,1
	0x212		
.debug_str	0x5a741	0x19	../../../../Quectel_BG96_QuecOpen_SDK_Package_V3.0.1-AUS/SDK/libs/llvm\txm_lib.lib(txm_module_thread_shell_entry.o)	#SHT_PROGBITS,SHF_MERGE|SHF_STRINGS,1
	0x227		
.debug_str	0x5a75a	0x15	../../../../Quectel_BG96_QuecOpen_SDK_Package_V3.0.1-AUS/SDK/libs/llvm\txm_lib.lib(txm_module_thread_shell_entry.o)	#SHT_PROGBITS,SHF_MERGE|SHF_STRINGS,1
	0x240		
.debug_str	0x5a76f	0x19	../../../../Quectel_BG96_QuecOpen_SDK_Package_V3.0.1-AUS/SDK/libs/llvm\txm_lib.lib(txm_module_thread_shell_entry.o)	#SHT_PROGBITS,SHF_MERGE|SHF_STRINGS,1
	0x255		
.debug_str	0x5a788	0xf	../../../../Quectel_BG96_QuecOpen_SDK_Package_V3.0.1-AUS/SDK/libs/llvm\txm_lib.lib(txm_module_thread_shell_entry.o)	#SHT_PROGBITS,SHF_MERGE|SHF_STRINGS,1
	0x26e		
.debug_str	0x5a797	0x5	../../../../Quectel_BG96_QuecOpen_SDK_Package_V3.0.1-AUS/SDK/libs/llvm\txm_lib.lib(txm_module_thread_shell_entry.o)	#SHT_PROGBITS,SHF_MERGE|SHF_STRINGS,1
	0x27d		
.debug_str	0x5a79c	0x5	../../../../Quectel_BG96_QuecOpen_SDK_Package_V3.0.1-AUS/SDK/libs/llvm\txm_lib.lib(txm_module_thread_shell_entry.o)	#SHT_PROGBITS,SHF_MERGE|SHF_STRINGS,1
	0x282		
.debug_str	0x5a7a1	0x13	../../../../Quectel_BG96_QuecOpen_SDK_Package_V3.0.1-AUS/SDK/libs/llvm\txm_lib.lib(txm_module_thread_shell_entry.o)	#SHT_PROGBITS,SHF_MERGE|SHF_STRINGS,1
	0x287		
.debug_str	0x5a7b4	0xd	../../../../Quectel_BG96_QuecOpen_SDK_Package_V3.0.1-AUS/SDK/libs/llvm\txm_lib.lib(txm_module_thread_shell_entry.o)	#SHT_PROGBITS,SHF_MERGE|SHF_STRINGS,1
	0x29a		
.debug_str	0x5a7c1	0x5	../../../../Quectel_BG96_QuecOpen_SDK_Package_V3.0.1-AUS/SDK/libs/llvm\txm_lib.lib(txm_module_thread_shell_entry.o)	#SHT_PROGBITS,SHF_MERGE|SHF_STRINGS,1
	0x2a7		
.debug_str	0x5a7c6	0x10	../../../../Quectel_BG96_QuecOpen_SDK_Package_V3.0.1-AUS/SDK/libs/llvm\txm_lib.lib(txm_module_thread_shell_entry.o)	#SHT_PROGBITS,SHF_MERGE|SHF_STRINGS,1
	0x2ac		
.debug_str	0x5a7d6	0x1a	../../../../Quectel_BG96_QuecOpen_SDK_Package_V3.0.1-AUS/SDK/libs/llvm\txm_lib.lib(txm_module_thread_shell_entry.o)	#SHT_PROGBITS,SHF_MERGE|SHF_STRINGS,1
	0x2bc		
.debug_str	0x5a7f0	0x15	../../../../Quectel_BG96_QuecOpen_SDK_Package_V3.0.1-AUS/SDK/libs/llvm\txm_lib.lib(txm_module_thread_shell_entry.o)	#SHT_PROGBITS,SHF_MERGE|SHF_STRINGS,1
	0x2d6		
.debug_str	0x5a805	0x1c	../../../../Quectel_BG96_QuecOpen_SDK_Package_V3.0.1-AUS/SDK/libs/llvm\txm_lib.lib(txm_module_thread_shell_entry.o)	#SHT_PROGBITS,SHF_MERGE|SHF_STRINGS,1
	0x2eb		
.debug_str	0x5a821	0x18	../../../../Quectel_BG96_QuecOpen_SDK_Package_V3.0.1-AUS/SDK/libs/llvm\txm_lib.lib(txm_module_thread_shell_entry.o)	#SHT_PROGBITS,SHF_MERGE|SHF_STRINGS,1
	0x307		
.debug_str	0x5a839	0x10	../../../../Quectel_BG96_QuecOpen_SDK_Package_V3.0.1-AUS/SDK/libs/llvm\txm_lib.lib(txm_module_thread_shell_entry.o)	#SHT_PROGBITS,SHF_MERGE|SHF_STRINGS,1
	0x31f		
.debug_str	0x5a849	0x1a	../../../../Quectel_BG96_QuecOpen_SDK_Package_V3.0.1-AUS/SDK/libs/llvm\txm_lib.lib(txm_module_thread_shell_entry.o)	#SHT_PROGBITS,SHF_MERGE|SHF_STRINGS,1
	0x32f		
.debug_str	0x5a863	0x10	../../../../Quectel_BG96_QuecOpen_SDK_Package_V3.0.1-AUS/SDK/libs/llvm\txm_lib.lib(txm_module_thread_shell_entry.o)	#SHT_PROGBITS,SHF_MERGE|SHF_STRINGS,1
	0x349		
.debug_str	0x5a873	0x22	../../../../Quectel_BG96_QuecOpen_SDK_Package_V3.0.1-AUS/SDK/libs/llvm\txm_lib.lib(txm_module_thread_shell_entry.o)	#SHT_PROGBITS,SHF_MERGE|SHF_STRINGS,1
	0x359		
.debug_str	0x5a895	0x26	../../../../Quectel_BG96_QuecOpen_SDK_Package_V3.0.1-AUS/SDK/libs/llvm\txm_lib.lib(txm_module_thread_shell_entry.o)	#SHT_PROGBITS,SHF_MERGE|SHF_STRINGS,1
	0x37b		
.debug_str	0x5a8bb	0x23	../../../../Quectel_BG96_QuecOpen_SDK_Package_V3.0.1-AUS/SDK/libs/llvm\txm_lib.lib(txm_module_thread_shell_entry.o)	#SHT_PROGBITS,SHF_MERGE|SHF_STRINGS,1
	0x3a1		
.debug_str	0x5a8de	0x20	../../../../Quectel_BG96_QuecOpen_SDK_Package_V3.0.1-AUS/SDK/libs/llvm\txm_lib.lib(txm_module_thread_shell_entry.o)	#SHT_PROGBITS,SHF_MERGE|SHF_STRINGS,1
	0x3c4		
.debug_str	0x5a8fe	0x1e	../../../../Quectel_BG96_QuecOpen_SDK_Package_V3.0.1-AUS/SDK/libs/llvm\txm_lib.lib(txm_module_thread_shell_entry.o)	#SHT_PROGBITS,SHF_MERGE|SHF_STRINGS,1
	0x3e4		
.debug_str	0x5a91c	0x22	../../../../Quectel_BG96_QuecOpen_SDK_Package_V3.0.1-AUS/SDK/libs/llvm\txm_lib.lib(txm_module_thread_shell_entry.o)	#SHT_PROGBITS,SHF_MERGE|SHF_STRINGS,1
	0x402		
.debug_str	0x5a93e	0x1c	../../../../Quectel_BG96_QuecOpen_SDK_Package_V3.0.1-AUS/SDK/libs/llvm\txm_lib.lib(txm_module_thread_shell_entry.o)	#SHT_PROGBITS,SHF_MERGE|SHF_STRINGS,1
	0x424		
.debug_str	0x5a95a	0x19	../../../../Quectel_BG96_QuecOpen_SDK_Package_V3.0.1-AUS/SDK/libs/llvm\txm_lib.lib(txm_module_thread_shell_entry.o)	#SHT_PROGBITS,SHF_MERGE|SHF_STRINGS,1
	0x440		
.debug_str	0x5a973	0x12	../../../../Quectel_BG96_QuecOpen_SDK_Package_V3.0.1-AUS/SDK/libs/llvm\txm_lib.lib(txm_module_thread_shell_entry.o)	#SHT_PROGBITS,SHF_MERGE|SHF_STRINGS,1
	0x459		
.debug_str	0x5a985	0x1a	../../../../Quectel_BG96_QuecOpen_SDK_Package_V3.0.1-AUS/SDK/libs/llvm\txm_lib.lib(txm_module_thread_shell_entry.o)	#SHT_PROGBITS,SHF_MERGE|SHF_STRINGS,1
	0x46b		
.debug_str	0x5a99f	0x20	../../../../Quectel_BG96_QuecOpen_SDK_Package_V3.0.1-AUS/SDK/libs/llvm\txm_lib.lib(txm_module_thread_shell_entry.o)	#SHT_PROGBITS,SHF_MERGE|SHF_STRINGS,1
	0x485		
.debug_str	0x5a9bf	0x19	../../../../Quectel_BG96_QuecOpen_SDK_Package_V3.0.1-AUS/SDK/libs/llvm\txm_lib.lib(txm_module_thread_shell_entry.o)	#SHT_PROGBITS,SHF_MERGE|SHF_STRINGS,1
	0x4a5		
.debug_str	0x5a9d8	0x1d	../../../../Quectel_BG96_QuecOpen_SDK_Package_V3.0.1-AUS/SDK/libs/llvm\txm_lib.lib(txm_module_thread_shell_entry.o)	#SHT_PROGBITS,SHF_MERGE|SHF_STRINGS,1
	0x4be		
.debug_str	0x5a9f5	0x17	../../../../Quectel_BG96_QuecOpen_SDK_Package_V3.0.1-AUS/SDK/libs/llvm\txm_lib.lib(txm_module_thread_shell_entry.o)	#SHT_PROGBITS,SHF_MERGE|SHF_STRINGS,1
	0x4db		
.debug_str	0x5aa0c	0x22	../../../../Quectel_BG96_QuecOpen_SDK_Package_V3.0.1-AUS/SDK/libs/llvm\txm_lib.lib(txm_module_thread_shell_entry.o)	#SHT_PROGBITS,SHF_MERGE|SHF_STRINGS,1
	0x4f2		
.debug_str	0x5aa2e	0x19	../../../../Quectel_BG96_QuecOpen_SDK_Package_V3.0.1-AUS/SDK/libs/llvm\txm_lib.lib(txm_module_thread_shell_entry.o)	#SHT_PROGBITS,SHF_MERGE|SHF_STRINGS,1
	0x514		
.debug_str	0x5aa47	0x19	../../../../Quectel_BG96_QuecOpen_SDK_Package_V3.0.1-AUS/SDK/libs/llvm\txm_lib.lib(txm_module_thread_shell_entry.o)	#SHT_PROGBITS,SHF_MERGE|SHF_STRINGS,1
	0x52d		
.debug_str	0x5aa60	0x17	../../../../Quectel_BG96_QuecOpen_SDK_Package_V3.0.1-AUS/SDK/libs/llvm\txm_lib.lib(txm_module_thread_shell_entry.o)	#SHT_PROGBITS,SHF_MERGE|SHF_STRINGS,1
	0x546		
.debug_str	0x5aa77	0x1b	../../../../Quectel_BG96_QuecOpen_SDK_Package_V3.0.1-AUS/SDK/libs/llvm\txm_lib.lib(txm_module_thread_shell_entry.o)	#SHT_PROGBITS,SHF_MERGE|SHF_STRINGS,1
	0x55d		
.debug_str	0x5aa92	0x15	../../../../Quectel_BG96_QuecOpen_SDK_Package_V3.0.1-AUS/SDK/libs/llvm\txm_lib.lib(txm_module_thread_shell_entry.o)	#SHT_PROGBITS,SHF_MERGE|SHF_STRINGS,1
	0x578		
.debug_str	0x5aaa7	0x1e	../../../../Quectel_BG96_QuecOpen_SDK_Package_V3.0.1-AUS/SDK/libs/llvm\txm_lib.lib(txm_module_thread_shell_entry.o)	#SHT_PROGBITS,SHF_MERGE|SHF_STRINGS,1
	0x58d		
.debug_str	0x5aac5	0x20	../../../../Quectel_BG96_QuecOpen_SDK_Package_V3.0.1-AUS/SDK/libs/llvm\txm_lib.lib(txm_module_thread_shell_entry.o)	#SHT_PROGBITS,SHF_MERGE|SHF_STRINGS,1
	0x5ab		
.debug_str	0x5aae5	0x23	../../../../Quectel_BG96_QuecOpen_SDK_Package_V3.0.1-AUS/SDK/libs/llvm\txm_lib.lib(txm_module_thread_shell_entry.o)	#SHT_PROGBITS,SHF_MERGE|SHF_STRINGS,1
	0x5cb		
.debug_str	0x5ab08	0x1b	../../../../Quectel_BG96_QuecOpen_SDK_Package_V3.0.1-AUS/SDK/libs/llvm\txm_lib.lib(txm_module_thread_shell_entry.o)	#SHT_PROGBITS,SHF_MERGE|SHF_STRINGS,1
	0x5ee		
.debug_str	0x5ab23	0x1d	../../../../Quectel_BG96_QuecOpen_SDK_Package_V3.0.1-AUS/SDK/libs/llvm\txm_lib.lib(txm_module_thread_shell_entry.o)	#SHT_PROGBITS,SHF_MERGE|SHF_STRINGS,1
	0x609		
.debug_str	0x5ab40	0x18	../../../../Quectel_BG96_QuecOpen_SDK_Package_V3.0.1-AUS/SDK/libs/llvm\txm_lib.lib(txm_module_thread_shell_entry.o)	#SHT_PROGBITS,SHF_MERGE|SHF_STRINGS,1
	0x626		
.debug_str	0x5ab58	0x21	../../../../Quectel_BG96_QuecOpen_SDK_Package_V3.0.1-AUS/SDK/libs/llvm\txm_lib.lib(txm_module_thread_shell_entry.o)	#SHT_PROGBITS,SHF_MERGE|SHF_STRINGS,1
	0x63e		
.debug_str	0x5ab79	0x1b	../../../../Quectel_BG96_QuecOpen_SDK_Package_V3.0.1-AUS/SDK/libs/llvm\txm_lib.lib(txm_module_thread_shell_entry.o)	#SHT_PROGBITS,SHF_MERGE|SHF_STRINGS,1
	0x65f		
.debug_str	0x5ab94	0x1c	../../../../Quectel_BG96_QuecOpen_SDK_Package_V3.0.1-AUS/SDK/libs/llvm\txm_lib.lib(txm_module_thread_shell_entry.o)	#SHT_PROGBITS,SHF_MERGE|SHF_STRINGS,1
	0x67a		
.debug_str	0x5abb0	0x1b	../../../../Quectel_BG96_QuecOpen_SDK_Package_V3.0.1-AUS/SDK/libs/llvm\txm_lib.lib(txm_module_thread_shell_entry.o)	#SHT_PROGBITS,SHF_MERGE|SHF_STRINGS,1
	0x696		
.debug_str	0x5abcb	0xc	../../../../Quectel_BG96_QuecOpen_SDK_Package_V3.0.1-AUS/SDK/libs/llvm\txm_lib.lib(txm_module_thread_shell_entry.o)	#SHT_PROGBITS,SHF_MERGE|SHF_STRINGS,1
	0x6b1		
.debug_str	0x5abd7	0xe	../../../../Quectel_BG96_QuecOpen_SDK_Package_V3.0.1-AUS/SDK/libs/llvm\txm_lib.lib(txm_module_thread_shell_entry.o)	#SHT_PROGBITS,SHF_MERGE|SHF_STRINGS,1
	0x6bd		
.debug_str	0x5abe5	0x19	../../../../Quectel_BG96_QuecOpen_SDK_Package_V3.0.1-AUS/SDK/libs/llvm\txm_lib.lib(txm_module_thread_shell_entry.o)	#SHT_PROGBITS,SHF_MERGE|SHF_STRINGS,1
	0x6cb		
.debug_str	0x5abfe	0xf	../../../../Quectel_BG96_QuecOpen_SDK_Package_V3.0.1-AUS/SDK/libs/llvm\txm_lib.lib(txm_module_thread_shell_entry.o)	#SHT_PROGBITS,SHF_MERGE|SHF_STRINGS,1
	0x6e4		
.debug_str	0x5ac0d	0x11	../../../../Quectel_BG96_QuecOpen_SDK_Package_V3.0.1-AUS/SDK/libs/llvm\txm_lib.lib(txm_module_thread_shell_entry.o)	#SHT_PROGBITS,SHF_MERGE|SHF_STRINGS,1
	0x6f3		
.debug_str	0x5ac1e	0x1b	../../../../Quectel_BG96_QuecOpen_SDK_Package_V3.0.1-AUS/SDK/libs/llvm\txm_lib.lib(txm_module_thread_shell_entry.o)	#SHT_PROGBITS,SHF_MERGE|SHF_STRINGS,1
	0x704		
.debug_str	0x5ac39	0x19	../../../../Quectel_BG96_QuecOpen_SDK_Package_V3.0.1-AUS/SDK/libs/llvm\txm_lib.lib(txm_module_thread_shell_entry.o)	#SHT_PROGBITS,SHF_MERGE|SHF_STRINGS,1
	0x71f		
.debug_str	0x5ac52	0x19	../../../../Quectel_BG96_QuecOpen_SDK_Package_V3.0.1-AUS/SDK/libs/llvm\txm_lib.lib(txm_module_thread_shell_entry.o)	#SHT_PROGBITS,SHF_MERGE|SHF_STRINGS,1
	0x738		
.debug_str	0x5ac6b	0x16	../../../../Quectel_BG96_QuecOpen_SDK_Package_V3.0.1-AUS/SDK/libs/llvm\txm_lib.lib(txm_module_thread_shell_entry.o)	#SHT_PROGBITS,SHF_MERGE|SHF_STRINGS,1
	0x751		
.debug_str	0x5ac81	0x1a	../../../../Quectel_BG96_QuecOpen_SDK_Package_V3.0.1-AUS/SDK/libs/llvm\txm_lib.lib(txm_module_thread_shell_entry.o)	#SHT_PROGBITS,SHF_MERGE|SHF_STRINGS,1
	0x767		
.debug_str	0x5ac9b	0x22	../../../../Quectel_BG96_QuecOpen_SDK_Package_V3.0.1-AUS/SDK/libs/llvm\txm_lib.lib(txm_module_thread_shell_entry.o)	#SHT_PROGBITS,SHF_MERGE|SHF_STRINGS,1
	0x781		
.debug_str	0x5acbd	0x14	../../../../Quectel_BG96_QuecOpen_SDK_Package_V3.0.1-AUS/SDK/libs/llvm\txm_lib.lib(txm_module_thread_shell_entry.o)	#SHT_PROGBITS,SHF_MERGE|SHF_STRINGS,1
	0x7a3		
.debug_str	0x5acd1	0x18	../../../../Quectel_BG96_QuecOpen_SDK_Package_V3.0.1-AUS/SDK/libs/llvm\txm_lib.lib(txm_module_thread_shell_entry.o)	#SHT_PROGBITS,SHF_MERGE|SHF_STRINGS,1
	0x7b7		
.debug_str	0x5ace9	0x10	../../../../Quectel_BG96_QuecOpen_SDK_Package_V3.0.1-AUS/SDK/libs/llvm\txm_lib.lib(txm_module_thread_shell_entry.o)	#SHT_PROGBITS,SHF_MERGE|SHF_STRINGS,1
	0x7cf		
.debug_str	0x5acf9	0x1c	../../../../Quectel_BG96_QuecOpen_SDK_Package_V3.0.1-AUS/SDK/libs/llvm\txm_lib.lib(txm_module_thread_shell_entry.o)	#SHT_PROGBITS,SHF_MERGE|SHF_STRINGS,1
	0x7df		
.debug_str	0x5ad15	0x4	../../../../Quectel_BG96_QuecOpen_SDK_Package_V3.0.1-AUS/SDK/libs/llvm\txm_lib.lib(txm_module_thread_shell_entry.o)	#SHT_PROGBITS,SHF_MERGE|SHF_STRINGS,1
	0x7fb		
.debug_str	0x5ad19	0x9	../../../../Quectel_BG96_QuecOpen_SDK_Package_V3.0.1-AUS/SDK/libs/llvm\txm_lib.lib(txm_module_thread_shell_entry.o)	#SHT_PROGBITS,SHF_MERGE|SHF_STRINGS,1
	0x7ff		
.debug_str	0x5ad22	0x15	../../../../Quectel_BG96_QuecOpen_SDK_Package_V3.0.1-AUS/SDK/libs/llvm\txm_lib.lib(txm_module_thread_shell_entry.o)	#SHT_PROGBITS,SHF_MERGE|SHF_STRINGS,1
	0x808		
.debug_str	0x5ad37	0x17	../../../../Quectel_BG96_QuecOpen_SDK_Package_V3.0.1-AUS/SDK/libs/llvm\txm_lib.lib(txm_module_thread_shell_entry.o)	#SHT_PROGBITS,SHF_MERGE|SHF_STRINGS,1
	0x81d		
.debug_str	0x5ad4e	0x1a	../../../../Quectel_BG96_QuecOpen_SDK_Package_V3.0.1-AUS/SDK/libs/llvm\txm_lib.lib(txm_module_thread_shell_entry.o)	#SHT_PROGBITS,SHF_MERGE|SHF_STRINGS,1
	0x834		
.debug_str	0x5ad68	0x15	../../../../Quectel_BG96_QuecOpen_SDK_Package_V3.0.1-AUS/SDK/libs/llvm\txm_lib.lib(txm_module_thread_shell_entry.o)	#SHT_PROGBITS,SHF_MERGE|SHF_STRINGS,1
	0x84e		
.debug_str	0x5ad7d	0x11	../../../../Quectel_BG96_QuecOpen_SDK_Package_V3.0.1-AUS/SDK/libs/llvm\txm_lib.lib(txm_module_thread_shell_entry.o)	#SHT_PROGBITS,SHF_MERGE|SHF_STRINGS,1
	0x863		
.debug_str	0x5ad8e	0xa	../../../../Quectel_BG96_QuecOpen_SDK_Package_V3.0.1-AUS/SDK/libs/llvm\txm_lib.lib(txm_module_thread_shell_entry.o)	#SHT_PROGBITS,SHF_MERGE|SHF_STRINGS,1
	0x874		
.debug_str	0x5ad98	0x24	../../../../Quectel_BG96_QuecOpen_SDK_Package_V3.0.1-AUS/SDK/libs/llvm\txm_lib.lib(txm_module_thread_shell_entry.o)	#SHT_PROGBITS,SHF_MERGE|SHF_STRINGS,1
	0x87e		
.debug_str	0x5adbc	0x17	../../../../Quectel_BG96_QuecOpen_SDK_Package_V3.0.1-AUS/SDK/libs/llvm\txm_lib.lib(txm_module_thread_shell_entry.o)	#SHT_PROGBITS,SHF_MERGE|SHF_STRINGS,1
	0x8a2		
.debug_str	0x5add3	0x19	../../../../Quectel_BG96_QuecOpen_SDK_Package_V3.0.1-AUS/SDK/libs/llvm\txm_lib.lib(txm_module_thread_shell_entry.o)	#SHT_PROGBITS,SHF_MERGE|SHF_STRINGS,1
	0x8b9		
.debug_str	0x5adec	0x1a	../../../../Quectel_BG96_QuecOpen_SDK_Package_V3.0.1-AUS/SDK/libs/llvm\txm_lib.lib(txm_module_thread_shell_entry.o)	#SHT_PROGBITS,SHF_MERGE|SHF_STRINGS,1
	0x8d2		
.debug_str	0x5ae06	0x23	../../../../Quectel_BG96_QuecOpen_SDK_Package_V3.0.1-AUS/SDK/libs/llvm\txm_lib.lib(txm_module_thread_shell_entry.o)	#SHT_PROGBITS,SHF_MERGE|SHF_STRINGS,1
	0x8ec		
.debug_str	0x5ae29	0x28	../../../../Quectel_BG96_QuecOpen_SDK_Package_V3.0.1-AUS/SDK/libs/llvm\txm_lib.lib(txm_module_thread_shell_entry.o)	#SHT_PROGBITS,SHF_MERGE|SHF_STRINGS,1
	0x90f		
.debug_str	0x5ae51	0x29	../../../../Quectel_BG96_QuecOpen_SDK_Package_V3.0.1-AUS/SDK/libs/llvm\txm_lib.lib(txm_module_thread_shell_entry.o)	#SHT_PROGBITS,SHF_MERGE|SHF_STRINGS,1
	0x937		
.debug_str	0x5ae7a	0x1f	../../../../Quectel_BG96_QuecOpen_SDK_Package_V3.0.1-AUS/SDK/libs/llvm\txm_lib.lib(txm_module_thread_shell_entry.o)	#SHT_PROGBITS,SHF_MERGE|SHF_STRINGS,1
	0x960		
.debug_str	0x5ae99	0x1d	../../../../Quectel_BG96_QuecOpen_SDK_Package_V3.0.1-AUS/SDK/libs/llvm\txm_lib.lib(txm_module_thread_shell_entry.o)	#SHT_PROGBITS,SHF_MERGE|SHF_STRINGS,1
	0x97f		
.debug_str	0x5aeb6	0x1e	../../../../Quectel_BG96_QuecOpen_SDK_Package_V3.0.1-AUS/SDK/libs/llvm\txm_lib.lib(txm_module_thread_shell_entry.o)	#SHT_PROGBITS,SHF_MERGE|SHF_STRINGS,1
	0x99c		
.debug_str	0x5aed4	0x28	../../../../Quectel_BG96_QuecOpen_SDK_Package_V3.0.1-AUS/SDK/libs/llvm\txm_lib.lib(txm_module_thread_shell_entry.o)	#SHT_PROGBITS,SHF_MERGE|SHF_STRINGS,1
	0x9ba		
.debug_str	0x5aefc	0x29	../../../../Quectel_BG96_QuecOpen_SDK_Package_V3.0.1-AUS/SDK/libs/llvm\txm_lib.lib(txm_module_thread_shell_entry.o)	#SHT_PROGBITS,SHF_MERGE|SHF_STRINGS,1
	0x9e2		
.debug_str	0x5af25	0x1f	../../../../Quectel_BG96_QuecOpen_SDK_Package_V3.0.1-AUS/SDK/libs/llvm\txm_lib.lib(txm_module_thread_shell_entry.o)	#SHT_PROGBITS,SHF_MERGE|SHF_STRINGS,1
	0xa0b		
.debug_str	0x5af44	0x1d	../../../../Quectel_BG96_QuecOpen_SDK_Package_V3.0.1-AUS/SDK/libs/llvm\txm_lib.lib(txm_module_thread_shell_entry.o)	#SHT_PROGBITS,SHF_MERGE|SHF_STRINGS,1
	0xa2a		
.debug_str	0x5af61	0x2d	../../../../Quectel_BG96_QuecOpen_SDK_Package_V3.0.1-AUS/SDK/libs/llvm\txm_lib.lib(txm_module_thread_shell_entry.o)	#SHT_PROGBITS,SHF_MERGE|SHF_STRINGS,1
	0xa47		
.debug_str	0x5af8e	0x1e	../../../../Quectel_BG96_QuecOpen_SDK_Package_V3.0.1-AUS/SDK/libs/llvm\txm_lib.lib(txm_module_thread_shell_entry.o)	#SHT_PROGBITS,SHF_MERGE|SHF_STRINGS,1
	0xa74		
.debug_str	0x5afac	0x24	../../../../Quectel_BG96_QuecOpen_SDK_Package_V3.0.1-AUS/SDK/libs/llvm\txm_lib.lib(txm_module_thread_shell_entry.o)	#SHT_PROGBITS,SHF_MERGE|SHF_STRINGS,1
	0xa92		
.debug_str	0x5afd0	0x33	../../../../Quectel_BG96_QuecOpen_SDK_Package_V3.0.1-AUS/SDK/libs/llvm\txm_lib.lib(txm_module_thread_shell_entry.o)	#SHT_PROGBITS,SHF_MERGE|SHF_STRINGS,1
	0xab6		
.debug_str	0x5b003	0x31	../../../../Quectel_BG96_QuecOpen_SDK_Package_V3.0.1-AUS/SDK/libs/llvm\txm_lib.lib(txm_module_thread_shell_entry.o)	#SHT_PROGBITS,SHF_MERGE|SHF_STRINGS,1
	0xae9		
.debug_str	0x5b034	0x31	../../../../Quectel_BG96_QuecOpen_SDK_Package_V3.0.1-AUS/SDK/libs/llvm\txm_lib.lib(txm_module_thread_shell_entry.o)	#SHT_PROGBITS,SHF_MERGE|SHF_STRINGS,1
	0xb1a		
.debug_str	0x5b065	0x2f	../../../../Quectel_BG96_QuecOpen_SDK_Package_V3.0.1-AUS/SDK/libs/llvm\txm_lib.lib(txm_module_thread_shell_entry.o)	#SHT_PROGBITS,SHF_MERGE|SHF_STRINGS,1
	0xb4b		
.debug_str	0x5b094	0x21	../../../../Quectel_BG96_QuecOpen_SDK_Package_V3.0.1-AUS/SDK/libs/llvm\txm_lib.lib(txm_module_thread_shell_entry.o)	#SHT_PROGBITS,SHF_MERGE|SHF_STRINGS,1
	0xb7a		
.debug_str	0x5b0b5	0x17	../../../../Quectel_BG96_QuecOpen_SDK_Package_V3.0.1-AUS/SDK/libs/llvm\txm_lib.lib(txm_module_thread_shell_entry.o)	#SHT_PROGBITS,SHF_MERGE|SHF_STRINGS,1
	0xb9b		
.debug_str	0x5b0cc	0x22	../../../../Quectel_BG96_QuecOpen_SDK_Package_V3.0.1-AUS/SDK/libs/llvm\txm_lib.lib(txm_module_thread_shell_entry.o)	#SHT_PROGBITS,SHF_MERGE|SHF_STRINGS,1
	0xbb2		
.debug_str	0x5b0ee	0x22	../../../../Quectel_BG96_QuecOpen_SDK_Package_V3.0.1-AUS/SDK/libs/llvm\txm_lib.lib(txm_module_thread_shell_entry.o)	#SHT_PROGBITS,SHF_MERGE|SHF_STRINGS,1
	0xbd4		
.debug_str	0x5b110	0x22	../../../../Quectel_BG96_QuecOpen_SDK_Package_V3.0.1-AUS/SDK/libs/llvm\txm_lib.lib(txm_module_thread_shell_entry.o)	#SHT_PROGBITS,SHF_MERGE|SHF_STRINGS,1
	0xbf6		
.debug_str	0x5b132	0x2a	../../../../Quectel_BG96_QuecOpen_SDK_Package_V3.0.1-AUS/SDK/libs/llvm\txm_lib.lib(txm_module_thread_shell_entry.o)	#SHT_PROGBITS,SHF_MERGE|SHF_STRINGS,1
	0xc18		
.debug_str	0x5b15c	0x23	../../../../Quectel_BG96_QuecOpen_SDK_Package_V3.0.1-AUS/SDK/libs/llvm\txm_lib.lib(txm_module_thread_shell_entry.o)	#SHT_PROGBITS,SHF_MERGE|SHF_STRINGS,1
	0xc42		
.debug_str	0x5b17f	0x29	../../../../Quectel_BG96_QuecOpen_SDK_Package_V3.0.1-AUS/SDK/libs/llvm\txm_lib.lib(txm_module_thread_shell_entry.o)	#SHT_PROGBITS,SHF_MERGE|SHF_STRINGS,1
	0xc65		
.debug_str	0x5b1a8	0x23	../../../../Quectel_BG96_QuecOpen_SDK_Package_V3.0.1-AUS/SDK/libs/llvm\txm_lib.lib(txm_module_thread_shell_entry.o)	#SHT_PROGBITS,SHF_MERGE|SHF_STRINGS,1
	0xc8e		
.debug_str	0x5b1cb	0x22	../../../../Quectel_BG96_QuecOpen_SDK_Package_V3.0.1-AUS/SDK/libs/llvm\txm_lib.lib(txm_module_thread_shell_entry.o)	#SHT_PROGBITS,SHF_MERGE|SHF_STRINGS,1
	0xcb1		
.debug_str	0x5b1ed	0x28	../../../../Quectel_BG96_QuecOpen_SDK_Package_V3.0.1-AUS/SDK/libs/llvm\txm_lib.lib(txm_module_thread_shell_entry.o)	#SHT_PROGBITS,SHF_MERGE|SHF_STRINGS,1
	0xcd3		
.debug_str	0x5b215	0x2a	../../../../Quectel_BG96_QuecOpen_SDK_Package_V3.0.1-AUS/SDK/libs/llvm\txm_lib.lib(txm_module_thread_shell_entry.o)	#SHT_PROGBITS,SHF_MERGE|SHF_STRINGS,1
	0xcfb		
.debug_str	0x5b23f	0x26	../../../../Quectel_BG96_QuecOpen_SDK_Package_V3.0.1-AUS/SDK/libs/llvm\txm_lib.lib(txm_module_thread_shell_entry.o)	#SHT_PROGBITS,SHF_MERGE|SHF_STRINGS,1
	0xd25		
.debug_str	0x5b265	0x26	../../../../Quectel_BG96_QuecOpen_SDK_Package_V3.0.1-AUS/SDK/libs/llvm\txm_lib.lib(txm_module_thread_shell_entry.o)	#SHT_PROGBITS,SHF_MERGE|SHF_STRINGS,1
	0xd4b		
.debug_str	0x5b28b	0x28	../../../../Quectel_BG96_QuecOpen_SDK_Package_V3.0.1-AUS/SDK/libs/llvm\txm_lib.lib(txm_module_thread_shell_entry.o)	#SHT_PROGBITS,SHF_MERGE|SHF_STRINGS,1
	0xd71		
.debug_str	0x5b2b3	0x1e	../../../../Quectel_BG96_QuecOpen_SDK_Package_V3.0.1-AUS/SDK/libs/llvm\txm_lib.lib(txm_module_thread_shell_entry.o)	#SHT_PROGBITS,SHF_MERGE|SHF_STRINGS,1
	0xd99		
.debug_str	0x5b2d1	0x1e	../../../../Quectel_BG96_QuecOpen_SDK_Package_V3.0.1-AUS/SDK/libs/llvm\txm_lib.lib(txm_module_thread_shell_entry.o)	#SHT_PROGBITS,SHF_MERGE|SHF_STRINGS,1
	0xdb7		
.debug_str	0x5b2ef	0x1f	../../../../Quectel_BG96_QuecOpen_SDK_Package_V3.0.1-AUS/SDK/libs/llvm\txm_lib.lib(txm_module_thread_shell_entry.o)	#SHT_PROGBITS,SHF_MERGE|SHF_STRINGS,1
	0xdd5		
.debug_str	0x5b30e	0x1f	../../../../Quectel_BG96_QuecOpen_SDK_Package_V3.0.1-AUS/SDK/libs/llvm\txm_lib.lib(txm_module_thread_shell_entry.o)	#SHT_PROGBITS,SHF_MERGE|SHF_STRINGS,1
	0xdf4		
.debug_str	0x5b32d	0x1f	../../../../Quectel_BG96_QuecOpen_SDK_Package_V3.0.1-AUS/SDK/libs/llvm\txm_lib.lib(txm_module_thread_shell_entry.o)	#SHT_PROGBITS,SHF_MERGE|SHF_STRINGS,1
	0xe13		
.debug_str	0x5b34c	0x1f	../../../../Quectel_BG96_QuecOpen_SDK_Package_V3.0.1-AUS/SDK/libs/llvm\txm_lib.lib(txm_module_thread_shell_entry.o)	#SHT_PROGBITS,SHF_MERGE|SHF_STRINGS,1
	0xe32		
.debug_str	0x5b36b	0x1f	../../../../Quectel_BG96_QuecOpen_SDK_Package_V3.0.1-AUS/SDK/libs/llvm\txm_lib.lib(txm_module_thread_shell_entry.o)	#SHT_PROGBITS,SHF_MERGE|SHF_STRINGS,1
	0xe51		
.debug_str	0x5b38a	0x1f	../../../../Quectel_BG96_QuecOpen_SDK_Package_V3.0.1-AUS/SDK/libs/llvm\txm_lib.lib(txm_module_thread_shell_entry.o)	#SHT_PROGBITS,SHF_MERGE|SHF_STRINGS,1
	0xe70		
.debug_str	0x5b3a9	0x1f	../../../../Quectel_BG96_QuecOpen_SDK_Package_V3.0.1-AUS/SDK/libs/llvm\txm_lib.lib(txm_module_thread_shell_entry.o)	#SHT_PROGBITS,SHF_MERGE|SHF_STRINGS,1
	0xe8f		
.debug_str	0x5b3c8	0x1f	../../../../Quectel_BG96_QuecOpen_SDK_Package_V3.0.1-AUS/SDK/libs/llvm\txm_lib.lib(txm_module_thread_shell_entry.o)	#SHT_PROGBITS,SHF_MERGE|SHF_STRINGS,1
	0xeae		
.debug_str	0x5b3e7	0x1f	../../../../Quectel_BG96_QuecOpen_SDK_Package_V3.0.1-AUS/SDK/libs/llvm\txm_lib.lib(txm_module_thread_shell_entry.o)	#SHT_PROGBITS,SHF_MERGE|SHF_STRINGS,1
	0xecd		
.debug_str	0x5b406	0x1f	../../../../Quectel_BG96_QuecOpen_SDK_Package_V3.0.1-AUS/SDK/libs/llvm\txm_lib.lib(txm_module_thread_shell_entry.o)	#SHT_PROGBITS,SHF_MERGE|SHF_STRINGS,1
	0xeec		
.debug_str	0x5b425	0x21	../../../../Quectel_BG96_QuecOpen_SDK_Package_V3.0.1-AUS/SDK/libs/llvm\txm_lib.lib(txm_module_thread_shell_entry.o)	#SHT_PROGBITS,SHF_MERGE|SHF_STRINGS,1
	0xf0b		
.debug_str	0x5b446	0x20	../../../../Quectel_BG96_QuecOpen_SDK_Package_V3.0.1-AUS/SDK/libs/llvm\txm_lib.lib(txm_module_thread_shell_entry.o)	#SHT_PROGBITS,SHF_MERGE|SHF_STRINGS,1
	0xf2c		
.debug_str	0x5b466	0x20	../../../../Quectel_BG96_QuecOpen_SDK_Package_V3.0.1-AUS/SDK/libs/llvm\txm_lib.lib(txm_module_thread_shell_entry.o)	#SHT_PROGBITS,SHF_MERGE|SHF_STRINGS,1
	0xf4c		
.debug_str	0x5b486	0x20	../../../../Quectel_BG96_QuecOpen_SDK_Package_V3.0.1-AUS/SDK/libs/llvm\txm_lib.lib(txm_module_thread_shell_entry.o)	#SHT_PROGBITS,SHF_MERGE|SHF_STRINGS,1
	0xf6c		
.debug_str	0x5b4a6	0x20	../../../../Quectel_BG96_QuecOpen_SDK_Package_V3.0.1-AUS/SDK/libs/llvm\txm_lib.lib(txm_module_thread_shell_entry.o)	#SHT_PROGBITS,SHF_MERGE|SHF_STRINGS,1
	0xf8c		
.debug_str	0x5b4c6	0x1d	../../../../Quectel_BG96_QuecOpen_SDK_Package_V3.0.1-AUS/SDK/libs/llvm\txm_lib.lib(txm_module_thread_shell_entry.o)	#SHT_PROGBITS,SHF_MERGE|SHF_STRINGS,1
	0xfac		
.debug_str	0x5b4e3	0x1b	../../../../Quectel_BG96_QuecOpen_SDK_Package_V3.0.1-AUS/SDK/libs/llvm\txm_lib.lib(txm_module_thread_shell_entry.o)	#SHT_PROGBITS,SHF_MERGE|SHF_STRINGS,1
	0xfc9		
.debug_str	0x5b4fe	0x14	../../../../Quectel_BG96_QuecOpen_SDK_Package_V3.0.1-AUS/SDK/libs/llvm\txm_lib.lib(txm_module_thread_shell_entry.o)	#SHT_PROGBITS,SHF_MERGE|SHF_STRINGS,1
	0xfe4		
.debug_str	0x5b512	0x29	../../../../Quectel_BG96_QuecOpen_SDK_Package_V3.0.1-AUS/SDK/libs/llvm\txm_lib.lib(txm_module_thread_shell_entry.o)	#SHT_PROGBITS,SHF_MERGE|SHF_STRINGS,1
	0xff8		
.debug_str	0x5b53b	0x27	../../../../Quectel_BG96_QuecOpen_SDK_Package_V3.0.1-AUS/SDK/libs/llvm\txm_lib.lib(txm_module_thread_shell_entry.o)	#SHT_PROGBITS,SHF_MERGE|SHF_STRINGS,1
	0x1021		
.debug_str	0x5b562	0x26	../../../../Quectel_BG96_QuecOpen_SDK_Package_V3.0.1-AUS/SDK/libs/llvm\txm_lib.lib(txm_module_thread_shell_entry.o)	#SHT_PROGBITS,SHF_MERGE|SHF_STRINGS,1
	0x1048		
.debug_str	0x5b588	0x32	../../../../Quectel_BG96_QuecOpen_SDK_Package_V3.0.1-AUS/SDK/libs/llvm\txm_lib.lib(txm_module_thread_shell_entry.o)	#SHT_PROGBITS,SHF_MERGE|SHF_STRINGS,1
	0x106e		
.debug_str	0x5b5ba	0x26	../../../../Quectel_BG96_QuecOpen_SDK_Package_V3.0.1-AUS/SDK/libs/llvm\txm_lib.lib(txm_module_thread_shell_entry.o)	#SHT_PROGBITS,SHF_MERGE|SHF_STRINGS,1
	0x10a0		
.debug_str	0x5b5e0	0x2c	../../../../Quectel_BG96_QuecOpen_SDK_Package_V3.0.1-AUS/SDK/libs/llvm\txm_lib.lib(txm_module_thread_shell_entry.o)	#SHT_PROGBITS,SHF_MERGE|SHF_STRINGS,1
	0x10c6		
.debug_str	0x5b60c	0x2b	../../../../Quectel_BG96_QuecOpen_SDK_Package_V3.0.1-AUS/SDK/libs/llvm\txm_lib.lib(txm_module_thread_shell_entry.o)	#SHT_PROGBITS,SHF_MERGE|SHF_STRINGS,1
	0x10f2		
.debug_str	0x5b637	0xc	../../../../Quectel_BG96_QuecOpen_SDK_Package_V3.0.1-AUS/SDK/libs/llvm\txm_lib.lib(txm_module_thread_shell_entry.o)	#SHT_PROGBITS,SHF_MERGE|SHF_STRINGS,1
	0x111d		
.debug_str	0x5b643	0xe	../../../../Quectel_BG96_QuecOpen_SDK_Package_V3.0.1-AUS/SDK/libs/llvm\txm_lib.lib(txm_module_thread_shell_entry.o)	#SHT_PROGBITS,SHF_MERGE|SHF_STRINGS,1
	0x1129		
.debug_str	0x5b651	0x16	../../../../Quectel_BG96_QuecOpen_SDK_Package_V3.0.1-AUS/SDK/libs/llvm\txm_lib.lib(txm_module_thread_shell_entry.o)	#SHT_PROGBITS,SHF_MERGE|SHF_STRINGS,1
	0x1137		
.debug_str	0x5b667	0x12	../../../../Quectel_BG96_QuecOpen_SDK_Package_V3.0.1-AUS/SDK/libs/llvm\txm_lib.lib(txm_module_thread_shell_entry.o)	#SHT_PROGBITS,SHF_MERGE|SHF_STRINGS,1
	0x114d		
.debug_str	0x5b679	0x12	../../../../Quectel_BG96_QuecOpen_SDK_Package_V3.0.1-AUS/SDK/libs/llvm\txm_lib.lib(txm_module_thread_shell_entry.o)	#SHT_PROGBITS,SHF_MERGE|SHF_STRINGS,1
	0x115f		
.debug_str	0x5b68b	0x1b	../../../../Quectel_BG96_QuecOpen_SDK_Package_V3.0.1-AUS/SDK/libs/llvm\txm_lib.lib(txm_module_thread_shell_entry.o)	#SHT_PROGBITS,SHF_MERGE|SHF_STRINGS,1
	0x1171		
.debug_str	0x5b6a6	0xf	../../../../Quectel_BG96_QuecOpen_SDK_Package_V3.0.1-AUS/SDK/libs/llvm\txm_lib.lib(txm_module_thread_shell_entry.o)	#SHT_PROGBITS,SHF_MERGE|SHF_STRINGS,1
	0x118c		
.debug_str	0x5b6b5	0xd	../../../../Quectel_BG96_QuecOpen_SDK_Package_V3.0.1-AUS/SDK/libs/llvm\txm_lib.lib(txm_module_thread_shell_entry.o)	#SHT_PROGBITS,SHF_MERGE|SHF_STRINGS,1
	0x119b		
.debug_str	0x5b6c2	0xe	../../../../Quectel_BG96_QuecOpen_SDK_Package_V3.0.1-AUS/SDK/libs/llvm\txm_lib.lib(txm_module_thread_shell_entry.o)	#SHT_PROGBITS,SHF_MERGE|SHF_STRINGS,1
	0x11a8		
.debug_str	0x5b6d0	0xf	../../../../Quectel_BG96_QuecOpen_SDK_Package_V3.0.1-AUS/SDK/libs/llvm\txm_lib.lib(txm_module_thread_shell_entry.o)	#SHT_PROGBITS,SHF_MERGE|SHF_STRINGS,1
	0x11b6		
.debug_str	0x5b6df	0x19	../../../../Quectel_BG96_QuecOpen_SDK_Package_V3.0.1-AUS/SDK/libs/llvm\txm_lib.lib(txm_module_thread_shell_entry.o)	#SHT_PROGBITS,SHF_MERGE|SHF_STRINGS,1
	0x11c5		
.debug_str	0x5b6f8	0x19	../../../../Quectel_BG96_QuecOpen_SDK_Package_V3.0.1-AUS/SDK/libs/llvm\txm_lib.lib(txm_module_thread_shell_entry.o)	#SHT_PROGBITS,SHF_MERGE|SHF_STRINGS,1
	0x11de		
.debug_str	0x5b711	0x16	../../../../Quectel_BG96_QuecOpen_SDK_Package_V3.0.1-AUS/SDK/libs/llvm\txm_lib.lib(txm_module_thread_shell_entry.o)	#SHT_PROGBITS,SHF_MERGE|SHF_STRINGS,1
	0x11f7		
.debug_str	0x5b727	0x1a	../../../../Quectel_BG96_QuecOpen_SDK_Package_V3.0.1-AUS/SDK/libs/llvm\txm_lib.lib(txm_module_thread_shell_entry.o)	#SHT_PROGBITS,SHF_MERGE|SHF_STRINGS,1
	0x120d		
.debug_str	0x5b741	0x10	../../../../Quectel_BG96_QuecOpen_SDK_Package_V3.0.1-AUS/SDK/libs/llvm\txm_lib.lib(txm_module_thread_shell_entry.o)	#SHT_PROGBITS,SHF_MERGE|SHF_STRINGS,1
	0x1227		
.debug_str	0x5b751	0x9	../../../../Quectel_BG96_QuecOpen_SDK_Package_V3.0.1-AUS/SDK/libs/llvm\txm_lib.lib(txm_module_thread_shell_entry.o)	#SHT_PROGBITS,SHF_MERGE|SHF_STRINGS,1
	0x1237		
.debug_str	0x5b75a	0x30	../../../../Quectel_BG96_QuecOpen_SDK_Package_V3.0.1-AUS/SDK/libs/llvm\txm_lib.lib(txm_module_thread_shell_entry.o)	#SHT_PROGBITS,SHF_MERGE|SHF_STRINGS,1
	0x1240		
.debug_str	0x5b78a	0x2a	../../../../Quectel_BG96_QuecOpen_SDK_Package_V3.0.1-AUS/SDK/libs/llvm\txm_lib.lib(txm_module_thread_shell_entry.o)	#SHT_PROGBITS,SHF_MERGE|SHF_STRINGS,1
	0x1270		
.debug_str	0x5b7b4	0x28	../../../../Quectel_BG96_QuecOpen_SDK_Package_V3.0.1-AUS/SDK/libs/llvm\txm_lib.lib(txm_module_thread_shell_entry.o)	#SHT_PROGBITS,SHF_MERGE|SHF_STRINGS,1
	0x129a		
.debug_str	0x5b7dc	0x28	../../../../Quectel_BG96_QuecOpen_SDK_Package_V3.0.1-AUS/SDK/libs/llvm\txm_lib.lib(txm_module_thread_shell_entry.o)	#SHT_PROGBITS,SHF_MERGE|SHF_STRINGS,1
	0x12c2		
.debug_str	0x5b804	0x26	../../../../Quectel_BG96_QuecOpen_SDK_Package_V3.0.1-AUS/SDK/libs/llvm\txm_lib.lib(txm_module_thread_shell_entry.o)	#SHT_PROGBITS,SHF_MERGE|SHF_STRINGS,1
	0x12ea		
.debug_str	0x5b82a	0x2a	../../../../Quectel_BG96_QuecOpen_SDK_Package_V3.0.1-AUS/SDK/libs/llvm\txm_lib.lib(txm_module_thread_shell_entry.o)	#SHT_PROGBITS,SHF_MERGE|SHF_STRINGS,1
	0x1310		
.debug_str	0x5b854	0x28	../../../../Quectel_BG96_QuecOpen_SDK_Package_V3.0.1-AUS/SDK/libs/llvm\txm_lib.lib(txm_module_thread_shell_entry.o)	#SHT_PROGBITS,SHF_MERGE|SHF_STRINGS,1
	0x133a		
.debug_str	0x5b87c	0x28	../../../../Quectel_BG96_QuecOpen_SDK_Package_V3.0.1-AUS/SDK/libs/llvm\txm_lib.lib(txm_module_thread_shell_entry.o)	#SHT_PROGBITS,SHF_MERGE|SHF_STRINGS,1
	0x1362		
.debug_str	0x5b8a4	0x25	../../../../Quectel_BG96_QuecOpen_SDK_Package_V3.0.1-AUS/SDK/libs/llvm\txm_lib.lib(txm_module_thread_shell_entry.o)	#SHT_PROGBITS,SHF_MERGE|SHF_STRINGS,1
	0x138a		
.debug_str	0x5b8c9	0x19	../../../../Quectel_BG96_QuecOpen_SDK_Package_V3.0.1-AUS/SDK/libs/llvm\txm_lib.lib(txm_module_thread_shell_entry.o)	#SHT_PROGBITS,SHF_MERGE|SHF_STRINGS,1
	0x13af		
.debug_str	0x5b8e2	0x18	../../../../Quectel_BG96_QuecOpen_SDK_Package_V3.0.1-AUS/SDK/libs/llvm\txm_lib.lib(txm_module_thread_shell_entry.o)	#SHT_PROGBITS,SHF_MERGE|SHF_STRINGS,1
	0x13c8		
.debug_str	0x5b8fa	0x1e	../../../../Quectel_BG96_QuecOpen_SDK_Package_V3.0.1-AUS/SDK/libs/llvm\txm_lib.lib(txm_module_thread_shell_entry.o)	#SHT_PROGBITS,SHF_MERGE|SHF_STRINGS,1
	0x13e0		
.debug_str	0x5b918	0x1e	../../../../Quectel_BG96_QuecOpen_SDK_Package_V3.0.1-AUS/SDK/libs/llvm\txm_lib.lib(txm_module_thread_shell_entry.o)	#SHT_PROGBITS,SHF_MERGE|SHF_STRINGS,1
	0x13fe		
.debug_str	0x5b936	0x15	../../../../Quectel_BG96_QuecOpen_SDK_Package_V3.0.1-AUS/SDK/libs/llvm\txm_lib.lib(txm_module_thread_shell_entry.o)	#SHT_PROGBITS,SHF_MERGE|SHF_STRINGS,1
	0x141c		
.debug_str	0x5b94b	0x14	../../../../Quectel_BG96_QuecOpen_SDK_Package_V3.0.1-AUS/SDK/libs/llvm\txm_lib.lib(txm_module_thread_shell_entry.o)	#SHT_PROGBITS,SHF_MERGE|SHF_STRINGS,1
	0x1431		
.debug_str	0x5b95f	0x25	../../../../Quectel_BG96_QuecOpen_SDK_Package_V3.0.1-AUS/SDK/libs/llvm\txm_lib.lib(txm_module_thread_shell_entry.o)	#SHT_PROGBITS,SHF_MERGE|SHF_STRINGS,1
	0x1445		
.debug_str	0x5b984	0x2c	../../../../Quectel_BG96_QuecOpen_SDK_Package_V3.0.1-AUS/SDK/libs/llvm\txm_lib.lib(txm_module_thread_shell_entry.o)	#SHT_PROGBITS,SHF_MERGE|SHF_STRINGS,1
	0x146a		
.debug_str	0x5b9b0	0x21	../../../../Quectel_BG96_QuecOpen_SDK_Package_V3.0.1-AUS/SDK/libs/llvm\txm_lib.lib(txm_module_thread_shell_entry.o)	#SHT_PROGBITS,SHF_MERGE|SHF_STRINGS,1
	0x1496		
.debug_str	0x5b9d1	0x25	../../../../Quectel_BG96_QuecOpen_SDK_Package_V3.0.1-AUS/SDK/libs/llvm\txm_lib.lib(txm_module_thread_shell_entry.o)	#SHT_PROGBITS,SHF_MERGE|SHF_STRINGS,1
	0x14b7		
.debug_str	0x5b9f6	0x17	../../../../Quectel_BG96_QuecOpen_SDK_Package_V3.0.1-AUS/SDK/libs/llvm\txm_lib.lib(txm_module_thread_shell_entry.o)	#SHT_PROGBITS,SHF_MERGE|SHF_STRINGS,1
	0x14dc		
.debug_str	0x5ba0d	0x23	../../../../Quectel_BG96_QuecOpen_SDK_Package_V3.0.1-AUS/SDK/libs/llvm\txm_lib.lib(txm_module_thread_shell_entry.o)	#SHT_PROGBITS,SHF_MERGE|SHF_STRINGS,1
	0x14f3		
.debug_str	0x5ba30	0x26	../../../../Quectel_BG96_QuecOpen_SDK_Package_V3.0.1-AUS/SDK/libs/llvm\txm_lib.lib(txm_module_thread_shell_entry.o)	#SHT_PROGBITS,SHF_MERGE|SHF_STRINGS,1
	0x1516		
.debug_str	0x5ba56	0x20	../../../../Quectel_BG96_QuecOpen_SDK_Package_V3.0.1-AUS/SDK/libs/llvm\txm_lib.lib(txm_module_thread_shell_entry.o)	#SHT_PROGBITS,SHF_MERGE|SHF_STRINGS,1
	0x153c		
.debug_str	0x5ba76	0x24	../../../../Quectel_BG96_QuecOpen_SDK_Package_V3.0.1-AUS/SDK/libs/llvm\txm_lib.lib(txm_module_thread_shell_entry.o)	#SHT_PROGBITS,SHF_MERGE|SHF_STRINGS,1
	0x155c		
.debug_str	0x5ba9a	0x1b	../../../../Quectel_BG96_QuecOpen_SDK_Package_V3.0.1-AUS/SDK/libs/llvm\txm_lib.lib(txm_module_thread_shell_entry.o)	#SHT_PROGBITS,SHF_MERGE|SHF_STRINGS,1
	0x1580		
.debug_str	0x5bab5	0x14	../../../../Quectel_BG96_QuecOpen_SDK_Package_V3.0.1-AUS/SDK/libs/llvm\txm_lib.lib(txm_module_thread_shell_entry.o)	#SHT_PROGBITS,SHF_MERGE|SHF_STRINGS,1
	0x159b		
.debug_str	0x5bac9	0x2f	../../../../Quectel_BG96_QuecOpen_SDK_Package_V3.0.1-AUS/SDK/libs/llvm\txm_lib.lib(txm_module_thread_shell_entry.o)	#SHT_PROGBITS,SHF_MERGE|SHF_STRINGS,1
	0x15af		
.debug_str	0x5baf8	0x2f	../../../../Quectel_BG96_QuecOpen_SDK_Package_V3.0.1-AUS/SDK/libs/llvm\txm_lib.lib(txm_module_thread_shell_entry.o)	#SHT_PROGBITS,SHF_MERGE|SHF_STRINGS,1
	0x15de		
.debug_str	0x5bb27	0x23	../../../../Quectel_BG96_QuecOpen_SDK_Package_V3.0.1-AUS/SDK/libs/llvm\txm_lib.lib(txm_module_thread_shell_entry.o)	#SHT_PROGBITS,SHF_MERGE|SHF_STRINGS,1
	0x160d		
.debug_str	0x5bb4a	0x27	../../../../Quectel_BG96_QuecOpen_SDK_Package_V3.0.1-AUS/SDK/libs/llvm\txm_lib.lib(txm_module_thread_shell_entry.o)	#SHT_PROGBITS,SHF_MERGE|SHF_STRINGS,1
	0x1630		
.debug_str	0x5bb71	0x29	../../../../Quectel_BG96_QuecOpen_SDK_Package_V3.0.1-AUS/SDK/libs/llvm\txm_lib.lib(txm_module_thread_shell_entry.o)	#SHT_PROGBITS,SHF_MERGE|SHF_STRINGS,1
	0x1657		
.debug_str	0x5bb9a	0x2a	../../../../Quectel_BG96_QuecOpen_SDK_Package_V3.0.1-AUS/SDK/libs/llvm\txm_lib.lib(txm_module_thread_shell_entry.o)	#SHT_PROGBITS,SHF_MERGE|SHF_STRINGS,1
	0x1680		
.debug_str	0x5bbc4	0x35	../../../../Quectel_BG96_QuecOpen_SDK_Package_V3.0.1-AUS/SDK/libs/llvm\txm_lib.lib(txm_module_thread_shell_entry.o)	#SHT_PROGBITS,SHF_MERGE|SHF_STRINGS,1
	0x16aa		
.debug_str	0x5bbf9	0x34	../../../../Quectel_BG96_QuecOpen_SDK_Package_V3.0.1-AUS/SDK/libs/llvm\txm_lib.lib(txm_module_thread_shell_entry.o)	#SHT_PROGBITS,SHF_MERGE|SHF_STRINGS,1
	0x16df		
.debug_str	0x5bc2d	0x35	../../../../Quectel_BG96_QuecOpen_SDK_Package_V3.0.1-AUS/SDK/libs/llvm\txm_lib.lib(txm_module_thread_shell_entry.o)	#SHT_PROGBITS,SHF_MERGE|SHF_STRINGS,1
	0x1713		
.debug_str	0x5bc62	0x34	../../../../Quectel_BG96_QuecOpen_SDK_Package_V3.0.1-AUS/SDK/libs/llvm\txm_lib.lib(txm_module_thread_shell_entry.o)	#SHT_PROGBITS,SHF_MERGE|SHF_STRINGS,1
	0x1748		
.debug_str	0x5bc96	0x24	../../../../Quectel_BG96_QuecOpen_SDK_Package_V3.0.1-AUS/SDK/libs/llvm\txm_lib.lib(txm_module_thread_shell_entry.o)	#SHT_PROGBITS,SHF_MERGE|SHF_STRINGS,1
	0x177c		
.debug_str	0x5bcba	0x1d	../../../../Quectel_BG96_QuecOpen_SDK_Package_V3.0.1-AUS/SDK/libs/llvm\txm_lib.lib(txm_module_thread_shell_entry.o)	#SHT_PROGBITS,SHF_MERGE|SHF_STRINGS,1
	0x17a0		
.debug_str	0x5bcd7	0x19	../../../../Quectel_BG96_QuecOpen_SDK_Package_V3.0.1-AUS/SDK/libs/llvm\txm_lib.lib(txm_module_thread_shell_entry.o)	#SHT_PROGBITS,SHF_MERGE|SHF_STRINGS,1
	0x17bd		
.debug_str	0x5bcf0	0x23	../../../../Quectel_BG96_QuecOpen_SDK_Package_V3.0.1-AUS/SDK/libs/llvm\txm_lib.lib(txm_module_thread_shell_entry.o)	#SHT_PROGBITS,SHF_MERGE|SHF_STRINGS,1
	0x17d6		
.debug_str	0x5bd13	0xa	../../../../Quectel_BG96_QuecOpen_SDK_Package_V3.0.1-AUS/SDK/libs/llvm\txm_lib.lib(txm_module_thread_shell_entry.o)	#SHT_PROGBITS,SHF_MERGE|SHF_STRINGS,1
	0x17f9		
.debug_str	0x5bd1d	0x1f	../../../../Quectel_BG96_QuecOpen_SDK_Package_V3.0.1-AUS/SDK/libs/llvm\txm_lib.lib(txm_module_thread_shell_entry.o)	#SHT_PROGBITS,SHF_MERGE|SHF_STRINGS,1
	0x1803		
.debug_str	0x5bd3c	0xb	../../../../Quectel_BG96_QuecOpen_SDK_Package_V3.0.1-AUS/SDK/libs/llvm\txm_lib.lib(txm_module_thread_shell_entry.o)	#SHT_PROGBITS,SHF_MERGE|SHF_STRINGS,1
	0x1822		
.debug_str	0x5bd47	0xc	../../../../Quectel_BG96_QuecOpen_SDK_Package_V3.0.1-AUS/SDK/libs/llvm\txm_lib.lib(txm_module_thread_shell_entry.o)	#SHT_PROGBITS,SHF_MERGE|SHF_STRINGS,1
	0x182d		
.debug_str	0x5bd53	0xb4	../../../../Quectel_BG96_QuecOpen_SDK_Package_V3.0.1-AUS/SDK/libs/llvm\txm_lib.lib(txm_module_callback_request_thread_entry.o)	#SHT_PROGBITS,SHF_MERGE|SHF_STRINGS,1
	0x1839		
.debug_str	0x5be07	0x18	../../../../Quectel_BG96_QuecOpen_SDK_Package_V3.0.1-AUS/SDK/libs/llvm\txm_lib.lib(txm_module_callback_request_thread_entry.o)	#SHT_PROGBITS,SHF_MERGE|SHF_STRINGS,1
	0x18ed		
.debug_str	0x5be1f	0x1a	../../../../Quectel_BG96_QuecOpen_SDK_Package_V3.0.1-AUS/SDK/libs/llvm\txm_lib.lib(txm_module_callback_request_thread_entry.o)	#SHT_PROGBITS,SHF_MERGE|SHF_STRINGS,1
	0x1905		
.debug_str	0x5be39	0x1d	../../../../Quectel_BG96_QuecOpen_SDK_Package_V3.0.1-AUS/SDK/libs/llvm\txm_lib.lib(txm_module_callback_request_thread_entry.o)	#SHT_PROGBITS,SHF_MERGE|SHF_STRINGS,1
	0x191f		
.debug_str	0x5be56	0x22	../../../../Quectel_BG96_QuecOpen_SDK_Package_V3.0.1-AUS/SDK/libs/llvm\txm_lib.lib(txm_module_callback_request_thread_entry.o)	#SHT_PROGBITS,SHF_MERGE|SHF_STRINGS,1
	0x193c		
.debug_str	0x5be78	0x25	../../../../Quectel_BG96_QuecOpen_SDK_Package_V3.0.1-AUS/SDK/libs/llvm\txm_lib.lib(txm_module_callback_request_thread_entry.o)	#SHT_PROGBITS,SHF_MERGE|SHF_STRINGS,1
	0x195e		
.debug_str	0x5be9d	0x25	../../../../Quectel_BG96_QuecOpen_SDK_Package_V3.0.1-AUS/SDK/libs/llvm\txm_lib.lib(txm_module_callback_request_thread_entry.o)	#SHT_PROGBITS,SHF_MERGE|SHF_STRINGS,1
	0x1983		
.debug_str	0x5bec2	0x22	../../../../Quectel_BG96_QuecOpen_SDK_Package_V3.0.1-AUS/SDK/libs/llvm\txm_lib.lib(txm_module_callback_request_thread_entry.o)	#SHT_PROGBITS,SHF_MERGE|SHF_STRINGS,1
	0x19a8		
.debug_str	0x5bee4	0x26	../../../../Quectel_BG96_QuecOpen_SDK_Package_V3.0.1-AUS/SDK/libs/llvm\txm_lib.lib(txm_module_callback_request_thread_entry.o)	#SHT_PROGBITS,SHF_MERGE|SHF_STRINGS,1
	0x19ca		
.debug_str	0x5bf0a	0x23	../../../../Quectel_BG96_QuecOpen_SDK_Package_V3.0.1-AUS/SDK/libs/llvm\txm_lib.lib(txm_module_callback_request_thread_entry.o)	#SHT_PROGBITS,SHF_MERGE|SHF_STRINGS,1
	0x19f0		
.debug_str	0x5bf2d	0x1c	../../../../Quectel_BG96_QuecOpen_SDK_Package_V3.0.1-AUS/SDK/libs/llvm\txm_lib.lib(txm_module_callback_request_thread_entry.o)	#SHT_PROGBITS,SHF_MERGE|SHF_STRINGS,1
	0x1a13		
.debug_str	0x5bf49	0x15	../../../../Quectel_BG96_QuecOpen_SDK_Package_V3.0.1-AUS/SDK/libs/llvm\txm_lib.lib(txm_module_callback_request_thread_entry.o)	#SHT_PROGBITS,SHF_MERGE|SHF_STRINGS,1
	0x1a2f		
.debug_str	0x5bf5e	0x10	../../../../Quectel_BG96_QuecOpen_SDK_Package_V3.0.1-AUS/SDK/libs/llvm\txm_lib.lib(txm_module_callback_request_thread_entry.o)	#SHT_PROGBITS,SHF_MERGE|SHF_STRINGS,1
	0x1a44		
.debug_str	0x5bf6e	0x12	../../../../Quectel_BG96_QuecOpen_SDK_Package_V3.0.1-AUS/SDK/libs/llvm\txm_lib.lib(txm_module_callback_request_thread_entry.o)	#SHT_PROGBITS,SHF_MERGE|SHF_STRINGS,1
	0x1a54		
.debug_str	0x5bf80	0x13	../../../../Quectel_BG96_QuecOpen_SDK_Package_V3.0.1-AUS/SDK/libs/llvm\txm_lib.lib(txm_module_callback_request_thread_entry.o)	#SHT_PROGBITS,SHF_MERGE|SHF_STRINGS,1
	0x1a66		
.debug_str	0x5bf93	0x1d	../../../../Quectel_BG96_QuecOpen_SDK_Package_V3.0.1-AUS/SDK/libs/llvm\txm_lib.lib(txm_module_callback_request_thread_entry.o)	#SHT_PROGBITS,SHF_MERGE|SHF_STRINGS,1
	0x1a79		
.debug_str	0x5bfb0	0x1d	../../../../Quectel_BG96_QuecOpen_SDK_Package_V3.0.1-AUS/SDK/libs/llvm\txm_lib.lib(txm_module_callback_request_thread_entry.o)	#SHT_PROGBITS,SHF_MERGE|SHF_STRINGS,1
	0x1a96		
.debug_str	0x5bfcd	0x1a	../../../../Quectel_BG96_QuecOpen_SDK_Package_V3.0.1-AUS/SDK/libs/llvm\txm_lib.lib(txm_module_callback_request_thread_entry.o)	#SHT_PROGBITS,SHF_MERGE|SHF_STRINGS,1
	0x1ab3		
.debug_str	0x5bfe7	0x1e	../../../../Quectel_BG96_QuecOpen_SDK_Package_V3.0.1-AUS/SDK/libs/llvm\txm_lib.lib(txm_module_callback_request_thread_entry.o)	#SHT_PROGBITS,SHF_MERGE|SHF_STRINGS,1
	0x1acd		
.debug_str	0x5c005	0x14	../../../../Quectel_BG96_QuecOpen_SDK_Package_V3.0.1-AUS/SDK/libs/llvm\txm_lib.lib(txm_module_callback_request_thread_entry.o)	#SHT_PROGBITS,SHF_MERGE|SHF_STRINGS,1
	0x1aeb		
.debug_str	0x5c019	0xd	../../../../Quectel_BG96_QuecOpen_SDK_Package_V3.0.1-AUS/SDK/libs/llvm\txm_lib.lib(txm_module_callback_request_thread_entry.o)	#SHT_PROGBITS,SHF_MERGE|SHF_STRINGS,1
	0x1aff		
.debug_str	0x5c026	0x18	../../../../Quectel_BG96_QuecOpen_SDK_Package_V3.0.1-AUS/SDK/libs/llvm\txm_lib.lib(txm_module_callback_request_thread_entry.o)	#SHT_PROGBITS,SHF_MERGE|SHF_STRINGS,1
	0x1b0c		
.debug_str	0x5c03e	0x2a	../../../../Quectel_BG96_QuecOpen_SDK_Package_V3.0.1-AUS/SDK/libs/llvm\txm_lib.lib(txm_module_callback_request_thread_entry.o)	#SHT_PROGBITS,SHF_MERGE|SHF_STRINGS,1
	0x1b24		
.debug_str	0x5c068	0x3	../../../../Quectel_BG96_QuecOpen_SDK_Package_V3.0.1-AUS/SDK/libs/llvm\txm_lib.lib(txm_module_callback_request_thread_entry.o)	#SHT_PROGBITS,SHF_MERGE|SHF_STRINGS,1
	0x1b4e		
.debug_str	0x5c06b	0x7	../../../../Quectel_BG96_QuecOpen_SDK_Package_V3.0.1-AUS/SDK/libs/llvm\txm_lib.lib(txm_module_callback_request_thread_entry.o)	#SHT_PROGBITS,SHF_MERGE|SHF_STRINGS,1
	0x1b51		
.debug_str	0x5c072	0xf	../../../../Quectel_BG96_QuecOpen_SDK_Package_V3.0.1-AUS/SDK/libs/llvm\txm_lib.lib(txm_module_callback_request_thread_entry.o)	#SHT_PROGBITS,SHF_MERGE|SHF_STRINGS,1
	0x1b58		
.debug_str	0x5c081	0x19	../../../../Quectel_BG96_QuecOpen_SDK_Package_V3.0.1-AUS/SDK/libs/llvm\txm_lib.lib(txm_module_callback_request_thread_entry.o)	#SHT_PROGBITS,SHF_MERGE|SHF_STRINGS,1
	0x1b67		
.debug_str	0x5c09a	0x12	../../../../Quectel_BG96_QuecOpen_SDK_Package_V3.0.1-AUS/SDK/libs/llvm\txm_lib.lib(txm_module_callback_request_thread_entry.o)	#SHT_PROGBITS,SHF_MERGE|SHF_STRINGS,1
	0x1b80		
.debug_str	0x5c0ac	0xe	../../../../Quectel_BG96_QuecOpen_SDK_Package_V3.0.1-AUS/SDK/libs/llvm\txm_lib.lib(txm_module_callback_request_thread_entry.o)	#SHT_PROGBITS,SHF_MERGE|SHF_STRINGS,1
	0x1b92		
.debug_str	0x5c0ba	0xf	../../../../Quectel_BG96_QuecOpen_SDK_Package_V3.0.1-AUS/SDK/libs/llvm\txm_lib.lib(txm_module_callback_request_thread_entry.o)	#SHT_PROGBITS,SHF_MERGE|SHF_STRINGS,1
	0x1ba0		
.debug_str	0x5c0c9	0x11	../../../../Quectel_BG96_QuecOpen_SDK_Package_V3.0.1-AUS/SDK/libs/llvm\txm_lib.lib(txm_module_callback_request_thread_entry.o)	#SHT_PROGBITS,SHF_MERGE|SHF_STRINGS,1
	0x1baf		
.debug_str	0x5c0da	0x24	../../../../Quectel_BG96_QuecOpen_SDK_Package_V3.0.1-AUS/SDK/libs/llvm\txm_lib.lib(txm_module_callback_request_thread_entry.o)	#SHT_PROGBITS,SHF_MERGE|SHF_STRINGS,1
	0x1bc0		
.debug_str	0x5c0fe	0x1a	../../../../Quectel_BG96_QuecOpen_SDK_Package_V3.0.1-AUS/SDK/libs/llvm\txm_lib.lib(txm_module_callback_request_thread_entry.o)	#SHT_PROGBITS,SHF_MERGE|SHF_STRINGS,1
	0x1be4		
.debug_str	0x5c118	0x22	../../../../Quectel_BG96_QuecOpen_SDK_Package_V3.0.1-AUS/SDK/libs/llvm\txm_lib.lib(txm_module_callback_request_thread_entry.o)	#SHT_PROGBITS,SHF_MERGE|SHF_STRINGS,1
	0x1bfe		
.debug_str	0x5c13a	0x1e	../../../../Quectel_BG96_QuecOpen_SDK_Package_V3.0.1-AUS/SDK/libs/llvm\txm_lib.lib(txm_module_callback_request_thread_entry.o)	#SHT_PROGBITS,SHF_MERGE|SHF_STRINGS,1
	0x1c20		
.debug_str	0x5c158	0x25	../../../../Quectel_BG96_QuecOpen_SDK_Package_V3.0.1-AUS/SDK/libs/llvm\txm_lib.lib(txm_module_callback_request_thread_entry.o)	#SHT_PROGBITS,SHF_MERGE|SHF_STRINGS,1
	0x1c3e		
.debug_str	0x5c17d	0x24	../../../../Quectel_BG96_QuecOpen_SDK_Package_V3.0.1-AUS/SDK/libs/llvm\txm_lib.lib(txm_module_callback_request_thread_entry.o)	#SHT_PROGBITS,SHF_MERGE|SHF_STRINGS,1
	0x1c63		
.debug_str	0x5c1a1	0x22	../../../../Quectel_BG96_QuecOpen_SDK_Package_V3.0.1-AUS/SDK/libs/llvm\txm_lib.lib(txm_module_callback_request_thread_entry.o)	#SHT_PROGBITS,SHF_MERGE|SHF_STRINGS,1
	0x1c87		
.debug_str	0x5c1c3	0x29	../../../../Quectel_BG96_QuecOpen_SDK_Package_V3.0.1-AUS/SDK/libs/llvm\txm_lib.lib(txm_module_callback_request_thread_entry.o)	#SHT_PROGBITS,SHF_MERGE|SHF_STRINGS,1
	0x1ca9		
.debug_str	0x5c1ec	0x19	../../../../Quectel_BG96_QuecOpen_SDK_Package_V3.0.1-AUS/SDK/libs/llvm\txm_lib.lib(txm_module_callback_request_thread_entry.o)	#SHT_PROGBITS,SHF_MERGE|SHF_STRINGS,1
	0x1cd2		
.debug_str	0x5c205	0x1f	../../../../Quectel_BG96_QuecOpen_SDK_Package_V3.0.1-AUS/SDK/libs/llvm\txm_lib.lib(txm_module_callback_request_thread_entry.o)	#SHT_PROGBITS,SHF_MERGE|SHF_STRINGS,1
	0x1ceb		
.debug_str	0x5c224	0x17	../../../../Quectel_BG96_QuecOpen_SDK_Package_V3.0.1-AUS/SDK/libs/llvm\txm_lib.lib(txm_module_callback_request_thread_entry.o)	#SHT_PROGBITS,SHF_MERGE|SHF_STRINGS,1
	0x1d0a		
.debug_str	0x5c23b	0x1c	../../../../Quectel_BG96_QuecOpen_SDK_Package_V3.0.1-AUS/SDK/libs/llvm\txm_lib.lib(txm_module_callback_request_thread_entry.o)	#SHT_PROGBITS,SHF_MERGE|SHF_STRINGS,1
	0x1d21		
.debug_str	0x5c257	0x1c	../../../../Quectel_BG96_QuecOpen_SDK_Package_V3.0.1-AUS/SDK/libs/llvm\txm_lib.lib(txm_module_callback_request_thread_entry.o)	#SHT_PROGBITS,SHF_MERGE|SHF_STRINGS,1
	0x1d3d		
.debug_str	0x5c273	0x19	../../../../Quectel_BG96_QuecOpen_SDK_Package_V3.0.1-AUS/SDK/libs/llvm\txm_lib.lib(txm_module_callback_request_thread_entry.o)	#SHT_PROGBITS,SHF_MERGE|SHF_STRINGS,1
	0x1d59		
.debug_str	0x5c28c	0x1d	../../../../Quectel_BG96_QuecOpen_SDK_Package_V3.0.1-AUS/SDK/libs/llvm\txm_lib.lib(txm_module_callback_request_thread_entry.o)	#SHT_PROGBITS,SHF_MERGE|SHF_STRINGS,1
	0x1d72		
.debug_str	0x5c2a9	0x21	../../../../Quectel_BG96_QuecOpen_SDK_Package_V3.0.1-AUS/SDK/libs/llvm\txm_lib.lib(txm_module_callback_request_thread_entry.o)	#SHT_PROGBITS,SHF_MERGE|SHF_STRINGS,1
	0x1d8f		
.debug_str	0x5c2ca	0x25	../../../../Quectel_BG96_QuecOpen_SDK_Package_V3.0.1-AUS/SDK/libs/llvm\txm_lib.lib(txm_module_callback_request_thread_entry.o)	#SHT_PROGBITS,SHF_MERGE|SHF_STRINGS,1
	0x1db0		
.debug_str	0x5c2ef	0x1c	../../../../Quectel_BG96_QuecOpen_SDK_Package_V3.0.1-AUS/SDK/libs/llvm\txm_lib.lib(txm_module_callback_request_thread_entry.o)	#SHT_PROGBITS,SHF_MERGE|SHF_STRINGS,1
	0x1dd5		
.debug_str	0x5c30b	0x1c	../../../../Quectel_BG96_QuecOpen_SDK_Package_V3.0.1-AUS/SDK/libs/llvm\txm_lib.lib(txm_module_callback_request_thread_entry.o)	#SHT_PROGBITS,SHF_MERGE|SHF_STRINGS,1
	0x1df1		
.debug_str	0x5c327	0x1c	../../../../Quectel_BG96_QuecOpen_SDK_Package_V3.0.1-AUS/SDK/libs/llvm\txm_lib.lib(txm_module_callback_request_thread_entry.o)	#SHT_PROGBITS,SHF_MERGE|SHF_STRINGS,1
	0x1e0d		
.debug_str	0x5c343	0x1c	../../../../Quectel_BG96_QuecOpen_SDK_Package_V3.0.1-AUS/SDK/libs/llvm\txm_lib.lib(txm_module_callback_request_thread_entry.o)	#SHT_PROGBITS,SHF_MERGE|SHF_STRINGS,1
	0x1e29		
.debug_str	0x5c35f	0x1c	../../../../Quectel_BG96_QuecOpen_SDK_Package_V3.0.1-AUS/SDK/libs/llvm\txm_lib.lib(txm_module_callback_request_thread_entry.o)	#SHT_PROGBITS,SHF_MERGE|SHF_STRINGS,1
	0x1e45		
.debug_str	0x5c37b	0x1c	../../../../Quectel_BG96_QuecOpen_SDK_Package_V3.0.1-AUS/SDK/libs/llvm\txm_lib.lib(txm_module_callback_request_thread_entry.o)	#SHT_PROGBITS,SHF_MERGE|SHF_STRINGS,1
	0x1e61		
.debug_str	0x5c397	0x1b	../../../../Quectel_BG96_QuecOpen_SDK_Package_V3.0.1-AUS/SDK/libs/llvm\txm_lib.lib(txm_module_callback_request_thread_entry.o)	#SHT_PROGBITS,SHF_MERGE|SHF_STRINGS,1
	0x1e7d		
.debug_str	0x5c3b2	0x14	../../../../Quectel_BG96_QuecOpen_SDK_Package_V3.0.1-AUS/SDK/libs/llvm\txm_lib.lib(txm_module_callback_request_thread_entry.o)	#SHT_PROGBITS,SHF_MERGE|SHF_STRINGS,1
	0x1e98		
.debug_str	0x5c3c6	0x30	../../../../Quectel_BG96_QuecOpen_SDK_Package_V3.0.1-AUS/SDK/libs/llvm\txm_lib.lib(txm_module_callback_request_thread_entry.o)	#SHT_PROGBITS,SHF_MERGE|SHF_STRINGS,1
	0x1eac		
.debug_str	0x5c3f6	0x23	../../../../Quectel_BG96_QuecOpen_SDK_Package_V3.0.1-AUS/SDK/libs/llvm\txm_lib.lib(txm_module_callback_request_thread_entry.o)	#SHT_PROGBITS,SHF_MERGE|SHF_STRINGS,1
	0x1edc		
.debug_str	0x5c419	0x23	../../../../Quectel_BG96_QuecOpen_SDK_Package_V3.0.1-AUS/SDK/libs/llvm\txm_lib.lib(txm_module_callback_request_thread_entry.o)	#SHT_PROGBITS,SHF_MERGE|SHF_STRINGS,1
	0x1eff		
.debug_str	0x5c43c	0x20	../../../../Quectel_BG96_QuecOpen_SDK_Package_V3.0.1-AUS/SDK/libs/llvm\txm_lib.lib(txm_module_callback_request_thread_entry.o)	#SHT_PROGBITS,SHF_MERGE|SHF_STRINGS,1
	0x1f22		
.debug_str	0x5c45c	0x29	../../../../Quectel_BG96_QuecOpen_SDK_Package_V3.0.1-AUS/SDK/libs/llvm\txm_lib.lib(txm_module_callback_request_thread_entry.o)	#SHT_PROGBITS,SHF_MERGE|SHF_STRINGS,1
	0x1f42		
.debug_str	0x5c485	0x25	../../../../Quectel_BG96_QuecOpen_SDK_Package_V3.0.1-AUS/SDK/libs/llvm\txm_lib.lib(txm_module_callback_request_thread_entry.o)	#SHT_PROGBITS,SHF_MERGE|SHF_STRINGS,1
	0x1f6b		
.debug_str	0x5c4aa	0x25	../../../../Quectel_BG96_QuecOpen_SDK_Package_V3.0.1-AUS/SDK/libs/llvm\txm_lib.lib(txm_module_callback_request_thread_entry.o)	#SHT_PROGBITS,SHF_MERGE|SHF_STRINGS,1
	0x1f90		
.debug_str	0x5c4cf	0x28	../../../../Quectel_BG96_QuecOpen_SDK_Package_V3.0.1-AUS/SDK/libs/llvm\txm_lib.lib(txm_module_callback_request_thread_entry.o)	#SHT_PROGBITS,SHF_MERGE|SHF_STRINGS,1
	0x1fb5		
.debug_str	0x5c4f7	0x2c	../../../../Quectel_BG96_QuecOpen_SDK_Package_V3.0.1-AUS/SDK/libs/llvm\txm_lib.lib(txm_module_callback_request_thread_entry.o)	#SHT_PROGBITS,SHF_MERGE|SHF_STRINGS,1
	0x1fdd		
.debug_str	0x5c523	0x23	../../../../Quectel_BG96_QuecOpen_SDK_Package_V3.0.1-AUS/SDK/libs/llvm\txm_lib.lib(txm_module_callback_request_thread_entry.o)	#SHT_PROGBITS,SHF_MERGE|SHF_STRINGS,1
	0x2009		
.debug_str	0x5c546	0x23	../../../../Quectel_BG96_QuecOpen_SDK_Package_V3.0.1-AUS/SDK/libs/llvm\txm_lib.lib(txm_module_callback_request_thread_entry.o)	#SHT_PROGBITS,SHF_MERGE|SHF_STRINGS,1
	0x202c		
.debug_str	0x5c569	0x23	../../../../Quectel_BG96_QuecOpen_SDK_Package_V3.0.1-AUS/SDK/libs/llvm\txm_lib.lib(txm_module_callback_request_thread_entry.o)	#SHT_PROGBITS,SHF_MERGE|SHF_STRINGS,1
	0x204f		
.debug_str	0x5c58c	0x23	../../../../Quectel_BG96_QuecOpen_SDK_Package_V3.0.1-AUS/SDK/libs/llvm\txm_lib.lib(txm_module_callback_request_thread_entry.o)	#SHT_PROGBITS,SHF_MERGE|SHF_STRINGS,1
	0x2072		
.debug_str	0x5c5af	0x23	../../../../Quectel_BG96_QuecOpen_SDK_Package_V3.0.1-AUS/SDK/libs/llvm\txm_lib.lib(txm_module_callback_request_thread_entry.o)	#SHT_PROGBITS,SHF_MERGE|SHF_STRINGS,1
	0x2095		
.debug_str	0x5c5d2	0x23	../../../../Quectel_BG96_QuecOpen_SDK_Package_V3.0.1-AUS/SDK/libs/llvm\txm_lib.lib(txm_module_callback_request_thread_entry.o)	#SHT_PROGBITS,SHF_MERGE|SHF_STRINGS,1
	0x20b8		
.debug_str	0x5c5f5	0x22	../../../../Quectel_BG96_QuecOpen_SDK_Package_V3.0.1-AUS/SDK/libs/llvm\txm_lib.lib(txm_module_callback_request_thread_entry.o)	#SHT_PROGBITS,SHF_MERGE|SHF_STRINGS,1
	0x20db		
.debug_str	0x5c617	0x1b	../../../../Quectel_BG96_QuecOpen_SDK_Package_V3.0.1-AUS/SDK/libs/llvm\txm_lib.lib(txm_module_callback_request_thread_entry.o)	#SHT_PROGBITS,SHF_MERGE|SHF_STRINGS,1
	0x20fd		
.debug_str	0x5c632	0x12	../../../../Quectel_BG96_QuecOpen_SDK_Package_V3.0.1-AUS/SDK/libs/llvm\txm_lib.lib(txm_module_callback_request_thread_entry.o)	#SHT_PROGBITS,SHF_MERGE|SHF_STRINGS,1
	0x2118		
.debug_str	0x5c644	0x15	../../../../Quectel_BG96_QuecOpen_SDK_Package_V3.0.1-AUS/SDK/libs/llvm\txm_lib.lib(txm_module_callback_request_thread_entry.o)	#SHT_PROGBITS,SHF_MERGE|SHF_STRINGS,1
	0x212a		
.debug_str	0x5c659	0x12	../../../../Quectel_BG96_QuecOpen_SDK_Package_V3.0.1-AUS/SDK/libs/llvm\txm_lib.lib(txm_module_callback_request_thread_entry.o)	#SHT_PROGBITS,SHF_MERGE|SHF_STRINGS,1
	0x213f		
.debug_str	0x5c66b	0xa4	../../../../Quectel_BG96_QuecOpen_SDK_Package_V3.0.1-AUS/SDK/libs/llvm\txm_lib.lib(txm_module_system_call11.o)	#SHT_PROGBITS,SHF_MERGE|SHF_STRINGS,1
	0x2151		
.debug_str	0x5c70f	0x1a	../../../../Quectel_BG96_QuecOpen_SDK_Package_V3.0.1-AUS/SDK/libs/llvm\txm_lib.lib(txm_module_system_call11.o)	#SHT_PROGBITS,SHF_MERGE|SHF_STRINGS,1
	0x21f5		
.debug_str	0x5c729	0x11	../../../../Quectel_BG96_QuecOpen_SDK_Package_V3.0.1-AUS/SDK/libs/llvm\txm_lib.lib(txm_module_system_call11.o)	#SHT_PROGBITS,SHF_MERGE|SHF_STRINGS,1
	0x220f		
.debug_str	0x5c73a	0x8	../../../../Quectel_BG96_QuecOpen_SDK_Package_V3.0.1-AUS/SDK/libs/llvm\txm_lib.lib(txm_module_system_call11.o)	#SHT_PROGBITS,SHF_MERGE|SHF_STRINGS,1
	0x2220		
.debug_str	0x5c742	0x8	../../../../Quectel_BG96_QuecOpen_SDK_Package_V3.0.1-AUS/SDK/libs/llvm\txm_lib.lib(txm_module_system_call11.o)	#SHT_PROGBITS,SHF_MERGE|SHF_STRINGS,1
	0x2228		
.debug_str	0x5c74a	0x8	../../../../Quectel_BG96_QuecOpen_SDK_Package_V3.0.1-AUS/SDK/libs/llvm\txm_lib.lib(txm_module_system_call11.o)	#SHT_PROGBITS,SHF_MERGE|SHF_STRINGS,1
	0x2230		
.debug_str	0x5c752	0x8	../../../../Quectel_BG96_QuecOpen_SDK_Package_V3.0.1-AUS/SDK/libs/llvm\txm_lib.lib(txm_module_system_call11.o)	#SHT_PROGBITS,SHF_MERGE|SHF_STRINGS,1
	0x2238		
.debug_str	0x5c75a	0x8	../../../../Quectel_BG96_QuecOpen_SDK_Package_V3.0.1-AUS/SDK/libs/llvm\txm_lib.lib(txm_module_system_call11.o)	#SHT_PROGBITS,SHF_MERGE|SHF_STRINGS,1
	0x2240		
.debug_str	0x5c762	0x8	../../../../Quectel_BG96_QuecOpen_SDK_Package_V3.0.1-AUS/SDK/libs/llvm\txm_lib.lib(txm_module_system_call11.o)	#SHT_PROGBITS,SHF_MERGE|SHF_STRINGS,1
	0x2248		
.debug_str	0x5c76a	0x8	../../../../Quectel_BG96_QuecOpen_SDK_Package_V3.0.1-AUS/SDK/libs/llvm\txm_lib.lib(txm_module_system_call11.o)	#SHT_PROGBITS,SHF_MERGE|SHF_STRINGS,1
	0x2250		
.debug_str	0x5c772	0x8	../../../../Quectel_BG96_QuecOpen_SDK_Package_V3.0.1-AUS/SDK/libs/llvm\txm_lib.lib(txm_module_system_call11.o)	#SHT_PROGBITS,SHF_MERGE|SHF_STRINGS,1
	0x2258		
.debug_str	0x5c77a	0x8	../../../../Quectel_BG96_QuecOpen_SDK_Package_V3.0.1-AUS/SDK/libs/llvm\txm_lib.lib(txm_module_system_call11.o)	#SHT_PROGBITS,SHF_MERGE|SHF_STRINGS,1
	0x2260		
.debug_str	0x5c782	0x8	../../../../Quectel_BG96_QuecOpen_SDK_Package_V3.0.1-AUS/SDK/libs/llvm\txm_lib.lib(txm_module_system_call11.o)	#SHT_PROGBITS,SHF_MERGE|SHF_STRINGS,1
	0x2268		
.debug_str	0x5c78a	0x9	../../../../Quectel_BG96_QuecOpen_SDK_Package_V3.0.1-AUS/SDK/libs/llvm\txm_lib.lib(txm_module_system_call11.o)	#SHT_PROGBITS,SHF_MERGE|SHF_STRINGS,1
	0x2270		
.debug_str	0x5c793	0x9	../../../../Quectel_BG96_QuecOpen_SDK_Package_V3.0.1-AUS/SDK/libs/llvm\txm_lib.lib(txm_module_system_call11.o)	#SHT_PROGBITS,SHF_MERGE|SHF_STRINGS,1
	0x2279		
.debug_str	0x5c79c	0xd	../../../../Quectel_BG96_QuecOpen_SDK_Package_V3.0.1-AUS/SDK/libs/llvm\txm_lib.lib(txm_module_system_call11.o)	#SHT_PROGBITS,SHF_MERGE|SHF_STRINGS,1
	0x2282		
.debug_str	0x5c7a9	0xa4	../../../../Quectel_BG96_QuecOpen_SDK_Package_V3.0.1-AUS/SDK/libs/llvm\txm_lib.lib(txm_module_system_call12.o)	#SHT_PROGBITS,SHF_MERGE|SHF_STRINGS,1
	0x228f		
.debug_str	0x5c84d	0x1a	../../../../Quectel_BG96_QuecOpen_SDK_Package_V3.0.1-AUS/SDK/libs/llvm\txm_lib.lib(txm_module_system_call12.o)	#SHT_PROGBITS,SHF_MERGE|SHF_STRINGS,1
	0x2333		
.debug_str	0x5c867	0x9	../../../../Quectel_BG96_QuecOpen_SDK_Package_V3.0.1-AUS/SDK/libs/llvm\txm_lib.lib(txm_module_system_call12.o)	#SHT_PROGBITS,SHF_MERGE|SHF_STRINGS,1
	0x234d		
.debug_str	0x5c870	0xa3	../../../../Quectel_BG96_QuecOpen_SDK_Package_V3.0.1-AUS/SDK/libs/llvm\txm_lib.lib(txm_module_system_call4.o)	#SHT_PROGBITS,SHF_MERGE|SHF_STRINGS,1
	0x2356		
.debug_str	0x5c913	0x19	../../../../Quectel_BG96_QuecOpen_SDK_Package_V3.0.1-AUS/SDK/libs/llvm\txm_lib.lib(txm_module_system_call4.o)	#SHT_PROGBITS,SHF_MERGE|SHF_STRINGS,1
	0x23f9		
.debug_str	0x5c92c	0xa3	../../../../Quectel_BG96_QuecOpen_SDK_Package_V3.0.1-AUS/SDK/libs/llvm\txm_lib.lib(txm_module_system_call5.o)	#SHT_PROGBITS,SHF_MERGE|SHF_STRINGS,1
	0x2412		
.debug_str	0x5c9cf	0x19	../../../../Quectel_BG96_QuecOpen_SDK_Package_V3.0.1-AUS/SDK/libs/llvm\txm_lib.lib(txm_module_system_call5.o)	#SHT_PROGBITS,SHF_MERGE|SHF_STRINGS,1
	0x24b5		
.debug_str	0x5c9e8	0xa3	../../../../Quectel_BG96_QuecOpen_SDK_Package_V3.0.1-AUS/SDK/libs/llvm\txm_lib.lib(txm_module_system_call6.o)	#SHT_PROGBITS,SHF_MERGE|SHF_STRINGS,1
	0x24ce		
.debug_str	0x5ca8b	0x19	../../../../Quectel_BG96_QuecOpen_SDK_Package_V3.0.1-AUS/SDK/libs/llvm\txm_lib.lib(txm_module_system_call6.o)	#SHT_PROGBITS,SHF_MERGE|SHF_STRINGS,1
	0x2571		
.debug_str	0x5caa4	0xa3	../../../../Quectel_BG96_QuecOpen_SDK_Package_V3.0.1-AUS/SDK/libs/llvm\txm_lib.lib(txm_module_system_call7.o)	#SHT_PROGBITS,SHF_MERGE|SHF_STRINGS,1
	0x258a		
.debug_str	0x5cb47	0x19	../../../../Quectel_BG96_QuecOpen_SDK_Package_V3.0.1-AUS/SDK/libs/llvm\txm_lib.lib(txm_module_system_call7.o)	#SHT_PROGBITS,SHF_MERGE|SHF_STRINGS,1
	0x262d		
.debug_str	0x5cb60	0xa3	../../../../Quectel_BG96_QuecOpen_SDK_Package_V3.0.1-AUS/SDK/libs/llvm\txm_lib.lib(txm_module_system_call8.o)	#SHT_PROGBITS,SHF_MERGE|SHF_STRINGS,1
	0x2646		
.debug_str	0x5cc03	0x19	../../../../Quectel_BG96_QuecOpen_SDK_Package_V3.0.1-AUS/SDK/libs/llvm\txm_lib.lib(txm_module_system_call8.o)	#SHT_PROGBITS,SHF_MERGE|SHF_STRINGS,1
	0x26e9		

.debug_loc	0x5cc1c	0x5d3 # Offset: 0x5cc1c
*(.debug_loc )
.debug_loc	0x5cc1c	0x3c	../../../../Quectel_BG96_QuecOpen_SDK_Package_V3.0.1-AUS/SDK/libs/llvm\txm_lib.lib(txm_module_thread_shell_entry.o)	#SHT_PROGBITS,,1
.debug_loc	0x5cc58	0x75	../../../../Quectel_BG96_QuecOpen_SDK_Package_V3.0.1-AUS/SDK/libs/llvm\txm_lib.lib(txm_module_callback_request_thread_entry.o)	#SHT_PROGBITS,,1
.debug_loc	0x5cccd	0x103	../../../../Quectel_BG96_QuecOpen_SDK_Package_V3.0.1-AUS/SDK/libs/llvm\txm_lib.lib(txm_module_system_call11.o)	#SHT_PROGBITS,,1
.debug_loc	0x5cdd0	0x118	../../../../Quectel_BG96_QuecOpen_SDK_Package_V3.0.1-AUS/SDK/libs/llvm\txm_lib.lib(txm_module_system_call12.o)	#SHT_PROGBITS,,1
.debug_loc	0x5cee8	0x73	../../../../Quectel_BG96_QuecOpen_SDK_Package_V3.0.1-AUS/SDK/libs/llvm\txm_lib.lib(txm_module_system_call4.o)	#SHT_PROGBITS,,1
.debug_loc	0x5cf5b	0x87	../../../../Quectel_BG96_QuecOpen_SDK_Package_V3.0.1-AUS/SDK/libs/llvm\txm_lib.lib(txm_module_system_call5.o)	#SHT_PROGBITS,,1
.debug_loc	0x5cfe2	0x9b	../../../../Quectel_BG96_QuecOpen_SDK_Package_V3.0.1-AUS/SDK/libs/llvm\txm_lib.lib(txm_module_system_call6.o)	#SHT_PROGBITS,,1
.debug_loc	0x5d07d	0xaf	../../../../Quectel_BG96_QuecOpen_SDK_Package_V3.0.1-AUS/SDK/libs/llvm\txm_lib.lib(txm_module_system_call7.o)	#SHT_PROGBITS,,1
.debug_loc	0x5d12c	0xc3	../../../../Quectel_BG96_QuecOpen_SDK_Package_V3.0.1-AUS/SDK/libs/llvm\txm_lib.lib(txm_module_system_call8.o)	#SHT_PROGBITS,,1

.debug_macinfo	0x5d1ef	0x9 # Offset: 0x5d1ef
*(.debug_macinfo )
.debug_macinfo	0x5d1ef	0x1	../../../../Quectel_BG96_QuecOpen_SDK_Package_V3.0.1-AUS/SDK/libs/llvm\txm_lib.lib(txm_module_thread_shell_entry.o)	#SHT_PROGBITS,,1
.debug_macinfo	0x5d1f0	0x1	../../../../Quectel_BG96_QuecOpen_SDK_Package_V3.0.1-AUS/SDK/libs/llvm\txm_lib.lib(txm_module_callback_request_thread_entry.o)	#SHT_PROGBITS,,1
.debug_macinfo	0x5d1f1	0x1	../../../../Quectel_BG96_QuecOpen_SDK_Package_V3.0.1-AUS/SDK/libs/llvm\txm_lib.lib(txm_module_system_call11.o)	#SHT_PROGBITS,,1
.debug_macinfo	0x5d1f2	0x1	../../../../Quectel_BG96_QuecOpen_SDK_Package_V3.0.1-AUS/SDK/libs/llvm\txm_lib.lib(txm_module_system_call12.o)	#SHT_PROGBITS,,1
.debug_macinfo	0x5d1f3	0x1	../../../../Quectel_BG96_QuecOpen_SDK_Package_V3.0.1-AUS/SDK/libs/llvm\txm_lib.lib(txm_module_system_call4.o)	#SHT_PROGBITS,,1
.debug_macinfo	0x5d1f4	0x1	../../../../Quectel_BG96_QuecOpen_SDK_Package_V3.0.1-AUS/SDK/libs/llvm\txm_lib.lib(txm_module_system_call5.o)	#SHT_PROGBITS,,1
.debug_macinfo	0x5d1f5	0x1	../../../../Quectel_BG96_QuecOpen_SDK_Package_V3.0.1-AUS/SDK/libs/llvm\txm_lib.lib(txm_module_system_call6.o)	#SHT_PROGBITS,,1
.debug_macinfo	0x5d1f6	0x1	../../../../Quectel_BG96_QuecOpen_SDK_Package_V3.0.1-AUS/SDK/libs/llvm\txm_lib.lib(txm_module_system_call7.o)	#SHT_PROGBITS,,1
.debug_macinfo	0x5d1f7	0x1	../../../../Quectel_BG96_QuecOpen_SDK_Package_V3.0.1-AUS/SDK/libs/llvm\txm_lib.lib(txm_module_system_call8.o)	#SHT_PROGBITS,,1

.debug_weaknames	0x5d1f8	0x0 # Offset: 0x5d1f8

.debug_funcnames	0x5d1f8	0x0 # Offset: 0x5d1f8

.debug_typenames	0x5d1f8	0x0 # Offset: 0x5d1f8

.debug_varnames	0x5d1f8	0x0 # Offset: 0x5d1f8

.debug_pubtypes	0x5d1f8	0x5d3 # Offset: 0x5d1f8
*(.debug_pubtypes )
.debug_pubtypes	0x5d1f8	0x1e2	../../../../Quectel_BG96_QuecOpen_SDK_Package_V3.0.1-AUS/SDK/libs/llvm\txm_lib.lib(txm_module_thread_shell_entry.o)	#SHT_PROGBITS,,1
.debug_pubtypes	0x5d3da	0x293	../../../../Quectel_BG96_QuecOpen_SDK_Package_V3.0.1-AUS/SDK/libs/llvm\txm_lib.lib(txm_module_callback_request_thread_entry.o)	#SHT_PROGBITS,,1
.debug_pubtypes	0x5d66d	0x32	../../../../Quectel_BG96_QuecOpen_SDK_Package_V3.0.1-AUS/SDK/libs/llvm\txm_lib.lib(txm_module_system_call11.o)	#SHT_PROGBITS,,1
.debug_pubtypes	0x5d69f	0x32	../../../../Quectel_BG96_QuecOpen_SDK_Package_V3.0.1-AUS/SDK/libs/llvm\txm_lib.lib(txm_module_system_call12.o)	#SHT_PROGBITS,,1
.debug_pubtypes	0x5d6d1	0x32	../../../../Quectel_BG96_QuecOpen_SDK_Package_V3.0.1-AUS/SDK/libs/llvm\txm_lib.lib(txm_module_system_call4.o)	#SHT_PROGBITS,,1
.debug_pubtypes	0x5d703	0x32	../../../../Quectel_BG96_QuecOpen_SDK_Package_V3.0.1-AUS/SDK/libs/llvm\txm_lib.lib(txm_module_system_call5.o)	#SHT_PROGBITS,,1
.debug_pubtypes	0x5d735	0x32	../../../../Quectel_BG96_QuecOpen_SDK_Package_V3.0.1-AUS/SDK/libs/llvm\txm_lib.lib(txm_module_system_call6.o)	#SHT_PROGBITS,,1
.debug_pubtypes	0x5d767	0x32	../../../../Quectel_BG96_QuecOpen_SDK_Package_V3.0.1-AUS/SDK/libs/llvm\txm_lib.lib(txm_module_system_call7.o)	#SHT_PROGBITS,,1
.debug_pubtypes	0x5d799	0x32	../../../../Quectel_BG96_QuecOpen_SDK_Package_V3.0.1-AUS/SDK/libs/llvm\txm_lib.lib(txm_module_system_call8.o)	#SHT_PROGBITS,,1

.debug_ranges	0x5d7cb	0x0 # Offset: 0x5d7cb
*(.debug_ranges )

.gnu.attributes	0x0	0x0 # Offset: 0x5d7cb, LMA: 0x0

.note.gnu.arm.ident	0x0	0x0 # Offset: 0x5d7cb, LMA: 0x0

.ARM.attributes	0x5d7cb	0x10 # Offset: 0x5d7cb

.comment	0x5d7db	0x65 # Offset: 0x5d7db
.comment	0x5d7db	0x1	C:\Users\nikol\projects\quectel\development\customer\threadx\tools\LLVM\4.0.3\armv7m-none-eabi\libc\lib/libc.a(setlocale.o)	#SHT_PROGBITS,SHF_MERGE|SHF_STRINGS,1
.comment	0x5d818	0x28	Linker Version	#SHT_PROGBITS,SHF_MERGE|SHF_STRINGS,1

.note.GNU-stack	0x5d840	0x0 # Offset: 0x5d840

/DISCARD/	0x75	0x0 # Offset: 0x5d840, LMA: 0x0

.shstrtab	0x5d840	0xbe # Offset: 0x5d840

.symtab	0x5d900	0x17660 # Offset: 0x5d900

.strtab	0x74f60	0x12083 # Offset: 0x74f60
