# Linker from Snapdragon LLVM ARM Compiler Version 4.0.3
# Linker based on LLVM version: 4.0
# Notable linker command/script options:
# CPU Architecture Version: 
# Target triple environment for the link: gnueabi
# Maximum GP size: 8
# Link type: Static
# ABI Page Size: 0x4
# CommandLine : C:\Users\nikol\projects\quectel\development\customer\threadx\tools\LLVM\4.0.3\bin\ld.qcld.exe -X --eh-frame-hdr -m armelf_linux_eabi -dynamic-linker /lib/ld-musl-arm.so.1 -o out/ml.elf -mno-unaligned-access -entry=0x43000000 ./ldscripts/txm_module_preamble_llvm.o --wrap getchar --wrap gets --wrap printf --wrap puts --wrap malloc --wrap free --wrap realloc --wrap calloc -T ./ldscripts/sections.ld -Map=out/ml.map -gc-sections -gc-sections out/common/src/retarget.o out/common/src/malloc.o out/common/src/memalign.o out/common/src/stubs.o out/src/main.o ../../../Quectel_BG96_QuecOpen_SDK_Package_V3.0.1-AUS/SDK/libs/llvm\azure_sdk.lib ../../../Quectel_BG96_QuecOpen_SDK_Package_V3.0.1-AUS/SDK/libs/llvm\azure_sdk_port.lib ../../../Quectel_BG96_QuecOpen_SDK_Package_V3.0.1-AUS/SDK/libs/llvm\diag_dam_lib.lib ../../../Quectel_BG96_QuecOpen_SDK_Package_V3.0.1-AUS/SDK/libs/llvm\qapi_psm_lib.lib ../../../Quectel_BG96_QuecOpen_SDK_Package_V3.0.1-AUS/SDK/libs/llvm\timer_dam_lib.lib ../../../Quectel_BG96_QuecOpen_SDK_Package_V3.0.1-AUS/SDK/libs/llvm\txm_lib.lib -lm -lonnx -LC:\Users\nikol\projects\quectel\development\customer\threadx\tools\LLVM\4.0.3\armv7m-none-eabi\libc\lib -LC:\Users\nikol\projects\quectel\development\customer\threadx\tools\LLVM\4.0.3\armv7m-none-eabi\lib --start-group -lunwind -lc++ -lc++abi --end-group -LC:\Users\nikol\projects\quectel\development\customer\threadx\tools\LLVM\4.0.3\lib\clang\4.0.3\lib\baremetal --start-group -lc -lclang_rt.builtins-armv7m --end-group -lm -lc 
Archive member included because of file (symbol)
../../../Quectel_BG96_QuecOpen_SDK_Package_V3.0.1-AUS/SDK/libs/llvm\timer_dam_lib.lib(qapi_timer_user.o)
		out/src/main.o (qapi_Timer_Sleep)
../../../Quectel_BG96_QuecOpen_SDK_Package_V3.0.1-AUS/SDK/libs/llvm\txm_lib.lib(txm_module_thread_shell_entry.o)
		out/common/src/retarget.o (_txm_module_kernel_call_dispatcher)
../../../Quectel_BG96_QuecOpen_SDK_Package_V3.0.1-AUS/SDK/libs/llvm\txm_lib.lib(txm_module_callback_request_thread_entry.o)
		./ldscripts/txm_module_preamble_llvm.o (_txm_module_callback_request_thread_entry)
../../../Quectel_BG96_QuecOpen_SDK_Package_V3.0.1-AUS/SDK/libs/llvm\txm_lib.lib(txm_module_system_call11.o)
		out/common/src/retarget.o (_txm_module_system_call11)
../../../Quectel_BG96_QuecOpen_SDK_Package_V3.0.1-AUS/SDK/libs/llvm\txm_lib.lib(txm_module_system_call12.o)
		../../../Quectel_BG96_QuecOpen_SDK_Package_V3.0.1-AUS/SDK/libs/llvm\timer_dam_lib.lib(qapi_timer_user.o) (_txm_module_system_call12)
../../../Quectel_BG96_QuecOpen_SDK_Package_V3.0.1-AUS/SDK/libs/llvm\txm_lib.lib(txm_module_system_call4.o)
		out/common/src/retarget.o (_txm_module_system_call4)
../../../Quectel_BG96_QuecOpen_SDK_Package_V3.0.1-AUS/SDK/libs/llvm\txm_lib.lib(txm_module_system_call5.o)
		out/common/src/retarget.o (_txm_module_system_call5)
../../../Quectel_BG96_QuecOpen_SDK_Package_V3.0.1-AUS/SDK/libs/llvm\txm_lib.lib(txm_module_system_call6.o)
		out/common/src/retarget.o (_txm_module_system_call6)
C:\Users\nikol\projects\quectel\development\customer\threadx\workspace\apps\ml/libonnx.a(hmap.o)
		out/src/main.o (hmap_add)
C:\Users\nikol\projects\quectel\development\customer\threadx\workspace\apps\ml/libonnx.a(onnx.o)
		out/src/main.o (onnx_context_alloc)
C:\Users\nikol\projects\quectel\development\customer\threadx\workspace\apps\ml/libonnx.a(onnx.proto3.pb-c.o)
		C:\Users\nikol\projects\quectel\development\customer\threadx\workspace\apps\ml/libonnx.a(onnx.o) (onnx__model_proto__free_unpacked)
C:\Users\nikol\projects\quectel\development\customer\threadx\workspace\apps\ml/libonnx.a(Compress.o)
		C:\Users\nikol\projects\quectel\development\customer\threadx\workspace\apps\ml/libonnx.a(onnx.o) (resolver_default_op_Compress)
C:\Users\nikol\projects\quectel\development\customer\threadx\workspace\apps\ml/libonnx.a(LRN.o)
		C:\Users\nikol\projects\quectel\development\customer\threadx\workspace\apps\ml/libonnx.a(onnx.o) (resolver_default_op_LRN)
C:\Users\nikol\projects\quectel\development\customer\threadx\workspace\apps\ml/libonnx.a(Shape.o)
		C:\Users\nikol\projects\quectel\development\customer\threadx\workspace\apps\ml/libonnx.a(onnx.o) (resolver_default_op_Shape)
C:\Users\nikol\projects\quectel\development\customer\threadx\workspace\apps\ml/libonnx.a(Multinomial.o)
		C:\Users\nikol\projects\quectel\development\customer\threadx\workspace\apps\ml/libonnx.a(onnx.o) (resolver_default_op_Multinomial)
C:\Users\nikol\projects\quectel\development\customer\threadx\workspace\apps\ml/libonnx.a(ReduceL2.o)
		C:\Users\nikol\projects\quectel\development\customer\threadx\workspace\apps\ml/libonnx.a(onnx.o) (resolver_default_op_ReduceL2)
C:\Users\nikol\projects\quectel\development\customer\threadx\workspace\apps\ml/libonnx.a(Sub.o)
		C:\Users\nikol\projects\quectel\development\customer\threadx\workspace\apps\ml/libonnx.a(onnx.o) (resolver_default_op_Sub)
C:\Users\nikol\projects\quectel\development\customer\threadx\workspace\apps\ml/libonnx.a(ReduceMean.o)
		C:\Users\nikol\projects\quectel\development\customer\threadx\workspace\apps\ml/libonnx.a(onnx.o) (resolver_default_op_ReduceMean)
C:\Users\nikol\projects\quectel\development\customer\threadx\workspace\apps\ml/libonnx.a(QuantizeLinear.o)
		C:\Users\nikol\projects\quectel\development\customer\threadx\workspace\apps\ml/libonnx.a(onnx.o) (resolver_default_op_QuantizeLinear)
C:\Users\nikol\projects\quectel\development\customer\threadx\workspace\apps\ml/libonnx.a(Sin.o)
		C:\Users\nikol\projects\quectel\development\customer\threadx\workspace\apps\ml/libonnx.a(onnx.o) (resolver_default_op_Sin)
C:\Users\nikol\projects\quectel\development\customer\threadx\workspace\apps\ml/libonnx.a(SequenceAt.o)
		C:\Users\nikol\projects\quectel\development\customer\threadx\workspace\apps\ml/libonnx.a(onnx.o) (resolver_default_op_SequenceAt)
C:\Users\nikol\projects\quectel\development\customer\threadx\workspace\apps\ml/libonnx.a(GlobalLpPool.o)
		C:\Users\nikol\projects\quectel\development\customer\threadx\workspace\apps\ml/libonnx.a(onnx.o) (resolver_default_op_GlobalLpPool)
C:\Users\nikol\projects\quectel\development\customer\threadx\workspace\apps\ml/libonnx.a(AveragePool.o)
		C:\Users\nikol\projects\quectel\development\customer\threadx\workspace\apps\ml/libonnx.a(onnx.o) (resolver_default_op_AveragePool)
C:\Users\nikol\projects\quectel\development\customer\threadx\workspace\apps\ml/libonnx.a(SequenceInsert.o)
		C:\Users\nikol\projects\quectel\development\customer\threadx\workspace\apps\ml/libonnx.a(onnx.o) (resolver_default_op_SequenceInsert)
C:\Users\nikol\projects\quectel\development\customer\threadx\workspace\apps\ml/libonnx.a(RandomUniformLike.o)
		C:\Users\nikol\projects\quectel\development\customer\threadx\workspace\apps\ml/libonnx.a(onnx.o) (resolver_default_op_RandomUniformLike)
C:\Users\nikol\projects\quectel\development\customer\threadx\workspace\apps\ml/libonnx.a(Neg.o)
		C:\Users\nikol\projects\quectel\development\customer\threadx\workspace\apps\ml/libonnx.a(onnx.o) (resolver_default_op_Neg)
C:\Users\nikol\projects\quectel\development\customer\threadx\workspace\apps\ml/libonnx.a(Tan.o)
		C:\Users\nikol\projects\quectel\development\customer\threadx\workspace\apps\ml/libonnx.a(onnx.o) (resolver_default_op_Tan)
C:\Users\nikol\projects\quectel\development\customer\threadx\workspace\apps\ml/libonnx.a(Concat.o)
		C:\Users\nikol\projects\quectel\development\customer\threadx\workspace\apps\ml/libonnx.a(onnx.o) (resolver_default_op_Concat)
C:\Users\nikol\projects\quectel\development\customer\threadx\workspace\apps\ml/libonnx.a(ReduceLogSumExp.o)
		C:\Users\nikol\projects\quectel\development\customer\threadx\workspace\apps\ml/libonnx.a(onnx.o) (resolver_default_op_ReduceLogSumExp)
C:\Users\nikol\projects\quectel\development\customer\threadx\workspace\apps\ml/libonnx.a(Greater.o)
		C:\Users\nikol\projects\quectel\development\customer\threadx\workspace\apps\ml/libonnx.a(onnx.o) (resolver_default_op_Greater)
C:\Users\nikol\projects\quectel\development\customer\threadx\workspace\apps\ml/libonnx.a(Tile.o)
		C:\Users\nikol\projects\quectel\development\customer\threadx\workspace\apps\ml/libonnx.a(onnx.o) (resolver_default_op_Tile)
C:\Users\nikol\projects\quectel\development\customer\threadx\workspace\apps\ml/libonnx.a(LogSoftmax.o)
		C:\Users\nikol\projects\quectel\development\customer\threadx\workspace\apps\ml/libonnx.a(onnx.o) (resolver_default_op_LogSoftmax)
C:\Users\nikol\projects\quectel\development\customer\threadx\workspace\apps\ml/libonnx.a(LessOrEqual.o)
		C:\Users\nikol\projects\quectel\development\customer\threadx\workspace\apps\ml/libonnx.a(onnx.o) (resolver_default_op_LessOrEqual)
C:\Users\nikol\projects\quectel\development\customer\threadx\workspace\apps\ml/libonnx.a(RoiAlign.o)
		C:\Users\nikol\projects\quectel\development\customer\threadx\workspace\apps\ml/libonnx.a(onnx.o) (resolver_default_op_RoiAlign)
C:\Users\nikol\projects\quectel\development\customer\threadx\workspace\apps\ml/libonnx.a(RNN.o)
		C:\Users\nikol\projects\quectel\development\customer\threadx\workspace\apps\ml/libonnx.a(onnx.o) (resolver_default_op_RNN)
C:\Users\nikol\projects\quectel\development\customer\threadx\workspace\apps\ml/libonnx.a(Asinh.o)
		C:\Users\nikol\projects\quectel\development\customer\threadx\workspace\apps\ml/libonnx.a(onnx.o) (resolver_default_op_Asinh)
C:\Users\nikol\projects\quectel\development\customer\threadx\workspace\apps\ml/libonnx.a(MeanVarianceNormalization.o)
		C:\Users\nikol\projects\quectel\development\customer\threadx\workspace\apps\ml/libonnx.a(onnx.o) (resolver_default_op_MeanVarianceNormalization)
C:\Users\nikol\projects\quectel\development\customer\threadx\workspace\apps\ml/libonnx.a(SplitToSequence.o)
		C:\Users\nikol\projects\quectel\development\customer\threadx\workspace\apps\ml/libonnx.a(onnx.o) (resolver_default_op_SplitToSequence)
C:\Users\nikol\projects\quectel\development\customer\threadx\workspace\apps\ml/libonnx.a(QLinearMatMul.o)
		C:\Users\nikol\projects\quectel\development\customer\threadx\workspace\apps\ml/libonnx.a(onnx.o) (resolver_default_op_QLinearMatMul)
C:\Users\nikol\projects\quectel\development\customer\threadx\workspace\apps\ml/libonnx.a(OneHot.o)
		C:\Users\nikol\projects\quectel\development\customer\threadx\workspace\apps\ml/libonnx.a(onnx.o) (resolver_default_op_OneHot)
C:\Users\nikol\projects\quectel\development\customer\threadx\workspace\apps\ml/libonnx.a(GreaterOrEqual.o)
		C:\Users\nikol\projects\quectel\development\customer\threadx\workspace\apps\ml/libonnx.a(onnx.o) (resolver_default_op_GreaterOrEqual)
C:\Users\nikol\projects\quectel\development\customer\threadx\workspace\apps\ml/libonnx.a(Div.o)
		C:\Users\nikol\projects\quectel\development\customer\threadx\workspace\apps\ml/libonnx.a(onnx.o) (resolver_default_op_Div)
C:\Users\nikol\projects\quectel\development\customer\threadx\workspace\apps\ml/libonnx.a(GRU.o)
		C:\Users\nikol\projects\quectel\development\customer\threadx\workspace\apps\ml/libonnx.a(onnx.o) (resolver_default_op_GRU)
C:\Users\nikol\projects\quectel\development\customer\threadx\workspace\apps\ml/libonnx.a(Scan.o)
		C:\Users\nikol\projects\quectel\development\customer\threadx\workspace\apps\ml/libonnx.a(onnx.o) (resolver_default_op_Scan)
C:\Users\nikol\projects\quectel\development\customer\threadx\workspace\apps\ml/libonnx.a(NonMaxSuppression.o)
		C:\Users\nikol\projects\quectel\development\customer\threadx\workspace\apps\ml/libonnx.a(onnx.o) (resolver_default_op_NonMaxSuppression)
C:\Users\nikol\projects\quectel\development\customer\threadx\workspace\apps\ml/libonnx.a(Ceil.o)
		C:\Users\nikol\projects\quectel\development\customer\threadx\workspace\apps\ml/libonnx.a(onnx.o) (resolver_default_op_Ceil)
C:\Users\nikol\projects\quectel\development\customer\threadx\workspace\apps\ml/libonnx.a(PRelu.o)
		C:\Users\nikol\projects\quectel\development\customer\threadx\workspace\apps\ml/libonnx.a(onnx.o) (resolver_default_op_PRelu)
C:\Users\nikol\projects\quectel\development\customer\threadx\workspace\apps\ml/libonnx.a(HardSigmoid.o)
		C:\Users\nikol\projects\quectel\development\customer\threadx\workspace\apps\ml/libonnx.a(onnx.o) (resolver_default_op_HardSigmoid)
C:\Users\nikol\projects\quectel\development\customer\threadx\workspace\apps\ml/libonnx.a(SoftmaxCrossEntropyLoss.o)
		C:\Users\nikol\projects\quectel\development\customer\threadx\workspace\apps\ml/libonnx.a(onnx.o) (resolver_default_op_SoftmaxCrossEntropyLoss)
C:\Users\nikol\projects\quectel\development\customer\threadx\workspace\apps\ml/libonnx.a(ConcatFromSequence.o)
		C:\Users\nikol\projects\quectel\development\customer\threadx\workspace\apps\ml/libonnx.a(onnx.o) (resolver_default_op_ConcatFromSequence)
C:\Users\nikol\projects\quectel\development\customer\threadx\workspace\apps\ml/libonnx.a(ConvInteger.o)
		C:\Users\nikol\projects\quectel\development\customer\threadx\workspace\apps\ml/libonnx.a(onnx.o) (resolver_default_op_ConvInteger)
C:\Users\nikol\projects\quectel\development\customer\threadx\workspace\apps\ml/libonnx.a(Constant.o)
		C:\Users\nikol\projects\quectel\development\customer\threadx\workspace\apps\ml/libonnx.a(onnx.o) (resolver_default_op_Constant)
C:\Users\nikol\projects\quectel\development\customer\threadx\workspace\apps\ml/libonnx.a(Clip.o)
		C:\Users\nikol\projects\quectel\development\customer\threadx\workspace\apps\ml/libonnx.a(onnx.o) (resolver_default_op_Clip)
C:\Users\nikol\projects\quectel\development\customer\threadx\workspace\apps\ml/libonnx.a(Mean.o)
		C:\Users\nikol\projects\quectel\development\customer\threadx\workspace\apps\ml/libonnx.a(onnx.o) (resolver_default_op_Mean)
C:\Users\nikol\projects\quectel\development\customer\threadx\workspace\apps\ml/libonnx.a(Slice.o)
		C:\Users\nikol\projects\quectel\development\customer\threadx\workspace\apps\ml/libonnx.a(onnx.o) (resolver_default_op_Slice)
C:\Users\nikol\projects\quectel\development\customer\threadx\workspace\apps\ml/libonnx.a(Loop.o)
		C:\Users\nikol\projects\quectel\development\customer\threadx\workspace\apps\ml/libonnx.a(onnx.o) (resolver_default_op_Loop)
C:\Users\nikol\projects\quectel\development\customer\threadx\workspace\apps\ml/libonnx.a(Split.o)
		C:\Users\nikol\projects\quectel\development\customer\threadx\workspace\apps\ml/libonnx.a(onnx.o) (resolver_default_op_Split)
C:\Users\nikol\projects\quectel\development\customer\threadx\workspace\apps\ml/libonnx.a(Add.o)
		C:\Users\nikol\projects\quectel\development\customer\threadx\workspace\apps\ml/libonnx.a(onnx.o) (resolver_default_op_Add)
C:\Users\nikol\projects\quectel\development\customer\threadx\workspace\apps\ml/libonnx.a(Sinh.o)
		C:\Users\nikol\projects\quectel\development\customer\threadx\workspace\apps\ml/libonnx.a(onnx.o) (resolver_default_op_Sinh)
C:\Users\nikol\projects\quectel\development\customer\threadx\workspace\apps\ml/libonnx.a(DepthToSpace.o)
		C:\Users\nikol\projects\quectel\development\customer\threadx\workspace\apps\ml/libonnx.a(onnx.o) (resolver_default_op_DepthToSpace)
C:\Users\nikol\projects\quectel\development\customer\threadx\workspace\apps\ml/libonnx.a(Cosh.o)
		C:\Users\nikol\projects\quectel\development\customer\threadx\workspace\apps\ml/libonnx.a(onnx.o) (resolver_default_op_Cosh)
C:\Users\nikol\projects\quectel\development\customer\threadx\workspace\apps\ml/libonnx.a(Gemm.o)
		C:\Users\nikol\projects\quectel\development\customer\threadx\workspace\apps\ml/libonnx.a(onnx.o) (resolver_default_op_Gemm)
C:\Users\nikol\projects\quectel\development\customer\threadx\workspace\apps\ml/libonnx.a(RandomNormalLike.o)
		C:\Users\nikol\projects\quectel\development\customer\threadx\workspace\apps\ml/libonnx.a(onnx.o) (resolver_default_op_RandomNormalLike)
C:\Users\nikol\projects\quectel\development\customer\threadx\workspace\apps\ml/libonnx.a(TopK.o)
		C:\Users\nikol\projects\quectel\development\customer\threadx\workspace\apps\ml/libonnx.a(onnx.o) (resolver_default_op_TopK)
C:\Users\nikol\projects\quectel\development\customer\threadx\workspace\apps\ml/libonnx.a(ReduceSumSquare.o)
		C:\Users\nikol\projects\quectel\development\customer\threadx\workspace\apps\ml/libonnx.a(onnx.o) (resolver_default_op_ReduceSumSquare)
C:\Users\nikol\projects\quectel\development\customer\threadx\workspace\apps\ml/libonnx.a(Acosh.o)
		C:\Users\nikol\projects\quectel\development\customer\threadx\workspace\apps\ml/libonnx.a(onnx.o) (resolver_default_op_Acosh)
C:\Users\nikol\projects\quectel\development\customer\threadx\workspace\apps\ml/libonnx.a(DequantizeLinear.o)
		C:\Users\nikol\projects\quectel\development\customer\threadx\workspace\apps\ml/libonnx.a(onnx.o) (resolver_default_op_DequantizeLinear)
C:\Users\nikol\projects\quectel\development\customer\threadx\workspace\apps\ml/libonnx.a(Atan.o)
		C:\Users\nikol\projects\quectel\development\customer\threadx\workspace\apps\ml/libonnx.a(onnx.o) (resolver_default_op_Atan)
C:\Users\nikol\projects\quectel\development\customer\threadx\workspace\apps\ml/libonnx.a(Range.o)
		C:\Users\nikol\projects\quectel\development\customer\threadx\workspace\apps\ml/libonnx.a(onnx.o) (resolver_default_op_Range)
C:\Users\nikol\projects\quectel\development\customer\threadx\workspace\apps\ml/libonnx.a(Sum.o)
		C:\Users\nikol\projects\quectel\development\customer\threadx\workspace\apps\ml/libonnx.a(onnx.o) (resolver_default_op_Sum)
C:\Users\nikol\projects\quectel\development\customer\threadx\workspace\apps\ml/libonnx.a(Asin.o)
		C:\Users\nikol\projects\quectel\development\customer\threadx\workspace\apps\ml/libonnx.a(onnx.o) (resolver_default_op_Asin)
C:\Users\nikol\projects\quectel\development\customer\threadx\workspace\apps\ml/libonnx.a(Softplus.o)
		C:\Users\nikol\projects\quectel\development\customer\threadx\workspace\apps\ml/libonnx.a(onnx.o) (resolver_default_op_Softplus)
C:\Users\nikol\projects\quectel\development\customer\threadx\workspace\apps\ml/libonnx.a(LSTM.o)
		C:\Users\nikol\projects\quectel\development\customer\threadx\workspace\apps\ml/libonnx.a(onnx.o) (resolver_default_op_LSTM)
C:\Users\nikol\projects\quectel\development\customer\threadx\workspace\apps\ml/libonnx.a(Where.o)
		C:\Users\nikol\projects\quectel\development\customer\threadx\workspace\apps\ml/libonnx.a(onnx.o) (resolver_default_op_Where)
C:\Users\nikol\projects\quectel\development\customer\threadx\workspace\apps\ml/libonnx.a(GlobalMaxPool.o)
		C:\Users\nikol\projects\quectel\development\customer\threadx\workspace\apps\ml/libonnx.a(onnx.o) (resolver_default_op_GlobalMaxPool)
C:\Users\nikol\projects\quectel\development\customer\threadx\workspace\apps\ml/libonnx.a(Pow.o)
		C:\Users\nikol\projects\quectel\development\customer\threadx\workspace\apps\ml/libonnx.a(onnx.o) (resolver_default_op_Pow)
C:\Users\nikol\projects\quectel\development\customer\threadx\workspace\apps\ml/libonnx.a(Erf.o)
		C:\Users\nikol\projects\quectel\development\customer\threadx\workspace\apps\ml/libonnx.a(onnx.o) (resolver_default_op_Erf)
C:\Users\nikol\projects\quectel\development\customer\threadx\workspace\apps\ml/libonnx.a(GlobalAveragePool.o)
		C:\Users\nikol\projects\quectel\development\customer\threadx\workspace\apps\ml/libonnx.a(onnx.o) (resolver_default_op_GlobalAveragePool)
C:\Users\nikol\projects\quectel\development\customer\threadx\workspace\apps\ml/libonnx.a(ReduceLogSum.o)
		C:\Users\nikol\projects\quectel\development\customer\threadx\workspace\apps\ml/libonnx.a(onnx.o) (resolver_default_op_ReduceLogSum)
C:\Users\nikol\projects\quectel\development\customer\threadx\workspace\apps\ml/libonnx.a(ScatterND.o)
		C:\Users\nikol\projects\quectel\development\customer\threadx\workspace\apps\ml/libonnx.a(onnx.o) (resolver_default_op_ScatterND)
C:\Users\nikol\projects\quectel\development\customer\threadx\workspace\apps\ml/libonnx.a(Reshape.o)
		C:\Users\nikol\projects\quectel\development\customer\threadx\workspace\apps\ml/libonnx.a(onnx.o) (resolver_default_op_Reshape)
C:\Users\nikol\projects\quectel\development\customer\threadx\workspace\apps\ml/libonnx.a(Max.o)
		C:\Users\nikol\projects\quectel\development\customer\threadx\workspace\apps\ml/libonnx.a(onnx.o) (resolver_default_op_Max)
C:\Users\nikol\projects\quectel\development\customer\threadx\workspace\apps\ml/libonnx.a(Sign.o)
		C:\Users\nikol\projects\quectel\development\customer\threadx\workspace\apps\ml/libonnx.a(onnx.o) (resolver_default_op_Sign)
C:\Users\nikol\projects\quectel\development\customer\threadx\workspace\apps\ml/libonnx.a(ArgMax.o)
		C:\Users\nikol\projects\quectel\development\customer\threadx\workspace\apps\ml/libonnx.a(onnx.o) (resolver_default_op_ArgMax)
C:\Users\nikol\projects\quectel\development\customer\threadx\workspace\apps\ml/libonnx.a(ReverseSequence.o)
		C:\Users\nikol\projects\quectel\development\customer\threadx\workspace\apps\ml/libonnx.a(onnx.o) (resolver_default_op_ReverseSequence)
C:\Users\nikol\projects\quectel\development\customer\threadx\workspace\apps\ml/libonnx.a(ReduceSum.o)
		C:\Users\nikol\projects\quectel\development\customer\threadx\workspace\apps\ml/libonnx.a(onnx.o) (resolver_default_op_ReduceSum)
C:\Users\nikol\projects\quectel\development\customer\threadx\workspace\apps\ml/libonnx.a(ScatterElements.o)
		C:\Users\nikol\projects\quectel\development\customer\threadx\workspace\apps\ml/libonnx.a(onnx.o) (resolver_default_op_ScatterElements)
C:\Users\nikol\projects\quectel\development\customer\threadx\workspace\apps\ml/libonnx.a(GatherElements.o)
		C:\Users\nikol\projects\quectel\development\customer\threadx\workspace\apps\ml/libonnx.a(onnx.o) (resolver_default_op_GatherElements)
C:\Users\nikol\projects\quectel\development\customer\threadx\workspace\apps\ml/libonnx.a(MaxPool.o)
		C:\Users\nikol\projects\quectel\development\customer\threadx\workspace\apps\ml/libonnx.a(onnx.o) (resolver_default_op_MaxPool)
C:\Users\nikol\projects\quectel\development\customer\threadx\workspace\apps\ml/libonnx.a(Acos.o)
		C:\Users\nikol\projects\quectel\development\customer\threadx\workspace\apps\ml/libonnx.a(onnx.o) (resolver_default_op_Acos)
C:\Users\nikol\projects\quectel\development\customer\threadx\workspace\apps\ml/libonnx.a(Flatten.o)
		C:\Users\nikol\projects\quectel\development\customer\threadx\workspace\apps\ml/libonnx.a(onnx.o) (resolver_default_op_Flatten)
C:\Users\nikol\projects\quectel\development\customer\threadx\workspace\apps\ml/libonnx.a(Celu.o)
		C:\Users\nikol\projects\quectel\development\customer\threadx\workspace\apps\ml/libonnx.a(onnx.o) (resolver_default_op_Celu)
C:\Users\nikol\projects\quectel\development\customer\threadx\workspace\apps\ml/libonnx.a(SequenceLength.o)
		C:\Users\nikol\projects\quectel\development\customer\threadx\workspace\apps\ml/libonnx.a(onnx.o) (resolver_default_op_SequenceLength)
C:\Users\nikol\projects\quectel\development\customer\threadx\workspace\apps\ml/libonnx.a(Floor.o)
		C:\Users\nikol\projects\quectel\development\customer\threadx\workspace\apps\ml/libonnx.a(onnx.o) (resolver_default_op_Floor)
C:\Users\nikol\projects\quectel\development\customer\threadx\workspace\apps\ml/libonnx.a(ReduceProd.o)
		C:\Users\nikol\projects\quectel\development\customer\threadx\workspace\apps\ml/libonnx.a(onnx.o) (resolver_default_op_ReduceProd)
C:\Users\nikol\projects\quectel\development\customer\threadx\workspace\apps\ml/libonnx.a(Dropout.o)
		C:\Users\nikol\projects\quectel\development\customer\threadx\workspace\apps\ml/libonnx.a(onnx.o) (resolver_default_op_Dropout)
C:\Users\nikol\projects\quectel\development\customer\threadx\workspace\apps\ml/libonnx.a(Pad.o)
		C:\Users\nikol\projects\quectel\development\customer\threadx\workspace\apps\ml/libonnx.a(onnx.o) (resolver_default_op_Pad)
C:\Users\nikol\projects\quectel\development\customer\threadx\workspace\apps\ml/libonnx.a(ReduceMax.o)
		C:\Users\nikol\projects\quectel\development\customer\threadx\workspace\apps\ml/libonnx.a(onnx.o) (resolver_default_op_ReduceMax)
C:\Users\nikol\projects\quectel\development\customer\threadx\workspace\apps\ml/libonnx.a(Not.o)
		C:\Users\nikol\projects\quectel\development\customer\threadx\workspace\apps\ml/libonnx.a(onnx.o) (resolver_default_op_Not)
C:\Users\nikol\projects\quectel\development\customer\threadx\workspace\apps\ml/libonnx.a(TfIdfVectorizer.o)
		C:\Users\nikol\projects\quectel\development\customer\threadx\workspace\apps\ml/libonnx.a(onnx.o) (resolver_default_op_TfIdfVectorizer)
C:\Users\nikol\projects\quectel\development\customer\threadx\workspace\apps\ml/libonnx.a(Conv.o)
		C:\Users\nikol\projects\quectel\development\customer\threadx\workspace\apps\ml/libonnx.a(onnx.o) (resolver_default_op_Conv)
C:\Users\nikol\projects\quectel\development\customer\threadx\workspace\apps\ml/libonnx.a(SequenceErase.o)
		C:\Users\nikol\projects\quectel\development\customer\threadx\workspace\apps\ml/libonnx.a(onnx.o) (resolver_default_op_SequenceErase)
C:\Users\nikol\projects\quectel\development\customer\threadx\workspace\apps\ml/libonnx.a(Shrink.o)
		C:\Users\nikol\projects\quectel\development\customer\threadx\workspace\apps\ml/libonnx.a(onnx.o) (resolver_default_op_Shrink)
C:\Users\nikol\projects\quectel\development\customer\threadx\workspace\apps\ml/libonnx.a(LpPool.o)
		C:\Users\nikol\projects\quectel\development\customer\threadx\workspace\apps\ml/libonnx.a(onnx.o) (resolver_default_op_LpPool)
C:\Users\nikol\projects\quectel\development\customer\threadx\workspace\apps\ml/libonnx.a(Cast.o)
		C:\Users\nikol\projects\quectel\development\customer\threadx\workspace\apps\ml/libonnx.a(onnx.o) (resolver_default_op_Cast)
C:\Users\nikol\projects\quectel\development\customer\threadx\workspace\apps\ml/libonnx.a(Round.o)
		C:\Users\nikol\projects\quectel\development\customer\threadx\workspace\apps\ml/libonnx.a(onnx.o) (resolver_default_op_Round)
C:\Users\nikol\projects\quectel\development\customer\threadx\workspace\apps\ml/libonnx.a(Reciprocal.o)
		C:\Users\nikol\projects\quectel\development\customer\threadx\workspace\apps\ml/libonnx.a(onnx.o) (resolver_default_op_Reciprocal)
C:\Users\nikol\projects\quectel\development\customer\threadx\workspace\apps\ml/libonnx.a(Scatter.o)
		C:\Users\nikol\projects\quectel\development\customer\threadx\workspace\apps\ml/libonnx.a(onnx.o) (resolver_default_op_Scatter)
C:\Users\nikol\projects\quectel\development\customer\threadx\workspace\apps\ml/libonnx.a(ReduceL1.o)
		C:\Users\nikol\projects\quectel\development\customer\threadx\workspace\apps\ml/libonnx.a(onnx.o) (resolver_default_op_ReduceL1)
C:\Users\nikol\projects\quectel\development\customer\threadx\workspace\apps\ml/libonnx.a(SequenceEmpty.o)
		C:\Users\nikol\projects\quectel\development\customer\threadx\workspace\apps\ml/libonnx.a(onnx.o) (resolver_default_op_SequenceEmpty)
C:\Users\nikol\projects\quectel\development\customer\threadx\workspace\apps\ml/libonnx.a(IsInf.o)
		C:\Users\nikol\projects\quectel\development\customer\threadx\workspace\apps\ml/libonnx.a(onnx.o) (resolver_default_op_IsInf)
C:\Users\nikol\projects\quectel\development\customer\threadx\workspace\apps\ml/libonnx.a(Expand.o)
		C:\Users\nikol\projects\quectel\development\customer\threadx\workspace\apps\ml/libonnx.a(onnx.o) (resolver_default_op_Expand)
C:\Users\nikol\projects\quectel\development\customer\threadx\workspace\apps\ml/libonnx.a(Upsample.o)
		C:\Users\nikol\projects\quectel\development\customer\threadx\workspace\apps\ml/libonnx.a(onnx.o) (resolver_default_op_Upsample)
C:\Users\nikol\projects\quectel\development\customer\threadx\workspace\apps\ml/libonnx.a(Or.o)
		C:\Users\nikol\projects\quectel\development\customer\threadx\workspace\apps\ml/libonnx.a(onnx.o) (resolver_default_op_Or)
C:\Users\nikol\projects\quectel\development\customer\threadx\workspace\apps\ml/libonnx.a(Log.o)
		C:\Users\nikol\projects\quectel\development\customer\threadx\workspace\apps\ml/libonnx.a(onnx.o) (resolver_default_op_Log)
C:\Users\nikol\projects\quectel\development\customer\threadx\workspace\apps\ml/libonnx.a(EyeLike.o)
		C:\Users\nikol\projects\quectel\development\customer\threadx\workspace\apps\ml/libonnx.a(onnx.o) (resolver_default_op_EyeLike)
C:\Users\nikol\projects\quectel\development\customer\threadx\workspace\apps\ml/libonnx.a(BatchNormalization.o)
		C:\Users\nikol\projects\quectel\development\customer\threadx\workspace\apps\ml/libonnx.a(onnx.o) (resolver_default_op_BatchNormalization)
C:\Users\nikol\projects\quectel\development\customer\threadx\workspace\apps\ml/libonnx.a(ConvTranspose.o)
		C:\Users\nikol\projects\quectel\development\customer\threadx\workspace\apps\ml/libonnx.a(onnx.o) (resolver_default_op_ConvTranspose)
C:\Users\nikol\projects\quectel\development\customer\threadx\workspace\apps\ml/libonnx.a(Det.o)
		C:\Users\nikol\projects\quectel\development\customer\threadx\workspace\apps\ml/libonnx.a(onnx.o) (resolver_default_op_Det)
C:\Users\nikol\projects\quectel\development\customer\threadx\workspace\apps\ml/libonnx.a(Tanh.o)
		C:\Users\nikol\projects\quectel\development\customer\threadx\workspace\apps\ml/libonnx.a(onnx.o) (resolver_default_op_Tanh)
C:\Users\nikol\projects\quectel\development\customer\threadx\workspace\apps\ml/libonnx.a(If.o)
		C:\Users\nikol\projects\quectel\development\customer\threadx\workspace\apps\ml/libonnx.a(onnx.o) (resolver_default_op_If)
C:\Users\nikol\projects\quectel\development\customer\threadx\workspace\apps\ml/libonnx.a(NonZero.o)
		C:\Users\nikol\projects\quectel\development\customer\threadx\workspace\apps\ml/libonnx.a(onnx.o) (resolver_default_op_NonZero)
C:\Users\nikol\projects\quectel\development\customer\threadx\workspace\apps\ml/libonnx.a(SpaceToDepth.o)
		C:\Users\nikol\projects\quectel\development\customer\threadx\workspace\apps\ml/libonnx.a(onnx.o) (resolver_default_op_SpaceToDepth)
C:\Users\nikol\projects\quectel\development\customer\threadx\workspace\apps\ml/libonnx.a(ConstantOfShape.o)
		C:\Users\nikol\projects\quectel\development\customer\threadx\workspace\apps\ml/libonnx.a(onnx.o) (resolver_default_op_ConstantOfShape)
C:\Users\nikol\projects\quectel\development\customer\threadx\workspace\apps\ml/libonnx.a(StringNormalizer.o)
		C:\Users\nikol\projects\quectel\development\customer\threadx\workspace\apps\ml/libonnx.a(onnx.o) (resolver_default_op_StringNormalizer)
C:\Users\nikol\projects\quectel\development\customer\threadx\workspace\apps\ml/libonnx.a(Unique.o)
		C:\Users\nikol\projects\quectel\development\customer\threadx\workspace\apps\ml/libonnx.a(onnx.o) (resolver_default_op_Unique)
C:\Users\nikol\projects\quectel\development\customer\threadx\workspace\apps\ml/libonnx.a(Xor.o)
		C:\Users\nikol\projects\quectel\development\customer\threadx\workspace\apps\ml/libonnx.a(onnx.o) (resolver_default_op_Xor)
C:\Users\nikol\projects\quectel\development\customer\threadx\workspace\apps\ml/libonnx.a(Size.o)
		C:\Users\nikol\projects\quectel\development\customer\threadx\workspace\apps\ml/libonnx.a(onnx.o) (resolver_default_op_Size)
C:\Users\nikol\projects\quectel\development\customer\threadx\workspace\apps\ml/libonnx.a(And.o)
		C:\Users\nikol\projects\quectel\development\customer\threadx\workspace\apps\ml/libonnx.a(onnx.o) (resolver_default_op_And)
C:\Users\nikol\projects\quectel\development\customer\threadx\workspace\apps\ml/libonnx.a(MaxRoiPool.o)
		C:\Users\nikol\projects\quectel\development\customer\threadx\workspace\apps\ml/libonnx.a(onnx.o) (resolver_default_op_MaxRoiPool)
C:\Users\nikol\projects\quectel\development\customer\threadx\workspace\apps\ml/libonnx.a(IsNaN.o)
		C:\Users\nikol\projects\quectel\development\customer\threadx\workspace\apps\ml/libonnx.a(onnx.o) (resolver_default_op_IsNaN)
C:\Users\nikol\projects\quectel\development\customer\threadx\workspace\apps\ml/libonnx.a(LpNormalization.o)
		C:\Users\nikol\projects\quectel\development\customer\threadx\workspace\apps\ml/libonnx.a(onnx.o) (resolver_default_op_LpNormalization)
C:\Users\nikol\projects\quectel\development\customer\threadx\workspace\apps\ml/libonnx.a(Sqrt.o)
		C:\Users\nikol\projects\quectel\development\customer\threadx\workspace\apps\ml/libonnx.a(onnx.o) (resolver_default_op_Sqrt)
C:\Users\nikol\projects\quectel\development\customer\threadx\workspace\apps\ml/libonnx.a(ThresholdedRelu.o)
		C:\Users\nikol\projects\quectel\development\customer\threadx\workspace\apps\ml/libonnx.a(onnx.o) (resolver_default_op_ThresholdedRelu)
C:\Users\nikol\projects\quectel\development\customer\threadx\workspace\apps\ml/libonnx.a(Selu.o)
		C:\Users\nikol\projects\quectel\development\customer\threadx\workspace\apps\ml/libonnx.a(onnx.o) (resolver_default_op_Selu)
C:\Users\nikol\projects\quectel\development\customer\threadx\workspace\apps\ml/libonnx.a(Resize.o)
		C:\Users\nikol\projects\quectel\development\customer\threadx\workspace\apps\ml/libonnx.a(onnx.o) (resolver_default_op_Resize)
C:\Users\nikol\projects\quectel\development\customer\threadx\workspace\apps\ml/libonnx.a(LeakyRelu.o)
		C:\Users\nikol\projects\quectel\development\customer\threadx\workspace\apps\ml/libonnx.a(onnx.o) (resolver_default_op_LeakyRelu)
C:\Users\nikol\projects\quectel\development\customer\threadx\workspace\apps\ml/libonnx.a(Transpose.o)
		C:\Users\nikol\projects\quectel\development\customer\threadx\workspace\apps\ml/libonnx.a(onnx.o) (resolver_default_op_Transpose)
C:\Users\nikol\projects\quectel\development\customer\threadx\workspace\apps\ml/libonnx.a(Mod.o)
		C:\Users\nikol\projects\quectel\development\customer\threadx\workspace\apps\ml/libonnx.a(onnx.o) (resolver_default_op_Mod)
C:\Users\nikol\projects\quectel\development\customer\threadx\workspace\apps\ml/libonnx.a(InstanceNormalization.o)
		C:\Users\nikol\projects\quectel\development\customer\threadx\workspace\apps\ml/libonnx.a(onnx.o) (resolver_default_op_InstanceNormalization)
C:\Users\nikol\projects\quectel\development\customer\threadx\workspace\apps\ml/libonnx.a(Unsqueeze.o)
		C:\Users\nikol\projects\quectel\development\customer\threadx\workspace\apps\ml/libonnx.a(onnx.o) (resolver_default_op_Unsqueeze)
C:\Users\nikol\projects\quectel\development\customer\threadx\workspace\apps\ml/libonnx.a(Atanh.o)
		C:\Users\nikol\projects\quectel\development\customer\threadx\workspace\apps\ml/libonnx.a(onnx.o) (resolver_default_op_Atanh)
C:\Users\nikol\projects\quectel\development\customer\threadx\workspace\apps\ml/libonnx.a(Softsign.o)
		C:\Users\nikol\projects\quectel\development\customer\threadx\workspace\apps\ml/libonnx.a(onnx.o) (resolver_default_op_Softsign)
C:\Users\nikol\projects\quectel\development\customer\threadx\workspace\apps\ml/libonnx.a(Softmax.o)
		C:\Users\nikol\projects\quectel\development\customer\threadx\workspace\apps\ml/libonnx.a(onnx.o) (resolver_default_op_Softmax)
C:\Users\nikol\projects\quectel\development\customer\threadx\workspace\apps\ml/libonnx.a(NegativeLogLikelihoodLoss.o)
		C:\Users\nikol\projects\quectel\development\customer\threadx\workspace\apps\ml/libonnx.a(onnx.o) (resolver_default_op_NegativeLogLikelihoodLoss)
C:\Users\nikol\projects\quectel\development\customer\threadx\workspace\apps\ml/libonnx.a(Min.o)
		C:\Users\nikol\projects\quectel\development\customer\threadx\workspace\apps\ml/libonnx.a(onnx.o) (resolver_default_op_Min)
C:\Users\nikol\projects\quectel\development\customer\threadx\workspace\apps\ml/libonnx.a(MatMulInteger.o)
		C:\Users\nikol\projects\quectel\development\customer\threadx\workspace\apps\ml/libonnx.a(onnx.o) (resolver_default_op_MatMulInteger)
C:\Users\nikol\projects\quectel\development\customer\threadx\workspace\apps\ml/libonnx.a(Cos.o)
		C:\Users\nikol\projects\quectel\development\customer\threadx\workspace\apps\ml/libonnx.a(onnx.o) (resolver_default_op_Cos)
C:\Users\nikol\projects\quectel\development\customer\threadx\workspace\apps\ml/libonnx.a(ArgMin.o)
		C:\Users\nikol\projects\quectel\development\customer\threadx\workspace\apps\ml/libonnx.a(onnx.o) (resolver_default_op_ArgMin)
C:\Users\nikol\projects\quectel\development\customer\threadx\workspace\apps\ml/libonnx.a(Relu.o)
		C:\Users\nikol\projects\quectel\development\customer\threadx\workspace\apps\ml/libonnx.a(onnx.o) (resolver_default_op_Relu)
C:\Users\nikol\projects\quectel\development\customer\threadx\workspace\apps\ml/libonnx.a(MaxUnpool.o)
		C:\Users\nikol\projects\quectel\development\customer\threadx\workspace\apps\ml/libonnx.a(onnx.o) (resolver_default_op_MaxUnpool)
C:\Users\nikol\projects\quectel\development\customer\threadx\workspace\apps\ml/libonnx.a(Exp.o)
		C:\Users\nikol\projects\quectel\development\customer\threadx\workspace\apps\ml/libonnx.a(onnx.o) (resolver_default_op_Exp)
C:\Users\nikol\projects\quectel\development\customer\threadx\workspace\apps\ml/libonnx.a(Equal.o)
		C:\Users\nikol\projects\quectel\development\customer\threadx\workspace\apps\ml/libonnx.a(onnx.o) (resolver_default_op_Equal)
C:\Users\nikol\projects\quectel\development\customer\threadx\workspace\apps\ml/libonnx.a(Squeeze.o)
		C:\Users\nikol\projects\quectel\development\customer\threadx\workspace\apps\ml/libonnx.a(onnx.o) (resolver_default_op_Squeeze)
C:\Users\nikol\projects\quectel\development\customer\threadx\workspace\apps\ml/libonnx.a(Hardmax.o)
		C:\Users\nikol\projects\quectel\development\customer\threadx\workspace\apps\ml/libonnx.a(onnx.o) (resolver_default_op_Hardmax)
C:\Users\nikol\projects\quectel\development\customer\threadx\workspace\apps\ml/libonnx.a(Sigmoid.o)
		C:\Users\nikol\projects\quectel\development\customer\threadx\workspace\apps\ml/libonnx.a(onnx.o) (resolver_default_op_Sigmoid)
C:\Users\nikol\projects\quectel\development\customer\threadx\workspace\apps\ml/libonnx.a(GatherND.o)
		C:\Users\nikol\projects\quectel\development\customer\threadx\workspace\apps\ml/libonnx.a(onnx.o) (resolver_default_op_GatherND)
C:\Users\nikol\projects\quectel\development\customer\threadx\workspace\apps\ml/libonnx.a(Less.o)
		C:\Users\nikol\projects\quectel\development\customer\threadx\workspace\apps\ml/libonnx.a(onnx.o) (resolver_default_op_Less)
C:\Users\nikol\projects\quectel\development\customer\threadx\workspace\apps\ml/libonnx.a(Abs.o)
		C:\Users\nikol\projects\quectel\development\customer\threadx\workspace\apps\ml/libonnx.a(onnx.o) (resolver_default_op_Abs)
C:\Users\nikol\projects\quectel\development\customer\threadx\workspace\apps\ml/libonnx.a(ReduceMin.o)
		C:\Users\nikol\projects\quectel\development\customer\threadx\workspace\apps\ml/libonnx.a(onnx.o) (resolver_default_op_ReduceMin)
C:\Users\nikol\projects\quectel\development\customer\threadx\workspace\apps\ml/libonnx.a(RandomNormal.o)
		C:\Users\nikol\projects\quectel\development\customer\threadx\workspace\apps\ml/libonnx.a(onnx.o) (resolver_default_op_RandomNormal)
C:\Users\nikol\projects\quectel\development\customer\threadx\workspace\apps\ml/libonnx.a(BitShift.o)
		C:\Users\nikol\projects\quectel\development\customer\threadx\workspace\apps\ml/libonnx.a(onnx.o) (resolver_default_op_BitShift)
C:\Users\nikol\projects\quectel\development\customer\threadx\workspace\apps\ml/libonnx.a(Einsum.o)
		C:\Users\nikol\projects\quectel\development\customer\threadx\workspace\apps\ml/libonnx.a(onnx.o) (resolver_default_op_Einsum)
C:\Users\nikol\projects\quectel\development\customer\threadx\workspace\apps\ml/libonnx.a(QLinearConv.o)
		C:\Users\nikol\projects\quectel\development\customer\threadx\workspace\apps\ml/libonnx.a(onnx.o) (resolver_default_op_QLinearConv)
C:\Users\nikol\projects\quectel\development\customer\threadx\workspace\apps\ml/libonnx.a(RandomUniform.o)
		C:\Users\nikol\projects\quectel\development\customer\threadx\workspace\apps\ml/libonnx.a(onnx.o) (resolver_default_op_RandomUniform)
C:\Users\nikol\projects\quectel\development\customer\threadx\workspace\apps\ml/libonnx.a(DynamicQuantizeLinear.o)
		C:\Users\nikol\projects\quectel\development\customer\threadx\workspace\apps\ml/libonnx.a(onnx.o) (resolver_default_op_DynamicQuantizeLinear)
C:\Users\nikol\projects\quectel\development\customer\threadx\workspace\apps\ml/libonnx.a(Identity.o)
		C:\Users\nikol\projects\quectel\development\customer\threadx\workspace\apps\ml/libonnx.a(onnx.o) (resolver_default_op_Identity)
C:\Users\nikol\projects\quectel\development\customer\threadx\workspace\apps\ml/libonnx.a(MatMul.o)
		C:\Users\nikol\projects\quectel\development\customer\threadx\workspace\apps\ml/libonnx.a(onnx.o) (resolver_default_op_MatMul)
C:\Users\nikol\projects\quectel\development\customer\threadx\workspace\apps\ml/libonnx.a(Mul.o)
		C:\Users\nikol\projects\quectel\development\customer\threadx\workspace\apps\ml/libonnx.a(onnx.o) (resolver_default_op_Mul)
C:\Users\nikol\projects\quectel\development\customer\threadx\workspace\apps\ml/libonnx.a(SequenceConstruct.o)
		C:\Users\nikol\projects\quectel\development\customer\threadx\workspace\apps\ml/libonnx.a(onnx.o) (resolver_default_op_SequenceConstruct)
C:\Users\nikol\projects\quectel\development\customer\threadx\workspace\apps\ml/libonnx.a(CumSum.o)
		C:\Users\nikol\projects\quectel\development\customer\threadx\workspace\apps\ml/libonnx.a(onnx.o) (resolver_default_op_CumSum)
C:\Users\nikol\projects\quectel\development\customer\threadx\workspace\apps\ml/libonnx.a(Elu.o)
		C:\Users\nikol\projects\quectel\development\customer\threadx\workspace\apps\ml/libonnx.a(onnx.o) (resolver_default_op_Elu)
C:\Users\nikol\projects\quectel\development\customer\threadx\workspace\apps\ml/libonnx.a(Gather.o)
		C:\Users\nikol\projects\quectel\development\customer\threadx\workspace\apps\ml/libonnx.a(onnx.o) (resolver_default_op_Gather)
C:\Users\nikol\projects\quectel\development\customer\threadx\workspace\apps\ml/libonnx.a(protobuf-c.o)
		C:\Users\nikol\projects\quectel\development\customer\threadx\workspace\apps\ml/libonnx.a(onnx.proto3.pb-c.o) (protobuf_c_empty_string)
C:\Users\nikol\projects\quectel\development\customer\threadx\tools\LLVM\4.0.3\armv7m-none-eabi\libc\lib/libc.a(__errno_location.o)
		out/common/src/memalign.o (__errno_location)
C:\Users\nikol\projects\quectel\development\customer\threadx\tools\LLVM\4.0.3\armv7m-none-eabi\libc\lib/libc.a(assert.o)
		C:\Users\nikol\projects\quectel\development\customer\threadx\workspace\apps\ml/libonnx.a(onnx.proto3.pb-c.o) (__assert_fail)
C:\Users\nikol\projects\quectel\development\customer\threadx\tools\LLVM\4.0.3\armv7m-none-eabi\libc\lib/libc.a(acos.o)
		C:\Users\nikol\projects\quectel\development\customer\threadx\workspace\apps\ml/libonnx.a(Acos.o) (acos)
C:\Users\nikol\projects\quectel\development\customer\threadx\tools\LLVM\4.0.3\armv7m-none-eabi\libc\lib/libc.a(acosf.o)
		C:\Users\nikol\projects\quectel\development\customer\threadx\workspace\apps\ml/libonnx.a(Acos.o) (acosf)
C:\Users\nikol\projects\quectel\development\customer\threadx\tools\LLVM\4.0.3\armv7m-none-eabi\libc\lib/libc.a(acosh.o)
		C:\Users\nikol\projects\quectel\development\customer\threadx\workspace\apps\ml/libonnx.a(Acosh.o) (acosh)
C:\Users\nikol\projects\quectel\development\customer\threadx\tools\LLVM\4.0.3\armv7m-none-eabi\libc\lib/libc.a(acoshf.o)
		C:\Users\nikol\projects\quectel\development\customer\threadx\workspace\apps\ml/libonnx.a(Acosh.o) (acoshf)
C:\Users\nikol\projects\quectel\development\customer\threadx\tools\LLVM\4.0.3\armv7m-none-eabi\libc\lib/libc.a(sqrt.o)
		C:\Users\nikol\projects\quectel\development\customer\threadx\workspace\apps\ml/libonnx.a(ReduceL2.o) (sqrt)
C:\Users\nikol\projects\quectel\development\customer\threadx\tools\LLVM\4.0.3\armv7m-none-eabi\libc\lib/libc.a(sqrtf.o)
		C:\Users\nikol\projects\quectel\development\customer\threadx\workspace\apps\ml/libonnx.a(ReduceL2.o) (sqrtf)
C:\Users\nikol\projects\quectel\development\customer\threadx\tools\LLVM\4.0.3\armv7m-none-eabi\libc\lib/libc.a(asin.o)
		C:\Users\nikol\projects\quectel\development\customer\threadx\workspace\apps\ml/libonnx.a(Asin.o) (asin)
C:\Users\nikol\projects\quectel\development\customer\threadx\tools\LLVM\4.0.3\armv7m-none-eabi\libc\lib/libc.a(asinf.o)
		C:\Users\nikol\projects\quectel\development\customer\threadx\workspace\apps\ml/libonnx.a(Asin.o) (asinf)
C:\Users\nikol\projects\quectel\development\customer\threadx\tools\LLVM\4.0.3\armv7m-none-eabi\libc\lib/libc.a(asinh.o)
		C:\Users\nikol\projects\quectel\development\customer\threadx\workspace\apps\ml/libonnx.a(Asinh.o) (asinh)
C:\Users\nikol\projects\quectel\development\customer\threadx\tools\LLVM\4.0.3\armv7m-none-eabi\libc\lib/libc.a(asinhf.o)
		C:\Users\nikol\projects\quectel\development\customer\threadx\workspace\apps\ml/libonnx.a(Asinh.o) (asinhf)
C:\Users\nikol\projects\quectel\development\customer\threadx\tools\LLVM\4.0.3\armv7m-none-eabi\libc\lib/libc.a(atan.o)
		C:\Users\nikol\projects\quectel\development\customer\threadx\workspace\apps\ml/libonnx.a(Atan.o) (atan)
C:\Users\nikol\projects\quectel\development\customer\threadx\tools\LLVM\4.0.3\armv7m-none-eabi\libc\lib/libc.a(atanf.o)
		C:\Users\nikol\projects\quectel\development\customer\threadx\workspace\apps\ml/libonnx.a(Atan.o) (atanf)
C:\Users\nikol\projects\quectel\development\customer\threadx\tools\LLVM\4.0.3\armv7m-none-eabi\libc\lib/libc.a(atanh.o)
		C:\Users\nikol\projects\quectel\development\customer\threadx\workspace\apps\ml/libonnx.a(Atanh.o) (atanh)
C:\Users\nikol\projects\quectel\development\customer\threadx\tools\LLVM\4.0.3\armv7m-none-eabi\libc\lib/libc.a(atanhf.o)
		C:\Users\nikol\projects\quectel\development\customer\threadx\workspace\apps\ml/libonnx.a(Atanh.o) (atanhf)
C:\Users\nikol\projects\quectel\development\customer\threadx\tools\LLVM\4.0.3\armv7m-none-eabi\libc\lib/libc.a(ceil.o)
		C:\Users\nikol\projects\quectel\development\customer\threadx\workspace\apps\ml/libonnx.a(Ceil.o) (ceil)
C:\Users\nikol\projects\quectel\development\customer\threadx\tools\LLVM\4.0.3\armv7m-none-eabi\libc\lib/libc.a(ceilf.o)
		C:\Users\nikol\projects\quectel\development\customer\threadx\workspace\apps\ml/libonnx.a(AveragePool.o) (ceilf)
C:\Users\nikol\projects\quectel\development\customer\threadx\tools\LLVM\4.0.3\armv7m-none-eabi\libc\lib/libc.a(cos.o)
		C:\Users\nikol\projects\quectel\development\customer\threadx\workspace\apps\ml/libonnx.a(RandomNormalLike.o) (cos)
C:\Users\nikol\projects\quectel\development\customer\threadx\tools\LLVM\4.0.3\armv7m-none-eabi\libc\lib/libc.a(cosf.o)
		C:\Users\nikol\projects\quectel\development\customer\threadx\workspace\apps\ml/libonnx.a(RandomNormalLike.o) (cosf)
C:\Users\nikol\projects\quectel\development\customer\threadx\tools\LLVM\4.0.3\armv7m-none-eabi\libc\lib/libc.a(cosh.o)
		C:\Users\nikol\projects\quectel\development\customer\threadx\workspace\apps\ml/libonnx.a(Cosh.o) (cosh)
C:\Users\nikol\projects\quectel\development\customer\threadx\tools\LLVM\4.0.3\armv7m-none-eabi\libc\lib/libc.a(coshf.o)
		C:\Users\nikol\projects\quectel\development\customer\threadx\workspace\apps\ml/libonnx.a(Cosh.o) (coshf)
C:\Users\nikol\projects\quectel\development\customer\threadx\tools\LLVM\4.0.3\armv7m-none-eabi\libc\lib/libc.a(erf.o)
		C:\Users\nikol\projects\quectel\development\customer\threadx\workspace\apps\ml/libonnx.a(Erf.o) (erf)
C:\Users\nikol\projects\quectel\development\customer\threadx\tools\LLVM\4.0.3\armv7m-none-eabi\libc\lib/libc.a(erff.o)
		C:\Users\nikol\projects\quectel\development\customer\threadx\workspace\apps\ml/libonnx.a(Erf.o) (erff)
C:\Users\nikol\projects\quectel\development\customer\threadx\tools\LLVM\4.0.3\armv7m-none-eabi\libc\lib/libc.a(exp.o)
		C:\Users\nikol\projects\quectel\development\customer\threadx\workspace\apps\ml/libonnx.a(ReduceLogSumExp.o) (exp)
C:\Users\nikol\projects\quectel\development\customer\threadx\tools\LLVM\4.0.3\armv7m-none-eabi\libc\lib/libc.a(expf.o)
		C:\Users\nikol\projects\quectel\development\customer\threadx\workspace\apps\ml/libonnx.a(ReduceLogSumExp.o) (expf)
C:\Users\nikol\projects\quectel\development\customer\threadx\tools\LLVM\4.0.3\armv7m-none-eabi\libc\lib/libc.a(expm1.o)
		C:\Users\nikol\projects\quectel\development\customer\threadx\tools\LLVM\4.0.3\armv7m-none-eabi\libc\lib/libc.a(cosh.o) (expm1)
C:\Users\nikol\projects\quectel\development\customer\threadx\tools\LLVM\4.0.3\armv7m-none-eabi\libc\lib/libc.a(expm1f.o)
		C:\Users\nikol\projects\quectel\development\customer\threadx\tools\LLVM\4.0.3\armv7m-none-eabi\libc\lib/libc.a(coshf.o) (expm1f)
C:\Users\nikol\projects\quectel\development\customer\threadx\tools\LLVM\4.0.3\armv7m-none-eabi\libc\lib/libc.a(floor.o)
		C:\Users\nikol\projects\quectel\development\customer\threadx\workspace\apps\ml/libonnx.a(Floor.o) (floor)
C:\Users\nikol\projects\quectel\development\customer\threadx\tools\LLVM\4.0.3\armv7m-none-eabi\libc\lib/libc.a(floorf.o)
		C:\Users\nikol\projects\quectel\development\customer\threadx\workspace\apps\ml/libonnx.a(AveragePool.o) (floorf)
C:\Users\nikol\projects\quectel\development\customer\threadx\tools\LLVM\4.0.3\armv7m-none-eabi\libc\lib/libc.a(fmax.o)
		C:\Users\nikol\projects\quectel\development\customer\threadx\workspace\apps\ml/libonnx.a(Range.o) (fmax)
C:\Users\nikol\projects\quectel\development\customer\threadx\tools\LLVM\4.0.3\armv7m-none-eabi\libc\lib/libc.a(fmaxf.o)
		C:\Users\nikol\projects\quectel\development\customer\threadx\workspace\apps\ml/libonnx.a(GlobalMaxPool.o) (fmaxf)
C:\Users\nikol\projects\quectel\development\customer\threadx\tools\LLVM\4.0.3\armv7m-none-eabi\libc\lib/libc.a(fmod.o)
		C:\Users\nikol\projects\quectel\development\customer\threadx\workspace\apps\ml/libonnx.a(Mod.o) (fmod)
C:\Users\nikol\projects\quectel\development\customer\threadx\tools\LLVM\4.0.3\armv7m-none-eabi\libc\lib/libc.a(fmodf.o)
		C:\Users\nikol\projects\quectel\development\customer\threadx\workspace\apps\ml/libonnx.a(Mod.o) (fmodf)
C:\Users\nikol\projects\quectel\development\customer\threadx\tools\LLVM\4.0.3\armv7m-none-eabi\libc\lib/libc.a(log.o)
		C:\Users\nikol\projects\quectel\development\customer\threadx\workspace\apps\ml/libonnx.a(ReduceLogSumExp.o) (log)
C:\Users\nikol\projects\quectel\development\customer\threadx\tools\LLVM\4.0.3\armv7m-none-eabi\libc\lib/libc.a(log1p.o)
		C:\Users\nikol\projects\quectel\development\customer\threadx\tools\LLVM\4.0.3\armv7m-none-eabi\libc\lib/libc.a(acosh.o) (log1p)
C:\Users\nikol\projects\quectel\development\customer\threadx\tools\LLVM\4.0.3\armv7m-none-eabi\libc\lib/libc.a(log1pf.o)
		C:\Users\nikol\projects\quectel\development\customer\threadx\tools\LLVM\4.0.3\armv7m-none-eabi\libc\lib/libc.a(acoshf.o) (log1pf)
C:\Users\nikol\projects\quectel\development\customer\threadx\tools\LLVM\4.0.3\armv7m-none-eabi\libc\lib/libc.a(logf.o)
		C:\Users\nikol\projects\quectel\development\customer\threadx\workspace\apps\ml/libonnx.a(ReduceLogSumExp.o) (logf)
C:\Users\nikol\projects\quectel\development\customer\threadx\tools\LLVM\4.0.3\armv7m-none-eabi\libc\lib/libc.a(nearbyint.o)
		C:\Users\nikol\projects\quectel\development\customer\threadx\workspace\apps\ml/libonnx.a(Round.o) (nearbyint)
C:\Users\nikol\projects\quectel\development\customer\threadx\tools\LLVM\4.0.3\armv7m-none-eabi\libc\lib/libc.a(pow.o)
		C:\Users\nikol\projects\quectel\development\customer\threadx\workspace\apps\ml/libonnx.a(LRN.o) (pow)
C:\Users\nikol\projects\quectel\development\customer\threadx\tools\LLVM\4.0.3\armv7m-none-eabi\libc\lib/libc.a(powf.o)
		C:\Users\nikol\projects\quectel\development\customer\threadx\workspace\apps\ml/libonnx.a(LRN.o) (powf)
C:\Users\nikol\projects\quectel\development\customer\threadx\tools\LLVM\4.0.3\armv7m-none-eabi\libc\lib/libc.a(rint.o)
		C:\Users\nikol\projects\quectel\development\customer\threadx\tools\LLVM\4.0.3\armv7m-none-eabi\libc\lib/libc.a(nearbyint.o) (rint)
C:\Users\nikol\projects\quectel\development\customer\threadx\tools\LLVM\4.0.3\armv7m-none-eabi\libc\lib/libc.a(rintf.o)
		C:\Users\nikol\projects\quectel\development\customer\threadx\workspace\apps\ml/libonnx.a(Round.o) (rintf)
C:\Users\nikol\projects\quectel\development\customer\threadx\tools\LLVM\4.0.3\armv7m-none-eabi\libc\lib/libc.a(scalbn.o)
		C:\Users\nikol\projects\quectel\development\customer\threadx\tools\LLVM\4.0.3\armv7m-none-eabi\libc\lib/libc.a(exp.o) (scalbn)
C:\Users\nikol\projects\quectel\development\customer\threadx\tools\LLVM\4.0.3\armv7m-none-eabi\libc\lib/libc.a(scalbnf.o)
		C:\Users\nikol\projects\quectel\development\customer\threadx\tools\LLVM\4.0.3\armv7m-none-eabi\libc\lib/libc.a(expf.o) (scalbnf)
C:\Users\nikol\projects\quectel\development\customer\threadx\tools\LLVM\4.0.3\armv7m-none-eabi\libc\lib/libc.a(sin.o)
		C:\Users\nikol\projects\quectel\development\customer\threadx\workspace\apps\ml/libonnx.a(Sin.o) (sin)
C:\Users\nikol\projects\quectel\development\customer\threadx\tools\LLVM\4.0.3\armv7m-none-eabi\libc\lib/libc.a(sinf.o)
		C:\Users\nikol\projects\quectel\development\customer\threadx\workspace\apps\ml/libonnx.a(Sin.o) (sinf)
C:\Users\nikol\projects\quectel\development\customer\threadx\tools\LLVM\4.0.3\armv7m-none-eabi\libc\lib/libc.a(sinh.o)
		C:\Users\nikol\projects\quectel\development\customer\threadx\workspace\apps\ml/libonnx.a(Sinh.o) (sinh)
C:\Users\nikol\projects\quectel\development\customer\threadx\tools\LLVM\4.0.3\armv7m-none-eabi\libc\lib/libc.a(sinhf.o)
		C:\Users\nikol\projects\quectel\development\customer\threadx\workspace\apps\ml/libonnx.a(Sinh.o) (sinhf)
C:\Users\nikol\projects\quectel\development\customer\threadx\tools\LLVM\4.0.3\armv7m-none-eabi\libc\lib/libc.a(tan.o)
		C:\Users\nikol\projects\quectel\development\customer\threadx\workspace\apps\ml/libonnx.a(Tan.o) (tan)
C:\Users\nikol\projects\quectel\development\customer\threadx\tools\LLVM\4.0.3\armv7m-none-eabi\libc\lib/libc.a(tanf.o)
		C:\Users\nikol\projects\quectel\development\customer\threadx\workspace\apps\ml/libonnx.a(Tan.o) (tanf)
C:\Users\nikol\projects\quectel\development\customer\threadx\tools\LLVM\4.0.3\armv7m-none-eabi\libc\lib/libc.a(tanh.o)
		C:\Users\nikol\projects\quectel\development\customer\threadx\workspace\apps\ml/libonnx.a(Tanh.o) (tanh)
C:\Users\nikol\projects\quectel\development\customer\threadx\tools\LLVM\4.0.3\armv7m-none-eabi\libc\lib/libc.a(tanhf.o)
		C:\Users\nikol\projects\quectel\development\customer\threadx\workspace\apps\ml/libonnx.a(Tanh.o) (tanhf)
C:\Users\nikol\projects\quectel\development\customer\threadx\tools\LLVM\4.0.3\armv7m-none-eabi\libc\lib/libc.a(rand.o)
		C:\Users\nikol\projects\quectel\development\customer\threadx\workspace\apps\ml/libonnx.a(Multinomial.o) (srand)
C:\Users\nikol\projects\quectel\development\customer\threadx\tools\LLVM\4.0.3\armv7m-none-eabi\libc\lib/libc.a(fopen.o)
		C:\Users\nikol\projects\quectel\development\customer\threadx\workspace\apps\ml/libonnx.a(onnx.o) (fopen)
C:\Users\nikol\projects\quectel\development\customer\threadx\tools\LLVM\4.0.3\armv7m-none-eabi\libc\lib/libc.a(vfprintf.o)
		out/common/src/retarget.o (vsnprintf)
C:\Users\nikol\projects\quectel\development\customer\threadx\tools\LLVM\4.0.3\armv7m-none-eabi\libc\lib/libc.a(fclose.o)
		C:\Users\nikol\projects\quectel\development\customer\threadx\workspace\apps\ml/libonnx.a(onnx.o) (fclose)
C:\Users\nikol\projects\quectel\development\customer\threadx\tools\LLVM\4.0.3\armv7m-none-eabi\libc\lib/libc.a(fflush.o)
		C:\Users\nikol\projects\quectel\development\customer\threadx\tools\LLVM\4.0.3\armv7m-none-eabi\libc\lib/libc.a(assert.o) (fflush)
C:\Users\nikol\projects\quectel\development\customer\threadx\tools\LLVM\4.0.3\armv7m-none-eabi\libc\lib/libc.a(fprintf.o)
		C:\Users\nikol\projects\quectel\development\customer\threadx\tools\LLVM\4.0.3\armv7m-none-eabi\libc\lib/libc.a(assert.o) (fprintf)
C:\Users\nikol\projects\quectel\development\customer\threadx\tools\LLVM\4.0.3\armv7m-none-eabi\libc\lib/libc.a(fread.o)
		C:\Users\nikol\projects\quectel\development\customer\threadx\workspace\apps\ml/libonnx.a(onnx.o) (fread)
C:\Users\nikol\projects\quectel\development\customer\threadx\tools\LLVM\4.0.3\armv7m-none-eabi\libc\lib/libc.a(fseek.o)
		C:\Users\nikol\projects\quectel\development\customer\threadx\workspace\apps\ml/libonnx.a(onnx.o) (fseek)
C:\Users\nikol\projects\quectel\development\customer\threadx\tools\LLVM\4.0.3\armv7m-none-eabi\libc\lib/libc.a(ftell.o)
		C:\Users\nikol\projects\quectel\development\customer\threadx\workspace\apps\ml/libonnx.a(onnx.o) (ftell)
C:\Users\nikol\projects\quectel\development\customer\threadx\tools\LLVM\4.0.3\armv7m-none-eabi\libc\lib/libc.a(fwrite.o)
		C:\Users\nikol\projects\quectel\development\customer\threadx\tools\LLVM\4.0.3\armv7m-none-eabi\libc\lib/libc.a(vfprintf.o) (__fwritex)
C:\Users\nikol\projects\quectel\development\customer\threadx\tools\LLVM\4.0.3\armv7m-none-eabi\libc\lib/libc.a(sprintf.o)
		out/src/main.o (sprintf)
C:\Users\nikol\projects\quectel\development\customer\threadx\tools\LLVM\4.0.3\armv7m-none-eabi\libc\lib/libc.a(stderr.o)
		C:\Users\nikol\projects\quectel\development\customer\threadx\tools\LLVM\4.0.3\armv7m-none-eabi\libc\lib/libc.a(assert.o) (stderr)
C:\Users\nikol\projects\quectel\development\customer\threadx\tools\LLVM\4.0.3\armv7m-none-eabi\libc\lib/libc.a(vsnprintf.o)
		C:\Users\nikol\projects\quectel\development\customer\threadx\tools\LLVM\4.0.3\armv7m-none-eabi\libc\lib/libc.a(vfprintf.o) (vsnprintf_full)
C:\Users\nikol\projects\quectel\development\customer\threadx\tools\LLVM\4.0.3\armv7m-none-eabi\libc\lib/libc.a(vsprintf.o)
		C:\Users\nikol\projects\quectel\development\customer\threadx\tools\LLVM\4.0.3\armv7m-none-eabi\libc\lib/libc.a(sprintf.o) (vsprintf)
C:\Users\nikol\projects\quectel\development\customer\threadx\tools\LLVM\4.0.3\armv7m-none-eabi\libc\lib/libc.a(strtod.o)
		C:\Users\nikol\projects\quectel\development\customer\threadx\workspace\apps\ml/libonnx.a(Cast.o) (strtod)
C:\Users\nikol\projects\quectel\development\customer\threadx\tools\LLVM\4.0.3\armv7m-none-eabi\libc\lib/libc.a(strtol.o)
		C:\Users\nikol\projects\quectel\development\customer\threadx\workspace\apps\ml/libonnx.a(Cast.o) (strtoull)
C:\Users\nikol\projects\quectel\development\customer\threadx\tools\LLVM\4.0.3\armv7m-none-eabi\libc\lib/libc.a(__aeabi_memclr.o)
		C:\Users\nikol\projects\quectel\development\customer\threadx\tools\LLVM\4.0.3\armv7m-none-eabi\libc\lib/libc.a(vfprintf.o) (__aeabi_memclr4)
C:\Users\nikol\projects\quectel\development\customer\threadx\tools\LLVM\4.0.3\armv7m-none-eabi\libc\lib/libc.a(__aeabi_memcpy.o)
		C:\Users\nikol\projects\quectel\development\customer\threadx\tools\LLVM\4.0.3\armv7m-none-eabi\libc\lib/libc.a(vsnprintf.o) (__aeabi_memcpy8)
C:\Users\nikol\projects\quectel\development\customer\threadx\tools\LLVM\4.0.3\armv7m-none-eabi\libc\lib/libc.a(memcpy_le.o)
		out/common/src/malloc.o (memcpy)
C:\Users\nikol\projects\quectel\development\customer\threadx\tools\LLVM\4.0.3\armv7m-none-eabi\libc\lib/libc.a(memset_nofp_armv7.o)
		out/common/src/malloc.o (memset)
C:\Users\nikol\projects\quectel\development\customer\threadx\tools\LLVM\4.0.3\armv7m-none-eabi\libc\lib/libc.a(memchr.o)
		C:\Users\nikol\projects\quectel\development\customer\threadx\tools\LLVM\4.0.3\armv7m-none-eabi\libc\lib/libc.a(vfprintf.o) (memchr)
C:\Users\nikol\projects\quectel\development\customer\threadx\tools\LLVM\4.0.3\armv7m-none-eabi\libc\lib/libc.a(memcmp.o)
		C:\Users\nikol\projects\quectel\development\customer\threadx\workspace\apps\ml/libonnx.a(onnx.o) (memcmp)
C:\Users\nikol\projects\quectel\development\customer\threadx\tools\LLVM\4.0.3\armv7m-none-eabi\libc\lib/libc.a(memmove.o)
		C:\Users\nikol\projects\quectel\development\customer\threadx\workspace\apps\ml/libonnx.a(protobuf-c.o) (memmove)
C:\Users\nikol\projects\quectel\development\customer\threadx\tools\LLVM\4.0.3\armv7m-none-eabi\libc\lib/libc.a(strchr.o)
		C:\Users\nikol\projects\quectel\development\customer\threadx\tools\LLVM\4.0.3\armv7m-none-eabi\libc\lib/libc.a(fopen.o) (strchr)
C:\Users\nikol\projects\quectel\development\customer\threadx\tools\LLVM\4.0.3\armv7m-none-eabi\libc\lib/libc.a(strchrnul.o)
		C:\Users\nikol\projects\quectel\development\customer\threadx\tools\LLVM\4.0.3\armv7m-none-eabi\libc\lib/libc.a(strchr.o) (__strchrnul)
C:\Users\nikol\projects\quectel\development\customer\threadx\tools\LLVM\4.0.3\armv7m-none-eabi\libc\lib/libc.a(strcmp.o)
		out/src/main.o (strcmp)
C:\Users\nikol\projects\quectel\development\customer\threadx\tools\LLVM\4.0.3\armv7m-none-eabi\libc\lib/libc.a(strdup.o)
		C:\Users\nikol\projects\quectel\development\customer\threadx\workspace\apps\ml/libonnx.a(hmap.o) (strdup)
C:\Users\nikol\projects\quectel\development\customer\threadx\tools\LLVM\4.0.3\armv7m-none-eabi\libc\lib/libc.a(strlen.o)
		out/common/src/retarget.o (strlen)
C:\Users\nikol\projects\quectel\development\customer\threadx\tools\LLVM\4.0.3\armv7m-none-eabi\libc\lib/libc.a(strncpy.o)
		out/common/src/retarget.o (strncpy)
C:\Users\nikol\projects\quectel\development\customer\threadx\tools\LLVM\4.0.3\armv7m-none-eabi\libc\lib/libc.a(strerror.o)
		C:\Users\nikol\projects\quectel\development\customer\threadx\tools\LLVM\4.0.3\armv7m-none-eabi\libc\lib/libc.a(vfprintf.o) (strerror)
C:\Users\nikol\projects\quectel\development\customer\threadx\tools\LLVM\4.0.3\armv7m-none-eabi\libc\lib/libc.a(floatscan.o)
		C:\Users\nikol\projects\quectel\development\customer\threadx\tools\LLVM\4.0.3\armv7m-none-eabi\libc\lib/libc.a(strtod.o) (__floatscan)
C:\Users\nikol\projects\quectel\development\customer\threadx\tools\LLVM\4.0.3\armv7m-none-eabi\libc\lib/libc.a(intscan.o)
		C:\Users\nikol\projects\quectel\development\customer\threadx\tools\LLVM\4.0.3\armv7m-none-eabi\libc\lib/libc.a(strtol.o) (__intscan)
C:\Users\nikol\projects\quectel\development\customer\threadx\tools\LLVM\4.0.3\armv7m-none-eabi\libc\lib/libc.a(shgetc.o)
		C:\Users\nikol\projects\quectel\development\customer\threadx\tools\LLVM\4.0.3\armv7m-none-eabi\libc\lib/libc.a(strtod.o) (__shlim)
C:\Users\nikol\projects\quectel\development\customer\threadx\tools\LLVM\4.0.3\armv7m-none-eabi\libc\lib/libc.a(__lctrans.o)
		C:\Users\nikol\projects\quectel\development\customer\threadx\tools\LLVM\4.0.3\armv7m-none-eabi\libc\lib/libc.a(strerror.o) (__lctrans)
C:\Users\nikol\projects\quectel\development\customer\threadx\tools\LLVM\4.0.3\armv7m-none-eabi\libc\lib/libc.a(__cos.o)
		C:\Users\nikol\projects\quectel\development\customer\threadx\tools\LLVM\4.0.3\armv7m-none-eabi\libc\lib/libc.a(cos.o) (__cos)
C:\Users\nikol\projects\quectel\development\customer\threadx\tools\LLVM\4.0.3\armv7m-none-eabi\libc\lib/libc.a(__cosdf.o)
		C:\Users\nikol\projects\quectel\development\customer\threadx\tools\LLVM\4.0.3\armv7m-none-eabi\libc\lib/libc.a(cosf.o) (__cosdf)
C:\Users\nikol\projects\quectel\development\customer\threadx\tools\LLVM\4.0.3\armv7m-none-eabi\libc\lib/libc.a(__expo2.o)
		C:\Users\nikol\projects\quectel\development\customer\threadx\tools\LLVM\4.0.3\armv7m-none-eabi\libc\lib/libc.a(cosh.o) (__expo2)
C:\Users\nikol\projects\quectel\development\customer\threadx\tools\LLVM\4.0.3\armv7m-none-eabi\libc\lib/libc.a(__expo2f.o)
		C:\Users\nikol\projects\quectel\development\customer\threadx\tools\LLVM\4.0.3\armv7m-none-eabi\libc\lib/libc.a(coshf.o) (__expo2f)
C:\Users\nikol\projects\quectel\development\customer\threadx\tools\LLVM\4.0.3\armv7m-none-eabi\libc\lib/libc.a(__rem_pio2.o)
		C:\Users\nikol\projects\quectel\development\customer\threadx\tools\LLVM\4.0.3\armv7m-none-eabi\libc\lib/libc.a(cos.o) (__rem_pio2)
C:\Users\nikol\projects\quectel\development\customer\threadx\tools\LLVM\4.0.3\armv7m-none-eabi\libc\lib/libc.a(__rem_pio2_large.o)
		C:\Users\nikol\projects\quectel\development\customer\threadx\tools\LLVM\4.0.3\armv7m-none-eabi\libc\lib/libc.a(__rem_pio2.o) (__rem_pio2_large)
C:\Users\nikol\projects\quectel\development\customer\threadx\tools\LLVM\4.0.3\armv7m-none-eabi\libc\lib/libc.a(__rem_pio2f.o)
		C:\Users\nikol\projects\quectel\development\customer\threadx\tools\LLVM\4.0.3\armv7m-none-eabi\libc\lib/libc.a(cosf.o) (__rem_pio2f)
C:\Users\nikol\projects\quectel\development\customer\threadx\tools\LLVM\4.0.3\armv7m-none-eabi\libc\lib/libc.a(__sin.o)
		C:\Users\nikol\projects\quectel\development\customer\threadx\tools\LLVM\4.0.3\armv7m-none-eabi\libc\lib/libc.a(cos.o) (__sin)
C:\Users\nikol\projects\quectel\development\customer\threadx\tools\LLVM\4.0.3\armv7m-none-eabi\libc\lib/libc.a(__sindf.o)
		C:\Users\nikol\projects\quectel\development\customer\threadx\tools\LLVM\4.0.3\armv7m-none-eabi\libc\lib/libc.a(cosf.o) (__sindf)
C:\Users\nikol\projects\quectel\development\customer\threadx\tools\LLVM\4.0.3\armv7m-none-eabi\libc\lib/libc.a(__tan.o)
		C:\Users\nikol\projects\quectel\development\customer\threadx\tools\LLVM\4.0.3\armv7m-none-eabi\libc\lib/libc.a(tan.o) (__tan)
C:\Users\nikol\projects\quectel\development\customer\threadx\tools\LLVM\4.0.3\armv7m-none-eabi\libc\lib/libc.a(__tandf.o)
		C:\Users\nikol\projects\quectel\development\customer\threadx\tools\LLVM\4.0.3\armv7m-none-eabi\libc\lib/libc.a(tanf.o) (__tandf)
C:\Users\nikol\projects\quectel\development\customer\threadx\tools\LLVM\4.0.3\armv7m-none-eabi\libc\lib/libc.a(fabs.o)
		C:\Users\nikol\projects\quectel\development\customer\threadx\tools\LLVM\4.0.3\armv7m-none-eabi\libc\lib/libc.a(asin.o) (fabs)
C:\Users\nikol\projects\quectel\development\customer\threadx\tools\LLVM\4.0.3\armv7m-none-eabi\libc\lib/libc.a(fabsf.o)
		C:\Users\nikol\projects\quectel\development\customer\threadx\tools\LLVM\4.0.3\armv7m-none-eabi\libc\lib/libc.a(asinf.o) (fabsf)
C:\Users\nikol\projects\quectel\development\customer\threadx\tools\LLVM\4.0.3\armv7m-none-eabi\libc\lib/libc.a(copysignl.o)
		C:\Users\nikol\projects\quectel\development\customer\threadx\tools\LLVM\4.0.3\armv7m-none-eabi\libc\lib/libc.a(floatscan.o) (copysignl)
C:\Users\nikol\projects\quectel\development\customer\threadx\tools\LLVM\4.0.3\armv7m-none-eabi\libc\lib/libc.a(fmodl.o)
		C:\Users\nikol\projects\quectel\development\customer\threadx\tools\LLVM\4.0.3\armv7m-none-eabi\libc\lib/libc.a(floatscan.o) (fmodl)
C:\Users\nikol\projects\quectel\development\customer\threadx\tools\LLVM\4.0.3\armv7m-none-eabi\libc\lib/libc.a(scalbnl.o)
		C:\Users\nikol\projects\quectel\development\customer\threadx\tools\LLVM\4.0.3\armv7m-none-eabi\libc\lib/libc.a(floatscan.o) (scalbnl)
C:\Users\nikol\projects\quectel\development\customer\threadx\tools\LLVM\4.0.3\armv7m-none-eabi\libc\lib/libc.a(wctomb.o)
		C:\Users\nikol\projects\quectel\development\customer\threadx\tools\LLVM\4.0.3\armv7m-none-eabi\libc\lib/libc.a(vfprintf.o) (wctomb)
C:\Users\nikol\projects\quectel\development\customer\threadx\tools\LLVM\4.0.3\armv7m-none-eabi\libc\lib/libc.a(__toread.o)
		C:\Users\nikol\projects\quectel\development\customer\threadx\tools\LLVM\4.0.3\armv7m-none-eabi\libc\lib/libc.a(fread.o) (__toread)
C:\Users\nikol\projects\quectel\development\customer\threadx\tools\LLVM\4.0.3\armv7m-none-eabi\libc\lib/libc.a(__towrite.o)
		C:\Users\nikol\projects\quectel\development\customer\threadx\tools\LLVM\4.0.3\armv7m-none-eabi\libc\lib/libc.a(fwrite.o) (__towrite)
C:\Users\nikol\projects\quectel\development\customer\threadx\tools\LLVM\4.0.3\armv7m-none-eabi\libc\lib/libc.a(__uflow.o)
		C:\Users\nikol\projects\quectel\development\customer\threadx\tools\LLVM\4.0.3\armv7m-none-eabi\libc\lib/libc.a(shgetc.o) (__uflow)
C:\Users\nikol\projects\quectel\development\customer\threadx\tools\LLVM\4.0.3\armv7m-none-eabi\libc\lib/libc.a(__fdopen.o)
		C:\Users\nikol\projects\quectel\development\customer\threadx\tools\LLVM\4.0.3\armv7m-none-eabi\libc\lib/libc.a(fopen.o) (__fdopen)
C:\Users\nikol\projects\quectel\development\customer\threadx\tools\LLVM\4.0.3\armv7m-none-eabi\libc\lib/libc.a(__fmodeflags.o)
		C:\Users\nikol\projects\quectel\development\customer\threadx\tools\LLVM\4.0.3\armv7m-none-eabi\libc\lib/libc.a(fopen.o) (__fmodeflags)
C:\Users\nikol\projects\quectel\development\customer\threadx\tools\LLVM\4.0.3\armv7m-none-eabi\libc\lib/libc.a(__lockfile.o)
		C:\Users\nikol\projects\quectel\development\customer\threadx\tools\LLVM\4.0.3\armv7m-none-eabi\libc\lib/libc.a(vfprintf.o) (__lockfile)
C:\Users\nikol\projects\quectel\development\customer\threadx\tools\LLVM\4.0.3\armv7m-none-eabi\libc\lib/libc.a(__stdio_close.o)
		C:\Users\nikol\projects\quectel\development\customer\threadx\tools\LLVM\4.0.3\armv7m-none-eabi\libc\lib/libc.a(stderr.o) (__stdio_close)
C:\Users\nikol\projects\quectel\development\customer\threadx\tools\LLVM\4.0.3\armv7m-none-eabi\libc\lib/libc.a(__stdio_read.o)
		C:\Users\nikol\projects\quectel\development\customer\threadx\tools\LLVM\4.0.3\armv7m-none-eabi\libc\lib/libc.a(__fdopen.o) (__stdio_read)
C:\Users\nikol\projects\quectel\development\customer\threadx\tools\LLVM\4.0.3\armv7m-none-eabi\libc\lib/libc.a(__stdio_seek.o)
		C:\Users\nikol\projects\quectel\development\customer\threadx\tools\LLVM\4.0.3\armv7m-none-eabi\libc\lib/libc.a(stderr.o) (__stdio_seek)
C:\Users\nikol\projects\quectel\development\customer\threadx\tools\LLVM\4.0.3\armv7m-none-eabi\libc\lib/libc.a(__stdio_write.o)
		C:\Users\nikol\projects\quectel\development\customer\threadx\tools\LLVM\4.0.3\armv7m-none-eabi\libc\lib/libc.a(stderr.o) (__stdio_write)
C:\Users\nikol\projects\quectel\development\customer\threadx\tools\LLVM\4.0.3\armv7m-none-eabi\libc\lib/libc.a(ofl.o)
		C:\Users\nikol\projects\quectel\development\customer\threadx\tools\LLVM\4.0.3\armv7m-none-eabi\libc\lib/libc.a(fclose.o) (__ofl_lock)
C:\Users\nikol\projects\quectel\development\customer\threadx\tools\LLVM\4.0.3\armv7m-none-eabi\libc\lib/libc.a(ofl_add.o)
		C:\Users\nikol\projects\quectel\development\customer\threadx\tools\LLVM\4.0.3\armv7m-none-eabi\libc\lib/libc.a(__fdopen.o) (__ofl_add)
C:\Users\nikol\projects\quectel\development\customer\threadx\tools\LLVM\4.0.3\armv7m-none-eabi\libc\lib/libc.a(stpncpy.o)
		C:\Users\nikol\projects\quectel\development\customer\threadx\tools\LLVM\4.0.3\armv7m-none-eabi\libc\lib/libc.a(strncpy.o) (__stpncpy)
C:\Users\nikol\projects\quectel\development\customer\threadx\tools\LLVM\4.0.3\armv7m-none-eabi\libc\lib/libc.a(libc.o)
		C:\Users\nikol\projects\quectel\development\customer\threadx\tools\LLVM\4.0.3\armv7m-none-eabi\libc\lib/libc.a(__fdopen.o) (__libc)
C:\Users\nikol\projects\quectel\development\customer\threadx\tools\LLVM\4.0.3\armv7m-none-eabi\libc\lib/libc.a(copysign.o)
		C:\Users\nikol\projects\quectel\development\customer\threadx\tools\LLVM\4.0.3\armv7m-none-eabi\libc\lib/libc.a(copysignl.o) (copysign)
C:\Users\nikol\projects\quectel\development\customer\threadx\tools\LLVM\4.0.3\armv7m-none-eabi\libc\lib/libc.a(wcrtomb.o)
		C:\Users\nikol\projects\quectel\development\customer\threadx\tools\LLVM\4.0.3\armv7m-none-eabi\libc\lib/libc.a(wctomb.o) (wcrtomb)
C:\Users\nikol\projects\quectel\development\customer\threadx\tools\LLVM\4.0.3\armv7m-none-eabi\libc\lib/libc.a(__stdio_exit.o)
		C:\Users\nikol\projects\quectel\development\customer\threadx\tools\LLVM\4.0.3\armv7m-none-eabi\libc\lib/libc.a(__toread.o) (__stdio_exit_needed)
C:\Users\nikol\projects\quectel\development\customer\threadx\tools\LLVM\4.0.3\lib\clang\4.0.3\lib\baremetal/libclang_rt.builtins-armv7m.a(aeabi_dcmp.S.obj)
		C:\Users\nikol\projects\quectel\development\customer\threadx\workspace\apps\ml/libonnx.a(LogSoftmax.o) (__aeabi_dcmpeq)
C:\Users\nikol\projects\quectel\development\customer\threadx\tools\LLVM\4.0.3\lib\clang\4.0.3\lib\baremetal/libclang_rt.builtins-armv7m.a(aeabi_fcmp.S.obj)
		C:\Users\nikol\projects\quectel\development\customer\threadx\workspace\apps\ml/libonnx.a(Multinomial.o) (__aeabi_fcmpeq)
C:\Users\nikol\projects\quectel\development\customer\threadx\tools\LLVM\4.0.3\lib\clang\4.0.3\lib\baremetal/libclang_rt.builtins-armv7m.a(aeabi_idivmod.S.obj)
		C:\Users\nikol\projects\quectel\development\customer\threadx\workspace\apps\ml/libonnx.a(Sub.o) (__aeabi_idivmod)
C:\Users\nikol\projects\quectel\development\customer\threadx\tools\LLVM\4.0.3\lib\clang\4.0.3\lib\baremetal/libclang_rt.builtins-armv7m.a(aeabi_ldivmod.S.obj)
		C:\Users\nikol\projects\quectel\development\customer\threadx\workspace\apps\ml/libonnx.a(ReduceMean.o) (__aeabi_ldivmod)
C:\Users\nikol\projects\quectel\development\customer\threadx\tools\LLVM\4.0.3\lib\clang\4.0.3\lib\baremetal/libclang_rt.builtins-armv7m.a(aeabi_uidivmod.S.obj)
		C:\Users\nikol\projects\quectel\development\customer\threadx\workspace\apps\ml/libonnx.a(onnx.o) (__aeabi_uidivmod)
C:\Users\nikol\projects\quectel\development\customer\threadx\tools\LLVM\4.0.3\lib\clang\4.0.3\lib\baremetal/libclang_rt.builtins-armv7m.a(aeabi_uldivmod.S.obj)
		C:\Users\nikol\projects\quectel\development\customer\threadx\workspace\apps\ml/libonnx.a(ReduceMean.o) (__aeabi_uldivmod)
C:\Users\nikol\projects\quectel\development\customer\threadx\tools\LLVM\4.0.3\lib\clang\4.0.3\lib\baremetal/libclang_rt.builtins-armv7m.a(adddf3.c.obj)
		C:\Users\nikol\projects\quectel\development\customer\threadx\workspace\apps\ml/libonnx.a(LRN.o) (__aeabi_dadd)
C:\Users\nikol\projects\quectel\development\customer\threadx\tools\LLVM\4.0.3\lib\clang\4.0.3\lib\baremetal/libclang_rt.builtins-armv7m.a(addsf3.c.obj)
		C:\Users\nikol\projects\quectel\development\customer\threadx\workspace\apps\ml/libonnx.a(LRN.o) (__aeabi_fadd)
C:\Users\nikol\projects\quectel\development\customer\threadx\tools\LLVM\4.0.3\lib\clang\4.0.3\lib\baremetal/libclang_rt.builtins-armv7m.a(comparedf2.c.obj)
		C:\Users\nikol\projects\quectel\development\customer\threadx\tools\LLVM\4.0.3\lib\clang\4.0.3\lib\baremetal/libclang_rt.builtins-armv7m.a(aeabi_dcmp.S.obj) (__eqdf2)
C:\Users\nikol\projects\quectel\development\customer\threadx\tools\LLVM\4.0.3\lib\clang\4.0.3\lib\baremetal/libclang_rt.builtins-armv7m.a(comparesf2.c.obj)
		C:\Users\nikol\projects\quectel\development\customer\threadx\tools\LLVM\4.0.3\lib\clang\4.0.3\lib\baremetal/libclang_rt.builtins-armv7m.a(aeabi_fcmp.S.obj) (__eqsf2)
C:\Users\nikol\projects\quectel\development\customer\threadx\tools\LLVM\4.0.3\lib\clang\4.0.3\lib\baremetal/libclang_rt.builtins-armv7m.a(divdf3.c.obj)
		C:\Users\nikol\projects\quectel\development\customer\threadx\workspace\apps\ml/libonnx.a(Multinomial.o) (__aeabi_ddiv)
C:\Users\nikol\projects\quectel\development\customer\threadx\tools\LLVM\4.0.3\lib\clang\4.0.3\lib\baremetal/libclang_rt.builtins-armv7m.a(divmoddi4.c.obj)
		C:\Users\nikol\projects\quectel\development\customer\threadx\tools\LLVM\4.0.3\lib\clang\4.0.3\lib\baremetal/libclang_rt.builtins-armv7m.a(aeabi_ldivmod.S.obj) (__divmoddi4)
C:\Users\nikol\projects\quectel\development\customer\threadx\tools\LLVM\4.0.3\lib\clang\4.0.3\lib\baremetal/libclang_rt.builtins-armv7m.a(divmodsi4.c.obj)
		C:\Users\nikol\projects\quectel\development\customer\threadx\tools\LLVM\4.0.3\lib\clang\4.0.3\lib\baremetal/libclang_rt.builtins-armv7m.a(aeabi_idivmod.S.obj) (__divmodsi4)
C:\Users\nikol\projects\quectel\development\customer\threadx\tools\LLVM\4.0.3\lib\clang\4.0.3\lib\baremetal/libclang_rt.builtins-armv7m.a(divsf3.c.obj)
		C:\Users\nikol\projects\quectel\development\customer\threadx\workspace\apps\ml/libonnx.a(LRN.o) (__aeabi_fdiv)
C:\Users\nikol\projects\quectel\development\customer\threadx\tools\LLVM\4.0.3\lib\clang\4.0.3\lib\baremetal/libclang_rt.builtins-armv7m.a(divsi3.c.obj)
		C:\Users\nikol\projects\quectel\development\customer\threadx\workspace\apps\ml/libonnx.a(Div.o) (__aeabi_idiv)
C:\Users\nikol\projects\quectel\development\customer\threadx\tools\LLVM\4.0.3\lib\clang\4.0.3\lib\baremetal/libclang_rt.builtins-armv7m.a(extendsfdf2.c.obj)
		C:\Users\nikol\projects\quectel\development\customer\threadx\workspace\apps\ml/libonnx.a(onnx.o) (__aeabi_f2d)
C:\Users\nikol\projects\quectel\development\customer\threadx\tools\LLVM\4.0.3\lib\clang\4.0.3\lib\baremetal/libclang_rt.builtins-armv7m.a(fixdfdi.c.obj)
		C:\Users\nikol\projects\quectel\development\customer\threadx\workspace\apps\ml/libonnx.a(Range.o) (__aeabi_d2lz)
C:\Users\nikol\projects\quectel\development\customer\threadx\tools\LLVM\4.0.3\lib\clang\4.0.3\lib\baremetal/libclang_rt.builtins-armv7m.a(fixdfsi.c.obj)
		C:\Users\nikol\projects\quectel\development\customer\threadx\workspace\apps\ml/libonnx.a(Range.o) (__aeabi_d2iz)
C:\Users\nikol\projects\quectel\development\customer\threadx\tools\LLVM\4.0.3\lib\clang\4.0.3\lib\baremetal/libclang_rt.builtins-armv7m.a(fixsfdi.c.obj)
		C:\Users\nikol\projects\quectel\development\customer\threadx\workspace\apps\ml/libonnx.a(ReduceL2.o) (__aeabi_f2lz)
C:\Users\nikol\projects\quectel\development\customer\threadx\tools\LLVM\4.0.3\lib\clang\4.0.3\lib\baremetal/libclang_rt.builtins-armv7m.a(fixsfsi.c.obj)
		C:\Users\nikol\projects\quectel\development\customer\threadx\workspace\apps\ml/libonnx.a(ReduceL2.o) (__aeabi_f2iz)
C:\Users\nikol\projects\quectel\development\customer\threadx\tools\LLVM\4.0.3\lib\clang\4.0.3\lib\baremetal/libclang_rt.builtins-armv7m.a(fixunsdfdi.c.obj)
		C:\Users\nikol\projects\quectel\development\customer\threadx\workspace\apps\ml/libonnx.a(Erf.o) (__aeabi_d2ulz)
C:\Users\nikol\projects\quectel\development\customer\threadx\tools\LLVM\4.0.3\lib\clang\4.0.3\lib\baremetal/libclang_rt.builtins-armv7m.a(fixunsdfsi.c.obj)
		C:\Users\nikol\projects\quectel\development\customer\threadx\workspace\apps\ml/libonnx.a(Cast.o) (__aeabi_d2uiz)
C:\Users\nikol\projects\quectel\development\customer\threadx\tools\LLVM\4.0.3\lib\clang\4.0.3\lib\baremetal/libclang_rt.builtins-armv7m.a(fixunssfdi.c.obj)
		C:\Users\nikol\projects\quectel\development\customer\threadx\workspace\apps\ml/libonnx.a(ReduceL2.o) (__aeabi_f2ulz)
C:\Users\nikol\projects\quectel\development\customer\threadx\tools\LLVM\4.0.3\lib\clang\4.0.3\lib\baremetal/libclang_rt.builtins-armv7m.a(fixunssfsi.c.obj)
		C:\Users\nikol\projects\quectel\development\customer\threadx\workspace\apps\ml/libonnx.a(Multinomial.o) (__aeabi_f2uiz)
C:\Users\nikol\projects\quectel\development\customer\threadx\tools\LLVM\4.0.3\lib\clang\4.0.3\lib\baremetal/libclang_rt.builtins-armv7m.a(floatdidf.c.obj)
		C:\Users\nikol\projects\quectel\development\customer\threadx\workspace\apps\ml/libonnx.a(Range.o) (__aeabi_l2d)
C:\Users\nikol\projects\quectel\development\customer\threadx\tools\LLVM\4.0.3\lib\clang\4.0.3\lib\baremetal/libclang_rt.builtins-armv7m.a(floatdisf.c.obj)
		C:\Users\nikol\projects\quectel\development\customer\threadx\workspace\apps\ml/libonnx.a(ReduceL2.o) (__aeabi_l2f)
C:\Users\nikol\projects\quectel\development\customer\threadx\tools\LLVM\4.0.3\lib\clang\4.0.3\lib\baremetal/libclang_rt.builtins-armv7m.a(floatsidf.c.obj)
		C:\Users\nikol\projects\quectel\development\customer\threadx\workspace\apps\ml/libonnx.a(Multinomial.o) (__aeabi_i2d)
C:\Users\nikol\projects\quectel\development\customer\threadx\tools\LLVM\4.0.3\lib\clang\4.0.3\lib\baremetal/libclang_rt.builtins-armv7m.a(floatsisf.c.obj)
		C:\Users\nikol\projects\quectel\development\customer\threadx\workspace\apps\ml/libonnx.a(LRN.o) (__aeabi_i2f)
C:\Users\nikol\projects\quectel\development\customer\threadx\tools\LLVM\4.0.3\lib\clang\4.0.3\lib\baremetal/libclang_rt.builtins-armv7m.a(floatundidf.c.obj)
		out/src/main.o (__aeabi_ul2d)
C:\Users\nikol\projects\quectel\development\customer\threadx\tools\LLVM\4.0.3\lib\clang\4.0.3\lib\baremetal/libclang_rt.builtins-armv7m.a(floatundisf.c.obj)
		C:\Users\nikol\projects\quectel\development\customer\threadx\workspace\apps\ml/libonnx.a(ReduceL2.o) (__aeabi_ul2f)
C:\Users\nikol\projects\quectel\development\customer\threadx\tools\LLVM\4.0.3\lib\clang\4.0.3\lib\baremetal/libclang_rt.builtins-armv7m.a(floatunsidf.c.obj)
		C:\Users\nikol\projects\quectel\development\customer\threadx\workspace\apps\ml/libonnx.a(Range.o) (__aeabi_ui2d)
C:\Users\nikol\projects\quectel\development\customer\threadx\tools\LLVM\4.0.3\lib\clang\4.0.3\lib\baremetal/libclang_rt.builtins-armv7m.a(floatunsisf.c.obj)
		C:\Users\nikol\projects\quectel\development\customer\threadx\workspace\apps\ml/libonnx.a(ReduceL2.o) (__aeabi_ui2f)
C:\Users\nikol\projects\quectel\development\customer\threadx\tools\LLVM\4.0.3\lib\clang\4.0.3\lib\baremetal/libclang_rt.builtins-armv7m.a(muldf3.c.obj)
		C:\Users\nikol\projects\quectel\development\customer\threadx\workspace\apps\ml/libonnx.a(LRN.o) (__aeabi_dmul)
C:\Users\nikol\projects\quectel\development\customer\threadx\tools\LLVM\4.0.3\lib\clang\4.0.3\lib\baremetal/libclang_rt.builtins-armv7m.a(mulsf3.c.obj)
		C:\Users\nikol\projects\quectel\development\customer\threadx\workspace\apps\ml/libonnx.a(LRN.o) (__aeabi_fmul)
C:\Users\nikol\projects\quectel\development\customer\threadx\tools\LLVM\4.0.3\lib\clang\4.0.3\lib\baremetal/libclang_rt.builtins-armv7m.a(subdf3.c.obj)
		C:\Users\nikol\projects\quectel\development\customer\threadx\workspace\apps\ml/libonnx.a(Sub.o) (__aeabi_dsub)
C:\Users\nikol\projects\quectel\development\customer\threadx\tools\LLVM\4.0.3\lib\clang\4.0.3\lib\baremetal/libclang_rt.builtins-armv7m.a(subsf3.c.obj)
		C:\Users\nikol\projects\quectel\development\customer\threadx\workspace\apps\ml/libonnx.a(LRN.o) (__aeabi_fsub)
C:\Users\nikol\projects\quectel\development\customer\threadx\tools\LLVM\4.0.3\lib\clang\4.0.3\lib\baremetal/libclang_rt.builtins-armv7m.a(truncdfsf2.c.obj)
		C:\Users\nikol\projects\quectel\development\customer\threadx\workspace\apps\ml/libonnx.a(Range.o) (__aeabi_d2f)
C:\Users\nikol\projects\quectel\development\customer\threadx\tools\LLVM\4.0.3\lib\clang\4.0.3\lib\baremetal/libclang_rt.builtins-armv7m.a(udivmoddi4.c.obj)
		C:\Users\nikol\projects\quectel\development\customer\threadx\tools\LLVM\4.0.3\lib\clang\4.0.3\lib\baremetal/libclang_rt.builtins-armv7m.a(aeabi_uldivmod.S.obj) (__udivmoddi4)
C:\Users\nikol\projects\quectel\development\customer\threadx\tools\LLVM\4.0.3\lib\clang\4.0.3\lib\baremetal/libclang_rt.builtins-armv7m.a(udivmodsi4.c.obj)
		C:\Users\nikol\projects\quectel\development\customer\threadx\tools\LLVM\4.0.3\lib\clang\4.0.3\lib\baremetal/libclang_rt.builtins-armv7m.a(aeabi_uidivmod.S.obj) (__udivmodsi4)
C:\Users\nikol\projects\quectel\development\customer\threadx\tools\LLVM\4.0.3\lib\clang\4.0.3\lib\baremetal/libclang_rt.builtins-armv7m.a(udivsi3.c.obj)
		C:\Users\nikol\projects\quectel\development\customer\threadx\workspace\apps\ml/libonnx.a(onnx.o) (__aeabi_uidiv)
C:\Users\nikol\projects\quectel\development\customer\threadx\tools\LLVM\4.0.3\lib\clang\4.0.3\lib\baremetal/libclang_rt.builtins-armv7m.a(divdi3.c.obj)
		C:\Users\nikol\projects\quectel\development\customer\threadx\tools\LLVM\4.0.3\lib\clang\4.0.3\lib\baremetal/libclang_rt.builtins-armv7m.a(divmoddi4.c.obj) (__divdi3)

Allocating common symbols
Common symbol	size	file

pool_mem	0x20000	out/common/src/retarget.o
stdin_buf	0x80	out/common/src/retarget.o
tracef_msg_mem	0x200	out/common/src/retarget.o
tracef_thread_mem	0x1800	out/common/src/retarget.o
in_tx_sem	0x4	out/common/src/retarget.o
out_tx_sem	0x4	out/common/src/retarget.o
pool	0x4	out/common/src/retarget.o
tracef_msg_queue	0x4	out/common/src/retarget.o
tracef_thread_byte_pool	0x4	out/common/src/retarget.o
tracef_thread_handle	0x4	out/common/src/retarget.o
tracef_thread_stack	0x4	out/common/src/retarget.o
malloc_mem	0x80000	out/common/src/malloc.o
byte_malloc_mem_pool	0x4	out/common/src/malloc.o
timer_client_stack	0x1000	../../../Quectel_BG96_QuecOpen_SDK_Package_V3.0.1-AUS/SDK/libs/llvm\timer_dam_lib.lib(qapi_timer_user.o)
timer_client_module_thread	0x4	../../../Quectel_BG96_QuecOpen_SDK_Package_V3.0.1-AUS/SDK/libs/llvm\timer_dam_lib.lib(qapi_timer_user.o)
timer_thread_state	0x4	../../../Quectel_BG96_QuecOpen_SDK_Package_V3.0.1-AUS/SDK/libs/llvm\timer_dam_lib.lib(qapi_timer_user.o)
timer_user_handle	0x4	../../../Quectel_BG96_QuecOpen_SDK_Package_V3.0.1-AUS/SDK/libs/llvm\timer_dam_lib.lib(qapi_timer_user.o)
_txm_module_entry_info	0x4	../../../Quectel_BG96_QuecOpen_SDK_Package_V3.0.1-AUS/SDK/libs/llvm\txm_lib.lib(txm_module_thread_shell_entry.o)
_txm_module_instance_ptr	0x4	../../../Quectel_BG96_QuecOpen_SDK_Package_V3.0.1-AUS/SDK/libs/llvm\txm_lib.lib(txm_module_thread_shell_entry.o)
_txm_module_kernel_call_dispatcher	0x4	../../../Quectel_BG96_QuecOpen_SDK_Package_V3.0.1-AUS/SDK/libs/llvm\txm_lib.lib(txm_module_thread_shell_entry.o)
__libc	0x40	C:\Users\nikol\projects\quectel\development\customer\threadx\tools\LLVM\4.0.3\armv7m-none-eabi\libc\lib/libc.a(libc.o)

Linker Script and memory map
LOAD ./ldscripts/txm_module_preamble_llvm.o[]
LOAD out/common/src/retarget.o[]
LOAD out/common/src/malloc.o[]
LOAD out/common/src/memalign.o[]
LOAD out/common/src/stubs.o[]
LOAD out/src/main.o[]
LOAD ../../../Quectel_BG96_QuecOpen_SDK_Package_V3.0.1-AUS/SDK/libs/llvm\timer_dam_lib.lib(qapi_timer_user.o) []
LOAD ../../../Quectel_BG96_QuecOpen_SDK_Package_V3.0.1-AUS/SDK/libs/llvm\txm_lib.lib(txm_module_thread_shell_entry.o) []
LOAD ../../../Quectel_BG96_QuecOpen_SDK_Package_V3.0.1-AUS/SDK/libs/llvm\txm_lib.lib(txm_module_callback_request_thread_entry.o) []
LOAD ../../../Quectel_BG96_QuecOpen_SDK_Package_V3.0.1-AUS/SDK/libs/llvm\txm_lib.lib(txm_module_system_call11.o) []
LOAD ../../../Quectel_BG96_QuecOpen_SDK_Package_V3.0.1-AUS/SDK/libs/llvm\txm_lib.lib(txm_module_system_call12.o) []
LOAD ../../../Quectel_BG96_QuecOpen_SDK_Package_V3.0.1-AUS/SDK/libs/llvm\txm_lib.lib(txm_module_system_call4.o) []
LOAD ../../../Quectel_BG96_QuecOpen_SDK_Package_V3.0.1-AUS/SDK/libs/llvm\txm_lib.lib(txm_module_system_call5.o) []
LOAD ../../../Quectel_BG96_QuecOpen_SDK_Package_V3.0.1-AUS/SDK/libs/llvm\txm_lib.lib(txm_module_system_call6.o) []
LOAD C:\Users\nikol\projects\quectel\development\customer\threadx\workspace\apps\ml/libonnx.a(hmap.o) []
LOAD C:\Users\nikol\projects\quectel\development\customer\threadx\workspace\apps\ml/libonnx.a(onnx.o) []
LOAD C:\Users\nikol\projects\quectel\development\customer\threadx\workspace\apps\ml/libonnx.a(onnx.proto3.pb-c.o) []
LOAD C:\Users\nikol\projects\quectel\development\customer\threadx\workspace\apps\ml/libonnx.a(Compress.o) []
LOAD C:\Users\nikol\projects\quectel\development\customer\threadx\workspace\apps\ml/libonnx.a(LRN.o) []
LOAD C:\Users\nikol\projects\quectel\development\customer\threadx\workspace\apps\ml/libonnx.a(Shape.o) []
LOAD C:\Users\nikol\projects\quectel\development\customer\threadx\workspace\apps\ml/libonnx.a(Multinomial.o) []
LOAD C:\Users\nikol\projects\quectel\development\customer\threadx\workspace\apps\ml/libonnx.a(ReduceL2.o) []
LOAD C:\Users\nikol\projects\quectel\development\customer\threadx\workspace\apps\ml/libonnx.a(Sub.o) []
LOAD C:\Users\nikol\projects\quectel\development\customer\threadx\workspace\apps\ml/libonnx.a(ReduceMean.o) []
LOAD C:\Users\nikol\projects\quectel\development\customer\threadx\workspace\apps\ml/libonnx.a(QuantizeLinear.o) []
LOAD C:\Users\nikol\projects\quectel\development\customer\threadx\workspace\apps\ml/libonnx.a(Sin.o) []
LOAD C:\Users\nikol\projects\quectel\development\customer\threadx\workspace\apps\ml/libonnx.a(SequenceAt.o) []
LOAD C:\Users\nikol\projects\quectel\development\customer\threadx\workspace\apps\ml/libonnx.a(GlobalLpPool.o) []
LOAD C:\Users\nikol\projects\quectel\development\customer\threadx\workspace\apps\ml/libonnx.a(AveragePool.o) []
LOAD C:\Users\nikol\projects\quectel\development\customer\threadx\workspace\apps\ml/libonnx.a(SequenceInsert.o) []
LOAD C:\Users\nikol\projects\quectel\development\customer\threadx\workspace\apps\ml/libonnx.a(RandomUniformLike.o) []
LOAD C:\Users\nikol\projects\quectel\development\customer\threadx\workspace\apps\ml/libonnx.a(Neg.o) []
LOAD C:\Users\nikol\projects\quectel\development\customer\threadx\workspace\apps\ml/libonnx.a(Tan.o) []
LOAD C:\Users\nikol\projects\quectel\development\customer\threadx\workspace\apps\ml/libonnx.a(Concat.o) []
LOAD C:\Users\nikol\projects\quectel\development\customer\threadx\workspace\apps\ml/libonnx.a(ReduceLogSumExp.o) []
LOAD C:\Users\nikol\projects\quectel\development\customer\threadx\workspace\apps\ml/libonnx.a(Greater.o) []
LOAD C:\Users\nikol\projects\quectel\development\customer\threadx\workspace\apps\ml/libonnx.a(Tile.o) []
LOAD C:\Users\nikol\projects\quectel\development\customer\threadx\workspace\apps\ml/libonnx.a(LogSoftmax.o) []
LOAD C:\Users\nikol\projects\quectel\development\customer\threadx\workspace\apps\ml/libonnx.a(LessOrEqual.o) []
LOAD C:\Users\nikol\projects\quectel\development\customer\threadx\workspace\apps\ml/libonnx.a(RoiAlign.o) []
LOAD C:\Users\nikol\projects\quectel\development\customer\threadx\workspace\apps\ml/libonnx.a(RNN.o) []
LOAD C:\Users\nikol\projects\quectel\development\customer\threadx\workspace\apps\ml/libonnx.a(Asinh.o) []
LOAD C:\Users\nikol\projects\quectel\development\customer\threadx\workspace\apps\ml/libonnx.a(MeanVarianceNormalization.o) []
LOAD C:\Users\nikol\projects\quectel\development\customer\threadx\workspace\apps\ml/libonnx.a(SplitToSequence.o) []
LOAD C:\Users\nikol\projects\quectel\development\customer\threadx\workspace\apps\ml/libonnx.a(QLinearMatMul.o) []
LOAD C:\Users\nikol\projects\quectel\development\customer\threadx\workspace\apps\ml/libonnx.a(OneHot.o) []
LOAD C:\Users\nikol\projects\quectel\development\customer\threadx\workspace\apps\ml/libonnx.a(GreaterOrEqual.o) []
LOAD C:\Users\nikol\projects\quectel\development\customer\threadx\workspace\apps\ml/libonnx.a(Div.o) []
LOAD C:\Users\nikol\projects\quectel\development\customer\threadx\workspace\apps\ml/libonnx.a(GRU.o) []
LOAD C:\Users\nikol\projects\quectel\development\customer\threadx\workspace\apps\ml/libonnx.a(Scan.o) []
LOAD C:\Users\nikol\projects\quectel\development\customer\threadx\workspace\apps\ml/libonnx.a(NonMaxSuppression.o) []
LOAD C:\Users\nikol\projects\quectel\development\customer\threadx\workspace\apps\ml/libonnx.a(Ceil.o) []
LOAD C:\Users\nikol\projects\quectel\development\customer\threadx\workspace\apps\ml/libonnx.a(PRelu.o) []
LOAD C:\Users\nikol\projects\quectel\development\customer\threadx\workspace\apps\ml/libonnx.a(HardSigmoid.o) []
LOAD C:\Users\nikol\projects\quectel\development\customer\threadx\workspace\apps\ml/libonnx.a(SoftmaxCrossEntropyLoss.o) []
LOAD C:\Users\nikol\projects\quectel\development\customer\threadx\workspace\apps\ml/libonnx.a(ConcatFromSequence.o) []
LOAD C:\Users\nikol\projects\quectel\development\customer\threadx\workspace\apps\ml/libonnx.a(ConvInteger.o) []
LOAD C:\Users\nikol\projects\quectel\development\customer\threadx\workspace\apps\ml/libonnx.a(Constant.o) []
LOAD C:\Users\nikol\projects\quectel\development\customer\threadx\workspace\apps\ml/libonnx.a(Clip.o) []
LOAD C:\Users\nikol\projects\quectel\development\customer\threadx\workspace\apps\ml/libonnx.a(Mean.o) []
LOAD C:\Users\nikol\projects\quectel\development\customer\threadx\workspace\apps\ml/libonnx.a(Slice.o) []
LOAD C:\Users\nikol\projects\quectel\development\customer\threadx\workspace\apps\ml/libonnx.a(Loop.o) []
LOAD C:\Users\nikol\projects\quectel\development\customer\threadx\workspace\apps\ml/libonnx.a(Split.o) []
LOAD C:\Users\nikol\projects\quectel\development\customer\threadx\workspace\apps\ml/libonnx.a(Add.o) []
LOAD C:\Users\nikol\projects\quectel\development\customer\threadx\workspace\apps\ml/libonnx.a(Sinh.o) []
LOAD C:\Users\nikol\projects\quectel\development\customer\threadx\workspace\apps\ml/libonnx.a(DepthToSpace.o) []
LOAD C:\Users\nikol\projects\quectel\development\customer\threadx\workspace\apps\ml/libonnx.a(Cosh.o) []
LOAD C:\Users\nikol\projects\quectel\development\customer\threadx\workspace\apps\ml/libonnx.a(Gemm.o) []
LOAD C:\Users\nikol\projects\quectel\development\customer\threadx\workspace\apps\ml/libonnx.a(RandomNormalLike.o) []
LOAD C:\Users\nikol\projects\quectel\development\customer\threadx\workspace\apps\ml/libonnx.a(TopK.o) []
LOAD C:\Users\nikol\projects\quectel\development\customer\threadx\workspace\apps\ml/libonnx.a(ReduceSumSquare.o) []
LOAD C:\Users\nikol\projects\quectel\development\customer\threadx\workspace\apps\ml/libonnx.a(Acosh.o) []
LOAD C:\Users\nikol\projects\quectel\development\customer\threadx\workspace\apps\ml/libonnx.a(DequantizeLinear.o) []
LOAD C:\Users\nikol\projects\quectel\development\customer\threadx\workspace\apps\ml/libonnx.a(Atan.o) []
LOAD C:\Users\nikol\projects\quectel\development\customer\threadx\workspace\apps\ml/libonnx.a(Range.o) []
LOAD C:\Users\nikol\projects\quectel\development\customer\threadx\workspace\apps\ml/libonnx.a(Sum.o) []
LOAD C:\Users\nikol\projects\quectel\development\customer\threadx\workspace\apps\ml/libonnx.a(Asin.o) []
LOAD C:\Users\nikol\projects\quectel\development\customer\threadx\workspace\apps\ml/libonnx.a(Softplus.o) []
LOAD C:\Users\nikol\projects\quectel\development\customer\threadx\workspace\apps\ml/libonnx.a(LSTM.o) []
LOAD C:\Users\nikol\projects\quectel\development\customer\threadx\workspace\apps\ml/libonnx.a(Where.o) []
LOAD C:\Users\nikol\projects\quectel\development\customer\threadx\workspace\apps\ml/libonnx.a(GlobalMaxPool.o) []
LOAD C:\Users\nikol\projects\quectel\development\customer\threadx\workspace\apps\ml/libonnx.a(Pow.o) []
LOAD C:\Users\nikol\projects\quectel\development\customer\threadx\workspace\apps\ml/libonnx.a(Erf.o) []
LOAD C:\Users\nikol\projects\quectel\development\customer\threadx\workspace\apps\ml/libonnx.a(GlobalAveragePool.o) []
LOAD C:\Users\nikol\projects\quectel\development\customer\threadx\workspace\apps\ml/libonnx.a(ReduceLogSum.o) []
LOAD C:\Users\nikol\projects\quectel\development\customer\threadx\workspace\apps\ml/libonnx.a(ScatterND.o) []
LOAD C:\Users\nikol\projects\quectel\development\customer\threadx\workspace\apps\ml/libonnx.a(Reshape.o) []
LOAD C:\Users\nikol\projects\quectel\development\customer\threadx\workspace\apps\ml/libonnx.a(Max.o) []
LOAD C:\Users\nikol\projects\quectel\development\customer\threadx\workspace\apps\ml/libonnx.a(Sign.o) []
LOAD C:\Users\nikol\projects\quectel\development\customer\threadx\workspace\apps\ml/libonnx.a(ArgMax.o) []
LOAD C:\Users\nikol\projects\quectel\development\customer\threadx\workspace\apps\ml/libonnx.a(ReverseSequence.o) []
LOAD C:\Users\nikol\projects\quectel\development\customer\threadx\workspace\apps\ml/libonnx.a(ReduceSum.o) []
LOAD C:\Users\nikol\projects\quectel\development\customer\threadx\workspace\apps\ml/libonnx.a(ScatterElements.o) []
LOAD C:\Users\nikol\projects\quectel\development\customer\threadx\workspace\apps\ml/libonnx.a(GatherElements.o) []
LOAD C:\Users\nikol\projects\quectel\development\customer\threadx\workspace\apps\ml/libonnx.a(MaxPool.o) []
LOAD C:\Users\nikol\projects\quectel\development\customer\threadx\workspace\apps\ml/libonnx.a(Acos.o) []
LOAD C:\Users\nikol\projects\quectel\development\customer\threadx\workspace\apps\ml/libonnx.a(Flatten.o) []
LOAD C:\Users\nikol\projects\quectel\development\customer\threadx\workspace\apps\ml/libonnx.a(Celu.o) []
LOAD C:\Users\nikol\projects\quectel\development\customer\threadx\workspace\apps\ml/libonnx.a(SequenceLength.o) []
LOAD C:\Users\nikol\projects\quectel\development\customer\threadx\workspace\apps\ml/libonnx.a(Floor.o) []
LOAD C:\Users\nikol\projects\quectel\development\customer\threadx\workspace\apps\ml/libonnx.a(ReduceProd.o) []
LOAD C:\Users\nikol\projects\quectel\development\customer\threadx\workspace\apps\ml/libonnx.a(Dropout.o) []
LOAD C:\Users\nikol\projects\quectel\development\customer\threadx\workspace\apps\ml/libonnx.a(Pad.o) []
LOAD C:\Users\nikol\projects\quectel\development\customer\threadx\workspace\apps\ml/libonnx.a(ReduceMax.o) []
LOAD C:\Users\nikol\projects\quectel\development\customer\threadx\workspace\apps\ml/libonnx.a(Not.o) []
LOAD C:\Users\nikol\projects\quectel\development\customer\threadx\workspace\apps\ml/libonnx.a(TfIdfVectorizer.o) []
LOAD C:\Users\nikol\projects\quectel\development\customer\threadx\workspace\apps\ml/libonnx.a(Conv.o) []
LOAD C:\Users\nikol\projects\quectel\development\customer\threadx\workspace\apps\ml/libonnx.a(SequenceErase.o) []
LOAD C:\Users\nikol\projects\quectel\development\customer\threadx\workspace\apps\ml/libonnx.a(Shrink.o) []
LOAD C:\Users\nikol\projects\quectel\development\customer\threadx\workspace\apps\ml/libonnx.a(LpPool.o) []
LOAD C:\Users\nikol\projects\quectel\development\customer\threadx\workspace\apps\ml/libonnx.a(Cast.o) []
LOAD C:\Users\nikol\projects\quectel\development\customer\threadx\workspace\apps\ml/libonnx.a(Round.o) []
LOAD C:\Users\nikol\projects\quectel\development\customer\threadx\workspace\apps\ml/libonnx.a(Reciprocal.o) []
LOAD C:\Users\nikol\projects\quectel\development\customer\threadx\workspace\apps\ml/libonnx.a(Scatter.o) []
LOAD C:\Users\nikol\projects\quectel\development\customer\threadx\workspace\apps\ml/libonnx.a(ReduceL1.o) []
LOAD C:\Users\nikol\projects\quectel\development\customer\threadx\workspace\apps\ml/libonnx.a(SequenceEmpty.o) []
LOAD C:\Users\nikol\projects\quectel\development\customer\threadx\workspace\apps\ml/libonnx.a(IsInf.o) []
LOAD C:\Users\nikol\projects\quectel\development\customer\threadx\workspace\apps\ml/libonnx.a(Expand.o) []
LOAD C:\Users\nikol\projects\quectel\development\customer\threadx\workspace\apps\ml/libonnx.a(Upsample.o) []
LOAD C:\Users\nikol\projects\quectel\development\customer\threadx\workspace\apps\ml/libonnx.a(Or.o) []
LOAD C:\Users\nikol\projects\quectel\development\customer\threadx\workspace\apps\ml/libonnx.a(Log.o) []
LOAD C:\Users\nikol\projects\quectel\development\customer\threadx\workspace\apps\ml/libonnx.a(EyeLike.o) []
LOAD C:\Users\nikol\projects\quectel\development\customer\threadx\workspace\apps\ml/libonnx.a(BatchNormalization.o) []
LOAD C:\Users\nikol\projects\quectel\development\customer\threadx\workspace\apps\ml/libonnx.a(ConvTranspose.o) []
LOAD C:\Users\nikol\projects\quectel\development\customer\threadx\workspace\apps\ml/libonnx.a(Det.o) []
LOAD C:\Users\nikol\projects\quectel\development\customer\threadx\workspace\apps\ml/libonnx.a(Tanh.o) []
LOAD C:\Users\nikol\projects\quectel\development\customer\threadx\workspace\apps\ml/libonnx.a(If.o) []
LOAD C:\Users\nikol\projects\quectel\development\customer\threadx\workspace\apps\ml/libonnx.a(NonZero.o) []
LOAD C:\Users\nikol\projects\quectel\development\customer\threadx\workspace\apps\ml/libonnx.a(SpaceToDepth.o) []
LOAD C:\Users\nikol\projects\quectel\development\customer\threadx\workspace\apps\ml/libonnx.a(ConstantOfShape.o) []
LOAD C:\Users\nikol\projects\quectel\development\customer\threadx\workspace\apps\ml/libonnx.a(StringNormalizer.o) []
LOAD C:\Users\nikol\projects\quectel\development\customer\threadx\workspace\apps\ml/libonnx.a(Unique.o) []
LOAD C:\Users\nikol\projects\quectel\development\customer\threadx\workspace\apps\ml/libonnx.a(Xor.o) []
LOAD C:\Users\nikol\projects\quectel\development\customer\threadx\workspace\apps\ml/libonnx.a(Size.o) []
LOAD C:\Users\nikol\projects\quectel\development\customer\threadx\workspace\apps\ml/libonnx.a(And.o) []
LOAD C:\Users\nikol\projects\quectel\development\customer\threadx\workspace\apps\ml/libonnx.a(MaxRoiPool.o) []
LOAD C:\Users\nikol\projects\quectel\development\customer\threadx\workspace\apps\ml/libonnx.a(IsNaN.o) []
LOAD C:\Users\nikol\projects\quectel\development\customer\threadx\workspace\apps\ml/libonnx.a(LpNormalization.o) []
LOAD C:\Users\nikol\projects\quectel\development\customer\threadx\workspace\apps\ml/libonnx.a(Sqrt.o) []
LOAD C:\Users\nikol\projects\quectel\development\customer\threadx\workspace\apps\ml/libonnx.a(ThresholdedRelu.o) []
LOAD C:\Users\nikol\projects\quectel\development\customer\threadx\workspace\apps\ml/libonnx.a(Selu.o) []
LOAD C:\Users\nikol\projects\quectel\development\customer\threadx\workspace\apps\ml/libonnx.a(Resize.o) []
LOAD C:\Users\nikol\projects\quectel\development\customer\threadx\workspace\apps\ml/libonnx.a(LeakyRelu.o) []
LOAD C:\Users\nikol\projects\quectel\development\customer\threadx\workspace\apps\ml/libonnx.a(Transpose.o) []
LOAD C:\Users\nikol\projects\quectel\development\customer\threadx\workspace\apps\ml/libonnx.a(Mod.o) []
LOAD C:\Users\nikol\projects\quectel\development\customer\threadx\workspace\apps\ml/libonnx.a(InstanceNormalization.o) []
LOAD C:\Users\nikol\projects\quectel\development\customer\threadx\workspace\apps\ml/libonnx.a(Unsqueeze.o) []
LOAD C:\Users\nikol\projects\quectel\development\customer\threadx\workspace\apps\ml/libonnx.a(Atanh.o) []
LOAD C:\Users\nikol\projects\quectel\development\customer\threadx\workspace\apps\ml/libonnx.a(Softsign.o) []
LOAD C:\Users\nikol\projects\quectel\development\customer\threadx\workspace\apps\ml/libonnx.a(Softmax.o) []
LOAD C:\Users\nikol\projects\quectel\development\customer\threadx\workspace\apps\ml/libonnx.a(NegativeLogLikelihoodLoss.o) []
LOAD C:\Users\nikol\projects\quectel\development\customer\threadx\workspace\apps\ml/libonnx.a(Min.o) []
LOAD C:\Users\nikol\projects\quectel\development\customer\threadx\workspace\apps\ml/libonnx.a(MatMulInteger.o) []
LOAD C:\Users\nikol\projects\quectel\development\customer\threadx\workspace\apps\ml/libonnx.a(Cos.o) []
LOAD C:\Users\nikol\projects\quectel\development\customer\threadx\workspace\apps\ml/libonnx.a(ArgMin.o) []
LOAD C:\Users\nikol\projects\quectel\development\customer\threadx\workspace\apps\ml/libonnx.a(Relu.o) []
LOAD C:\Users\nikol\projects\quectel\development\customer\threadx\workspace\apps\ml/libonnx.a(MaxUnpool.o) []
LOAD C:\Users\nikol\projects\quectel\development\customer\threadx\workspace\apps\ml/libonnx.a(Exp.o) []
LOAD C:\Users\nikol\projects\quectel\development\customer\threadx\workspace\apps\ml/libonnx.a(Equal.o) []
LOAD C:\Users\nikol\projects\quectel\development\customer\threadx\workspace\apps\ml/libonnx.a(Squeeze.o) []
LOAD C:\Users\nikol\projects\quectel\development\customer\threadx\workspace\apps\ml/libonnx.a(Hardmax.o) []
LOAD C:\Users\nikol\projects\quectel\development\customer\threadx\workspace\apps\ml/libonnx.a(Sigmoid.o) []
LOAD C:\Users\nikol\projects\quectel\development\customer\threadx\workspace\apps\ml/libonnx.a(GatherND.o) []
LOAD C:\Users\nikol\projects\quectel\development\customer\threadx\workspace\apps\ml/libonnx.a(Less.o) []
LOAD C:\Users\nikol\projects\quectel\development\customer\threadx\workspace\apps\ml/libonnx.a(Abs.o) []
LOAD C:\Users\nikol\projects\quectel\development\customer\threadx\workspace\apps\ml/libonnx.a(ReduceMin.o) []
LOAD C:\Users\nikol\projects\quectel\development\customer\threadx\workspace\apps\ml/libonnx.a(RandomNormal.o) []
LOAD C:\Users\nikol\projects\quectel\development\customer\threadx\workspace\apps\ml/libonnx.a(BitShift.o) []
LOAD C:\Users\nikol\projects\quectel\development\customer\threadx\workspace\apps\ml/libonnx.a(Einsum.o) []
LOAD C:\Users\nikol\projects\quectel\development\customer\threadx\workspace\apps\ml/libonnx.a(QLinearConv.o) []
LOAD C:\Users\nikol\projects\quectel\development\customer\threadx\workspace\apps\ml/libonnx.a(RandomUniform.o) []
LOAD C:\Users\nikol\projects\quectel\development\customer\threadx\workspace\apps\ml/libonnx.a(DynamicQuantizeLinear.o) []
LOAD C:\Users\nikol\projects\quectel\development\customer\threadx\workspace\apps\ml/libonnx.a(Identity.o) []
LOAD C:\Users\nikol\projects\quectel\development\customer\threadx\workspace\apps\ml/libonnx.a(MatMul.o) []
LOAD C:\Users\nikol\projects\quectel\development\customer\threadx\workspace\apps\ml/libonnx.a(Mul.o) []
LOAD C:\Users\nikol\projects\quectel\development\customer\threadx\workspace\apps\ml/libonnx.a(SequenceConstruct.o) []
LOAD C:\Users\nikol\projects\quectel\development\customer\threadx\workspace\apps\ml/libonnx.a(CumSum.o) []
LOAD C:\Users\nikol\projects\quectel\development\customer\threadx\workspace\apps\ml/libonnx.a(Elu.o) []
LOAD C:\Users\nikol\projects\quectel\development\customer\threadx\workspace\apps\ml/libonnx.a(Gather.o) []
LOAD C:\Users\nikol\projects\quectel\development\customer\threadx\workspace\apps\ml/libonnx.a(protobuf-c.o) []
START GROUP
END GROUP
START GROUP
LOAD C:\Users\nikol\projects\quectel\development\customer\threadx\tools\LLVM\4.0.3\armv7m-none-eabi\libc\lib/libc.a(__errno_location.o) []
LOAD C:\Users\nikol\projects\quectel\development\customer\threadx\tools\LLVM\4.0.3\armv7m-none-eabi\libc\lib/libc.a(assert.o) []
LOAD C:\Users\nikol\projects\quectel\development\customer\threadx\tools\LLVM\4.0.3\armv7m-none-eabi\libc\lib/libc.a(acos.o) []
LOAD C:\Users\nikol\projects\quectel\development\customer\threadx\tools\LLVM\4.0.3\armv7m-none-eabi\libc\lib/libc.a(acosf.o) []
LOAD C:\Users\nikol\projects\quectel\development\customer\threadx\tools\LLVM\4.0.3\armv7m-none-eabi\libc\lib/libc.a(acosh.o) []
LOAD C:\Users\nikol\projects\quectel\development\customer\threadx\tools\LLVM\4.0.3\armv7m-none-eabi\libc\lib/libc.a(acoshf.o) []
LOAD C:\Users\nikol\projects\quectel\development\customer\threadx\tools\LLVM\4.0.3\armv7m-none-eabi\libc\lib/libc.a(sqrt.o) []
LOAD C:\Users\nikol\projects\quectel\development\customer\threadx\tools\LLVM\4.0.3\armv7m-none-eabi\libc\lib/libc.a(sqrtf.o) []
LOAD C:\Users\nikol\projects\quectel\development\customer\threadx\tools\LLVM\4.0.3\armv7m-none-eabi\libc\lib/libc.a(asin.o) []
LOAD C:\Users\nikol\projects\quectel\development\customer\threadx\tools\LLVM\4.0.3\armv7m-none-eabi\libc\lib/libc.a(asinf.o) []
LOAD C:\Users\nikol\projects\quectel\development\customer\threadx\tools\LLVM\4.0.3\armv7m-none-eabi\libc\lib/libc.a(asinh.o) []
LOAD C:\Users\nikol\projects\quectel\development\customer\threadx\tools\LLVM\4.0.3\armv7m-none-eabi\libc\lib/libc.a(asinhf.o) []
LOAD C:\Users\nikol\projects\quectel\development\customer\threadx\tools\LLVM\4.0.3\armv7m-none-eabi\libc\lib/libc.a(atan.o) []
LOAD C:\Users\nikol\projects\quectel\development\customer\threadx\tools\LLVM\4.0.3\armv7m-none-eabi\libc\lib/libc.a(atanf.o) []
LOAD C:\Users\nikol\projects\quectel\development\customer\threadx\tools\LLVM\4.0.3\armv7m-none-eabi\libc\lib/libc.a(atanh.o) []
LOAD C:\Users\nikol\projects\quectel\development\customer\threadx\tools\LLVM\4.0.3\armv7m-none-eabi\libc\lib/libc.a(atanhf.o) []
LOAD C:\Users\nikol\projects\quectel\development\customer\threadx\tools\LLVM\4.0.3\armv7m-none-eabi\libc\lib/libc.a(ceil.o) []
LOAD C:\Users\nikol\projects\quectel\development\customer\threadx\tools\LLVM\4.0.3\armv7m-none-eabi\libc\lib/libc.a(ceilf.o) []
LOAD C:\Users\nikol\projects\quectel\development\customer\threadx\tools\LLVM\4.0.3\armv7m-none-eabi\libc\lib/libc.a(cos.o) []
LOAD C:\Users\nikol\projects\quectel\development\customer\threadx\tools\LLVM\4.0.3\armv7m-none-eabi\libc\lib/libc.a(cosf.o) []
LOAD C:\Users\nikol\projects\quectel\development\customer\threadx\tools\LLVM\4.0.3\armv7m-none-eabi\libc\lib/libc.a(cosh.o) []
LOAD C:\Users\nikol\projects\quectel\development\customer\threadx\tools\LLVM\4.0.3\armv7m-none-eabi\libc\lib/libc.a(coshf.o) []
LOAD C:\Users\nikol\projects\quectel\development\customer\threadx\tools\LLVM\4.0.3\armv7m-none-eabi\libc\lib/libc.a(erf.o) []
LOAD C:\Users\nikol\projects\quectel\development\customer\threadx\tools\LLVM\4.0.3\armv7m-none-eabi\libc\lib/libc.a(erff.o) []
LOAD C:\Users\nikol\projects\quectel\development\customer\threadx\tools\LLVM\4.0.3\armv7m-none-eabi\libc\lib/libc.a(exp.o) []
LOAD C:\Users\nikol\projects\quectel\development\customer\threadx\tools\LLVM\4.0.3\armv7m-none-eabi\libc\lib/libc.a(expf.o) []
LOAD C:\Users\nikol\projects\quectel\development\customer\threadx\tools\LLVM\4.0.3\armv7m-none-eabi\libc\lib/libc.a(expm1.o) []
LOAD C:\Users\nikol\projects\quectel\development\customer\threadx\tools\LLVM\4.0.3\armv7m-none-eabi\libc\lib/libc.a(expm1f.o) []
LOAD C:\Users\nikol\projects\quectel\development\customer\threadx\tools\LLVM\4.0.3\armv7m-none-eabi\libc\lib/libc.a(floor.o) []
LOAD C:\Users\nikol\projects\quectel\development\customer\threadx\tools\LLVM\4.0.3\armv7m-none-eabi\libc\lib/libc.a(floorf.o) []
LOAD C:\Users\nikol\projects\quectel\development\customer\threadx\tools\LLVM\4.0.3\armv7m-none-eabi\libc\lib/libc.a(fmax.o) []
LOAD C:\Users\nikol\projects\quectel\development\customer\threadx\tools\LLVM\4.0.3\armv7m-none-eabi\libc\lib/libc.a(fmaxf.o) []
LOAD C:\Users\nikol\projects\quectel\development\customer\threadx\tools\LLVM\4.0.3\armv7m-none-eabi\libc\lib/libc.a(fmod.o) []
LOAD C:\Users\nikol\projects\quectel\development\customer\threadx\tools\LLVM\4.0.3\armv7m-none-eabi\libc\lib/libc.a(fmodf.o) []
LOAD C:\Users\nikol\projects\quectel\development\customer\threadx\tools\LLVM\4.0.3\armv7m-none-eabi\libc\lib/libc.a(log.o) []
LOAD C:\Users\nikol\projects\quectel\development\customer\threadx\tools\LLVM\4.0.3\armv7m-none-eabi\libc\lib/libc.a(log1p.o) []
LOAD C:\Users\nikol\projects\quectel\development\customer\threadx\tools\LLVM\4.0.3\armv7m-none-eabi\libc\lib/libc.a(log1pf.o) []
LOAD C:\Users\nikol\projects\quectel\development\customer\threadx\tools\LLVM\4.0.3\armv7m-none-eabi\libc\lib/libc.a(logf.o) []
LOAD C:\Users\nikol\projects\quectel\development\customer\threadx\tools\LLVM\4.0.3\armv7m-none-eabi\libc\lib/libc.a(nearbyint.o) []
LOAD C:\Users\nikol\projects\quectel\development\customer\threadx\tools\LLVM\4.0.3\armv7m-none-eabi\libc\lib/libc.a(pow.o) []
LOAD C:\Users\nikol\projects\quectel\development\customer\threadx\tools\LLVM\4.0.3\armv7m-none-eabi\libc\lib/libc.a(powf.o) []
LOAD C:\Users\nikol\projects\quectel\development\customer\threadx\tools\LLVM\4.0.3\armv7m-none-eabi\libc\lib/libc.a(rint.o) []
LOAD C:\Users\nikol\projects\quectel\development\customer\threadx\tools\LLVM\4.0.3\armv7m-none-eabi\libc\lib/libc.a(rintf.o) []
LOAD C:\Users\nikol\projects\quectel\development\customer\threadx\tools\LLVM\4.0.3\armv7m-none-eabi\libc\lib/libc.a(scalbn.o) []
LOAD C:\Users\nikol\projects\quectel\development\customer\threadx\tools\LLVM\4.0.3\armv7m-none-eabi\libc\lib/libc.a(scalbnf.o) []
LOAD C:\Users\nikol\projects\quectel\development\customer\threadx\tools\LLVM\4.0.3\armv7m-none-eabi\libc\lib/libc.a(sin.o) []
LOAD C:\Users\nikol\projects\quectel\development\customer\threadx\tools\LLVM\4.0.3\armv7m-none-eabi\libc\lib/libc.a(sinf.o) []
LOAD C:\Users\nikol\projects\quectel\development\customer\threadx\tools\LLVM\4.0.3\armv7m-none-eabi\libc\lib/libc.a(sinh.o) []
LOAD C:\Users\nikol\projects\quectel\development\customer\threadx\tools\LLVM\4.0.3\armv7m-none-eabi\libc\lib/libc.a(sinhf.o) []
LOAD C:\Users\nikol\projects\quectel\development\customer\threadx\tools\LLVM\4.0.3\armv7m-none-eabi\libc\lib/libc.a(tan.o) []
LOAD C:\Users\nikol\projects\quectel\development\customer\threadx\tools\LLVM\4.0.3\armv7m-none-eabi\libc\lib/libc.a(tanf.o) []
LOAD C:\Users\nikol\projects\quectel\development\customer\threadx\tools\LLVM\4.0.3\armv7m-none-eabi\libc\lib/libc.a(tanh.o) []
LOAD C:\Users\nikol\projects\quectel\development\customer\threadx\tools\LLVM\4.0.3\armv7m-none-eabi\libc\lib/libc.a(tanhf.o) []
LOAD C:\Users\nikol\projects\quectel\development\customer\threadx\tools\LLVM\4.0.3\armv7m-none-eabi\libc\lib/libc.a(rand.o) []
LOAD C:\Users\nikol\projects\quectel\development\customer\threadx\tools\LLVM\4.0.3\armv7m-none-eabi\libc\lib/libc.a(fopen.o) []
LOAD C:\Users\nikol\projects\quectel\development\customer\threadx\tools\LLVM\4.0.3\armv7m-none-eabi\libc\lib/libc.a(vfprintf.o) []
LOAD C:\Users\nikol\projects\quectel\development\customer\threadx\tools\LLVM\4.0.3\armv7m-none-eabi\libc\lib/libc.a(fclose.o) []
LOAD C:\Users\nikol\projects\quectel\development\customer\threadx\tools\LLVM\4.0.3\armv7m-none-eabi\libc\lib/libc.a(fflush.o) []
LOAD C:\Users\nikol\projects\quectel\development\customer\threadx\tools\LLVM\4.0.3\armv7m-none-eabi\libc\lib/libc.a(fprintf.o) []
LOAD C:\Users\nikol\projects\quectel\development\customer\threadx\tools\LLVM\4.0.3\armv7m-none-eabi\libc\lib/libc.a(fread.o) []
LOAD C:\Users\nikol\projects\quectel\development\customer\threadx\tools\LLVM\4.0.3\armv7m-none-eabi\libc\lib/libc.a(fseek.o) []
LOAD C:\Users\nikol\projects\quectel\development\customer\threadx\tools\LLVM\4.0.3\armv7m-none-eabi\libc\lib/libc.a(ftell.o) []
LOAD C:\Users\nikol\projects\quectel\development\customer\threadx\tools\LLVM\4.0.3\armv7m-none-eabi\libc\lib/libc.a(fwrite.o) []
LOAD C:\Users\nikol\projects\quectel\development\customer\threadx\tools\LLVM\4.0.3\armv7m-none-eabi\libc\lib/libc.a(sprintf.o) []
LOAD C:\Users\nikol\projects\quectel\development\customer\threadx\tools\LLVM\4.0.3\armv7m-none-eabi\libc\lib/libc.a(stderr.o) []
LOAD C:\Users\nikol\projects\quectel\development\customer\threadx\tools\LLVM\4.0.3\armv7m-none-eabi\libc\lib/libc.a(vsnprintf.o) []
LOAD C:\Users\nikol\projects\quectel\development\customer\threadx\tools\LLVM\4.0.3\armv7m-none-eabi\libc\lib/libc.a(vsprintf.o) []
LOAD C:\Users\nikol\projects\quectel\development\customer\threadx\tools\LLVM\4.0.3\armv7m-none-eabi\libc\lib/libc.a(strtod.o) []
LOAD C:\Users\nikol\projects\quectel\development\customer\threadx\tools\LLVM\4.0.3\armv7m-none-eabi\libc\lib/libc.a(strtol.o) []
LOAD C:\Users\nikol\projects\quectel\development\customer\threadx\tools\LLVM\4.0.3\armv7m-none-eabi\libc\lib/libc.a(__aeabi_memclr.o) []
LOAD C:\Users\nikol\projects\quectel\development\customer\threadx\tools\LLVM\4.0.3\armv7m-none-eabi\libc\lib/libc.a(__aeabi_memcpy.o) []
LOAD C:\Users\nikol\projects\quectel\development\customer\threadx\tools\LLVM\4.0.3\armv7m-none-eabi\libc\lib/libc.a(memcpy_le.o) []
LOAD C:\Users\nikol\projects\quectel\development\customer\threadx\tools\LLVM\4.0.3\armv7m-none-eabi\libc\lib/libc.a(memset_nofp_armv7.o) []
LOAD C:\Users\nikol\projects\quectel\development\customer\threadx\tools\LLVM\4.0.3\armv7m-none-eabi\libc\lib/libc.a(memchr.o) []
LOAD C:\Users\nikol\projects\quectel\development\customer\threadx\tools\LLVM\4.0.3\armv7m-none-eabi\libc\lib/libc.a(memcmp.o) []
LOAD C:\Users\nikol\projects\quectel\development\customer\threadx\tools\LLVM\4.0.3\armv7m-none-eabi\libc\lib/libc.a(memmove.o) []
LOAD C:\Users\nikol\projects\quectel\development\customer\threadx\tools\LLVM\4.0.3\armv7m-none-eabi\libc\lib/libc.a(strchr.o) []
LOAD C:\Users\nikol\projects\quectel\development\customer\threadx\tools\LLVM\4.0.3\armv7m-none-eabi\libc\lib/libc.a(strchrnul.o) []
LOAD C:\Users\nikol\projects\quectel\development\customer\threadx\tools\LLVM\4.0.3\armv7m-none-eabi\libc\lib/libc.a(strcmp.o) []
LOAD C:\Users\nikol\projects\quectel\development\customer\threadx\tools\LLVM\4.0.3\armv7m-none-eabi\libc\lib/libc.a(strdup.o) []
LOAD C:\Users\nikol\projects\quectel\development\customer\threadx\tools\LLVM\4.0.3\armv7m-none-eabi\libc\lib/libc.a(strlen.o) []
LOAD C:\Users\nikol\projects\quectel\development\customer\threadx\tools\LLVM\4.0.3\armv7m-none-eabi\libc\lib/libc.a(strncpy.o) []
LOAD C:\Users\nikol\projects\quectel\development\customer\threadx\tools\LLVM\4.0.3\armv7m-none-eabi\libc\lib/libc.a(strerror.o) []
LOAD C:\Users\nikol\projects\quectel\development\customer\threadx\tools\LLVM\4.0.3\armv7m-none-eabi\libc\lib/libc.a(floatscan.o) []
LOAD C:\Users\nikol\projects\quectel\development\customer\threadx\tools\LLVM\4.0.3\armv7m-none-eabi\libc\lib/libc.a(intscan.o) []
LOAD C:\Users\nikol\projects\quectel\development\customer\threadx\tools\LLVM\4.0.3\armv7m-none-eabi\libc\lib/libc.a(shgetc.o) []
LOAD C:\Users\nikol\projects\quectel\development\customer\threadx\tools\LLVM\4.0.3\armv7m-none-eabi\libc\lib/libc.a(__lctrans.o) []
LOAD C:\Users\nikol\projects\quectel\development\customer\threadx\tools\LLVM\4.0.3\armv7m-none-eabi\libc\lib/libc.a(__cos.o) []
LOAD C:\Users\nikol\projects\quectel\development\customer\threadx\tools\LLVM\4.0.3\armv7m-none-eabi\libc\lib/libc.a(__cosdf.o) []
LOAD C:\Users\nikol\projects\quectel\development\customer\threadx\tools\LLVM\4.0.3\armv7m-none-eabi\libc\lib/libc.a(__expo2.o) []
LOAD C:\Users\nikol\projects\quectel\development\customer\threadx\tools\LLVM\4.0.3\armv7m-none-eabi\libc\lib/libc.a(__expo2f.o) []
LOAD C:\Users\nikol\projects\quectel\development\customer\threadx\tools\LLVM\4.0.3\armv7m-none-eabi\libc\lib/libc.a(__rem_pio2.o) []
LOAD C:\Users\nikol\projects\quectel\development\customer\threadx\tools\LLVM\4.0.3\armv7m-none-eabi\libc\lib/libc.a(__rem_pio2_large.o) []
LOAD C:\Users\nikol\projects\quectel\development\customer\threadx\tools\LLVM\4.0.3\armv7m-none-eabi\libc\lib/libc.a(__rem_pio2f.o) []
LOAD C:\Users\nikol\projects\quectel\development\customer\threadx\tools\LLVM\4.0.3\armv7m-none-eabi\libc\lib/libc.a(__sin.o) []
LOAD C:\Users\nikol\projects\quectel\development\customer\threadx\tools\LLVM\4.0.3\armv7m-none-eabi\libc\lib/libc.a(__sindf.o) []
LOAD C:\Users\nikol\projects\quectel\development\customer\threadx\tools\LLVM\4.0.3\armv7m-none-eabi\libc\lib/libc.a(__tan.o) []
LOAD C:\Users\nikol\projects\quectel\development\customer\threadx\tools\LLVM\4.0.3\armv7m-none-eabi\libc\lib/libc.a(__tandf.o) []
LOAD C:\Users\nikol\projects\quectel\development\customer\threadx\tools\LLVM\4.0.3\armv7m-none-eabi\libc\lib/libc.a(fabs.o) []
LOAD C:\Users\nikol\projects\quectel\development\customer\threadx\tools\LLVM\4.0.3\armv7m-none-eabi\libc\lib/libc.a(fabsf.o) []
LOAD C:\Users\nikol\projects\quectel\development\customer\threadx\tools\LLVM\4.0.3\armv7m-none-eabi\libc\lib/libc.a(copysignl.o) []
LOAD C:\Users\nikol\projects\quectel\development\customer\threadx\tools\LLVM\4.0.3\armv7m-none-eabi\libc\lib/libc.a(fmodl.o) []
LOAD C:\Users\nikol\projects\quectel\development\customer\threadx\tools\LLVM\4.0.3\armv7m-none-eabi\libc\lib/libc.a(scalbnl.o) []
LOAD C:\Users\nikol\projects\quectel\development\customer\threadx\tools\LLVM\4.0.3\armv7m-none-eabi\libc\lib/libc.a(wctomb.o) []
LOAD C:\Users\nikol\projects\quectel\development\customer\threadx\tools\LLVM\4.0.3\armv7m-none-eabi\libc\lib/libc.a(__toread.o) []
LOAD C:\Users\nikol\projects\quectel\development\customer\threadx\tools\LLVM\4.0.3\armv7m-none-eabi\libc\lib/libc.a(__towrite.o) []
LOAD C:\Users\nikol\projects\quectel\development\customer\threadx\tools\LLVM\4.0.3\armv7m-none-eabi\libc\lib/libc.a(__uflow.o) []
LOAD C:\Users\nikol\projects\quectel\development\customer\threadx\tools\LLVM\4.0.3\armv7m-none-eabi\libc\lib/libc.a(__fdopen.o) []
LOAD C:\Users\nikol\projects\quectel\development\customer\threadx\tools\LLVM\4.0.3\armv7m-none-eabi\libc\lib/libc.a(__fmodeflags.o) []
LOAD C:\Users\nikol\projects\quectel\development\customer\threadx\tools\LLVM\4.0.3\armv7m-none-eabi\libc\lib/libc.a(__lockfile.o) []
LOAD C:\Users\nikol\projects\quectel\development\customer\threadx\tools\LLVM\4.0.3\armv7m-none-eabi\libc\lib/libc.a(__stdio_close.o) []
LOAD C:\Users\nikol\projects\quectel\development\customer\threadx\tools\LLVM\4.0.3\armv7m-none-eabi\libc\lib/libc.a(__stdio_read.o) []
LOAD C:\Users\nikol\projects\quectel\development\customer\threadx\tools\LLVM\4.0.3\armv7m-none-eabi\libc\lib/libc.a(__stdio_seek.o) []
LOAD C:\Users\nikol\projects\quectel\development\customer\threadx\tools\LLVM\4.0.3\armv7m-none-eabi\libc\lib/libc.a(__stdio_write.o) []
LOAD C:\Users\nikol\projects\quectel\development\customer\threadx\tools\LLVM\4.0.3\armv7m-none-eabi\libc\lib/libc.a(ofl.o) []
LOAD C:\Users\nikol\projects\quectel\development\customer\threadx\tools\LLVM\4.0.3\armv7m-none-eabi\libc\lib/libc.a(ofl_add.o) []
LOAD C:\Users\nikol\projects\quectel\development\customer\threadx\tools\LLVM\4.0.3\armv7m-none-eabi\libc\lib/libc.a(stpncpy.o) []
LOAD C:\Users\nikol\projects\quectel\development\customer\threadx\tools\LLVM\4.0.3\armv7m-none-eabi\libc\lib/libc.a(libc.o) []
LOAD C:\Users\nikol\projects\quectel\development\customer\threadx\tools\LLVM\4.0.3\armv7m-none-eabi\libc\lib/libc.a(copysign.o) []
LOAD C:\Users\nikol\projects\quectel\development\customer\threadx\tools\LLVM\4.0.3\armv7m-none-eabi\libc\lib/libc.a(wcrtomb.o) []
LOAD C:\Users\nikol\projects\quectel\development\customer\threadx\tools\LLVM\4.0.3\armv7m-none-eabi\libc\lib/libc.a(__stdio_exit.o) []
LOAD C:\Users\nikol\projects\quectel\development\customer\threadx\tools\LLVM\4.0.3\lib\clang\4.0.3\lib\baremetal/libclang_rt.builtins-armv7m.a(aeabi_dcmp.S.obj) []
LOAD C:\Users\nikol\projects\quectel\development\customer\threadx\tools\LLVM\4.0.3\lib\clang\4.0.3\lib\baremetal/libclang_rt.builtins-armv7m.a(aeabi_fcmp.S.obj) []
LOAD C:\Users\nikol\projects\quectel\development\customer\threadx\tools\LLVM\4.0.3\lib\clang\4.0.3\lib\baremetal/libclang_rt.builtins-armv7m.a(aeabi_idivmod.S.obj) []
LOAD C:\Users\nikol\projects\quectel\development\customer\threadx\tools\LLVM\4.0.3\lib\clang\4.0.3\lib\baremetal/libclang_rt.builtins-armv7m.a(aeabi_ldivmod.S.obj) []
LOAD C:\Users\nikol\projects\quectel\development\customer\threadx\tools\LLVM\4.0.3\lib\clang\4.0.3\lib\baremetal/libclang_rt.builtins-armv7m.a(aeabi_uidivmod.S.obj) []
LOAD C:\Users\nikol\projects\quectel\development\customer\threadx\tools\LLVM\4.0.3\lib\clang\4.0.3\lib\baremetal/libclang_rt.builtins-armv7m.a(aeabi_uldivmod.S.obj) []
LOAD C:\Users\nikol\projects\quectel\development\customer\threadx\tools\LLVM\4.0.3\lib\clang\4.0.3\lib\baremetal/libclang_rt.builtins-armv7m.a(adddf3.c.obj) []
LOAD C:\Users\nikol\projects\quectel\development\customer\threadx\tools\LLVM\4.0.3\lib\clang\4.0.3\lib\baremetal/libclang_rt.builtins-armv7m.a(addsf3.c.obj) []
LOAD C:\Users\nikol\projects\quectel\development\customer\threadx\tools\LLVM\4.0.3\lib\clang\4.0.3\lib\baremetal/libclang_rt.builtins-armv7m.a(comparedf2.c.obj) []
LOAD C:\Users\nikol\projects\quectel\development\customer\threadx\tools\LLVM\4.0.3\lib\clang\4.0.3\lib\baremetal/libclang_rt.builtins-armv7m.a(comparesf2.c.obj) []
LOAD C:\Users\nikol\projects\quectel\development\customer\threadx\tools\LLVM\4.0.3\lib\clang\4.0.3\lib\baremetal/libclang_rt.builtins-armv7m.a(divdf3.c.obj) []
LOAD C:\Users\nikol\projects\quectel\development\customer\threadx\tools\LLVM\4.0.3\lib\clang\4.0.3\lib\baremetal/libclang_rt.builtins-armv7m.a(divmoddi4.c.obj) []
LOAD C:\Users\nikol\projects\quectel\development\customer\threadx\tools\LLVM\4.0.3\lib\clang\4.0.3\lib\baremetal/libclang_rt.builtins-armv7m.a(divmodsi4.c.obj) []
LOAD C:\Users\nikol\projects\quectel\development\customer\threadx\tools\LLVM\4.0.3\lib\clang\4.0.3\lib\baremetal/libclang_rt.builtins-armv7m.a(divsf3.c.obj) []
LOAD C:\Users\nikol\projects\quectel\development\customer\threadx\tools\LLVM\4.0.3\lib\clang\4.0.3\lib\baremetal/libclang_rt.builtins-armv7m.a(divsi3.c.obj) []
LOAD C:\Users\nikol\projects\quectel\development\customer\threadx\tools\LLVM\4.0.3\lib\clang\4.0.3\lib\baremetal/libclang_rt.builtins-armv7m.a(extendsfdf2.c.obj) []
LOAD C:\Users\nikol\projects\quectel\development\customer\threadx\tools\LLVM\4.0.3\lib\clang\4.0.3\lib\baremetal/libclang_rt.builtins-armv7m.a(fixdfdi.c.obj) []
LOAD C:\Users\nikol\projects\quectel\development\customer\threadx\tools\LLVM\4.0.3\lib\clang\4.0.3\lib\baremetal/libclang_rt.builtins-armv7m.a(fixdfsi.c.obj) []
LOAD C:\Users\nikol\projects\quectel\development\customer\threadx\tools\LLVM\4.0.3\lib\clang\4.0.3\lib\baremetal/libclang_rt.builtins-armv7m.a(fixsfdi.c.obj) []
LOAD C:\Users\nikol\projects\quectel\development\customer\threadx\tools\LLVM\4.0.3\lib\clang\4.0.3\lib\baremetal/libclang_rt.builtins-armv7m.a(fixsfsi.c.obj) []
LOAD C:\Users\nikol\projects\quectel\development\customer\threadx\tools\LLVM\4.0.3\lib\clang\4.0.3\lib\baremetal/libclang_rt.builtins-armv7m.a(fixunsdfdi.c.obj) []
LOAD C:\Users\nikol\projects\quectel\development\customer\threadx\tools\LLVM\4.0.3\lib\clang\4.0.3\lib\baremetal/libclang_rt.builtins-armv7m.a(fixunsdfsi.c.obj) []
LOAD C:\Users\nikol\projects\quectel\development\customer\threadx\tools\LLVM\4.0.3\lib\clang\4.0.3\lib\baremetal/libclang_rt.builtins-armv7m.a(fixunssfdi.c.obj) []
LOAD C:\Users\nikol\projects\quectel\development\customer\threadx\tools\LLVM\4.0.3\lib\clang\4.0.3\lib\baremetal/libclang_rt.builtins-armv7m.a(fixunssfsi.c.obj) []
LOAD C:\Users\nikol\projects\quectel\development\customer\threadx\tools\LLVM\4.0.3\lib\clang\4.0.3\lib\baremetal/libclang_rt.builtins-armv7m.a(floatdidf.c.obj) []
LOAD C:\Users\nikol\projects\quectel\development\customer\threadx\tools\LLVM\4.0.3\lib\clang\4.0.3\lib\baremetal/libclang_rt.builtins-armv7m.a(floatdisf.c.obj) []
LOAD C:\Users\nikol\projects\quectel\development\customer\threadx\tools\LLVM\4.0.3\lib\clang\4.0.3\lib\baremetal/libclang_rt.builtins-armv7m.a(floatsidf.c.obj) []
LOAD C:\Users\nikol\projects\quectel\development\customer\threadx\tools\LLVM\4.0.3\lib\clang\4.0.3\lib\baremetal/libclang_rt.builtins-armv7m.a(floatsisf.c.obj) []
LOAD C:\Users\nikol\projects\quectel\development\customer\threadx\tools\LLVM\4.0.3\lib\clang\4.0.3\lib\baremetal/libclang_rt.builtins-armv7m.a(floatundidf.c.obj) []
LOAD C:\Users\nikol\projects\quectel\development\customer\threadx\tools\LLVM\4.0.3\lib\clang\4.0.3\lib\baremetal/libclang_rt.builtins-armv7m.a(floatundisf.c.obj) []
LOAD C:\Users\nikol\projects\quectel\development\customer\threadx\tools\LLVM\4.0.3\lib\clang\4.0.3\lib\baremetal/libclang_rt.builtins-armv7m.a(floatunsidf.c.obj) []
LOAD C:\Users\nikol\projects\quectel\development\customer\threadx\tools\LLVM\4.0.3\lib\clang\4.0.3\lib\baremetal/libclang_rt.builtins-armv7m.a(floatunsisf.c.obj) []
LOAD C:\Users\nikol\projects\quectel\development\customer\threadx\tools\LLVM\4.0.3\lib\clang\4.0.3\lib\baremetal/libclang_rt.builtins-armv7m.a(muldf3.c.obj) []
LOAD C:\Users\nikol\projects\quectel\development\customer\threadx\tools\LLVM\4.0.3\lib\clang\4.0.3\lib\baremetal/libclang_rt.builtins-armv7m.a(mulsf3.c.obj) []
LOAD C:\Users\nikol\projects\quectel\development\customer\threadx\tools\LLVM\4.0.3\lib\clang\4.0.3\lib\baremetal/libclang_rt.builtins-armv7m.a(subdf3.c.obj) []
LOAD C:\Users\nikol\projects\quectel\development\customer\threadx\tools\LLVM\4.0.3\lib\clang\4.0.3\lib\baremetal/libclang_rt.builtins-armv7m.a(subsf3.c.obj) []
LOAD C:\Users\nikol\projects\quectel\development\customer\threadx\tools\LLVM\4.0.3\lib\clang\4.0.3\lib\baremetal/libclang_rt.builtins-armv7m.a(truncdfsf2.c.obj) []
LOAD C:\Users\nikol\projects\quectel\development\customer\threadx\tools\LLVM\4.0.3\lib\clang\4.0.3\lib\baremetal/libclang_rt.builtins-armv7m.a(udivmoddi4.c.obj) []
LOAD C:\Users\nikol\projects\quectel\development\customer\threadx\tools\LLVM\4.0.3\lib\clang\4.0.3\lib\baremetal/libclang_rt.builtins-armv7m.a(udivmodsi4.c.obj) []
LOAD C:\Users\nikol\projects\quectel\development\customer\threadx\tools\LLVM\4.0.3\lib\clang\4.0.3\lib\baremetal/libclang_rt.builtins-armv7m.a(udivsi3.c.obj) []
LOAD C:\Users\nikol\projects\quectel\development\customer\threadx\tools\LLVM\4.0.3\lib\clang\4.0.3\lib\baremetal/libclang_rt.builtins-armv7m.a(divdi3.c.obj) []
END GROUP

Linker scripts used (including INCLUDE command)
./ldscripts/sections.ld

ER_RO	0x43000000	0xc8c90 # Offset: 0x60, LMA: 0x43000000
	Image$$ER_RO$$Base(0x43000000) = .( 0x43000000 );
*txm_module_preamble_llvm.o(.text .text.* )
*txm_module_preamble_llvm.o(Init )
Init	0x43000000	0x80	./ldscripts/txm_module_preamble_llvm.o	#SHT_PROGBITS,SHF_ALLOC|SHF_EXECINSTR,4
	0x43000000		.CODE32
	0x43000000		_txm_module_preamble
*txm_module_preamble_llvm.o(.rodata .rodata.* )
KEEP (*(.text .text.* ))
.text	0x43000080	0x774	out/common/src/retarget.o	#SHT_PROGBITS,SHF_ALLOC|SHF_EXECINSTR,4
	0x43000080		$a.0
	0x43000080		task_main_entry
	0x43000304		$d.1
	0x43000368		$a.2
	0x43000368		putchar
	0x430003e4		$d.3
	0x430003f4		$a.4
	0x430003f4		__wrap_puts
	0x430004e8		$d.5
	0x430004f8		$a.6
	0x430004f8		__wrap_printf
	0x430005cc		$d.7
	0x430005dc		$a.8
	0x430005dc		__wrap_gets
	0x430005e4		__wrap_getchar
	0x4300066c		$d.9
	0x43000680		$a.10
	0x43000680		uart_rx_cb
	0x430006a8		$d.11
	0x430006b0		$a.12
	0x430006b0		uart_tx_cb
	0x430006d0		$d.13
	0x430006d8		$a.14
	0x430006d8		qapi_uart_tx_user_cb_dispatcher
	0x430006f8		qapi_uart_rx_user_cb_dispatcher
	0x43000718		tracef_thread
	0x430007e0		$d.15
.text	0x430007f4	0x1d8	out/common/src/malloc.o	#SHT_PROGBITS,SHF_ALLOC|SHF_EXECINSTR,4
	0x430007f4		$a.0
	0x430007f4		memscpy
	0x4300081c		malloc_byte_pool_init
	0x43000894		$d.1
	0x430008ac		$a.2
	0x430008ac		malloc_get_pool
	0x430008b8		$d.3
	0x430008bc		$a.4
	0x430008bc		__wrap_malloc
	0x43000938		$d.5
	0x43000940		$a.6
	0x43000940		__wrap_free
	0x43000984		$d.7
	0x4300098c		$a.8
	0x4300098c		__wrap_calloc
	0x430009c4		__wrap_realloc
.text	0x430009cc	0xa4	out/common/src/memalign.o	#SHT_PROGBITS,SHF_ALLOC|SHF_EXECINSTR,4
	0x430009cc		$a.0
	0x430009cc		memalign
.text	0x43000a70	0x100	out/common/src/stubs.o	#SHT_PROGBITS,SHF_ALLOC|SHF_EXECINSTR,4
	0x43000a70		$a.0
	0x43000a70		abort
	0x43000aac		$d.1
	0x43000ab0		$a.2
	0x43000ab0		exit
	0x43000aec		$d.3
	0x43000af0		$a.4
	0x43000af0		_Exit
	0x43000b2c		$d.5
	0x43000b30		$a.6
	0x43000b30		quick_exit
	0x43000b6c		$d.7
.text	0x43000b70	0x3fc	out/src/main.o	#SHT_PROGBITS,SHF_ALLOC|SHF_EXECINSTR,8
	0x43000b70		$a.0
	0x43000b70		main
	0x43000ee8		$d.1
	0x43000f2c		$a.2
	0x43000f2c		time_get
	0x43000f58		$d.3
	0x43000f5c		$a.4
	0x43000f5c		hmap_entry_callback
.text.qapi_Timer_Get_Cbinfo	0x43000f6c	0x38	../../../Quectel_BG96_QuecOpen_SDK_Package_V3.0.1-AUS/SDK/libs/llvm\timer_dam_lib.lib(qapi_timer_user.o)	#SHT_PROGBITS,SHF_ALLOC|SHF_EXECINSTR,4
	0x43000f6c		$t.0
	0x43000f6d		qapi_Timer_Get_Cbinfo
	0x43000fa0		$d.1
.text.timer_client_cb_handler	0x43000fa4	0x28	../../../Quectel_BG96_QuecOpen_SDK_Package_V3.0.1-AUS/SDK/libs/llvm\timer_dam_lib.lib(qapi_timer_user.o)	#SHT_PROGBITS,SHF_ALLOC|SHF_EXECINSTR,2
	0x43000fa4		$t.2
	0x43000fa5		timer_client_cb_handler
.text.qapi_timer_user_init	0x43000fcc	0xb4	../../../Quectel_BG96_QuecOpen_SDK_Package_V3.0.1-AUS/SDK/libs/llvm\timer_dam_lib.lib(qapi_timer_user.o)	#SHT_PROGBITS,SHF_ALLOC|SHF_EXECINSTR,4
	0x43000fcc		$t.3
	0x43000fcd		qapi_timer_user_init
	0x4300105c		$d.4
.text.qapi_Timer_Def	0x43001080	0x54	../../../Quectel_BG96_QuecOpen_SDK_Package_V3.0.1-AUS/SDK/libs/llvm\timer_dam_lib.lib(qapi_timer_user.o)	#SHT_PROGBITS,SHF_ALLOC|SHF_EXECINSTR,4
	0x43001080		$t.5
	0x43001081		qapi_Timer_Def
	0x430010c8		$d.6
.text.qapi_Timer_Set	0x430010d4	0x38	../../../Quectel_BG96_QuecOpen_SDK_Package_V3.0.1-AUS/SDK/libs/llvm\timer_dam_lib.lib(qapi_timer_user.o)	#SHT_PROGBITS,SHF_ALLOC|SHF_EXECINSTR,4
	0x430010d4		$t.7
	0x430010d5		qapi_Timer_Set
	0x43001108		$d.8
.text.qapi_Timer_Get_Timer_Info	0x4300110c	0x38	../../../Quectel_BG96_QuecOpen_SDK_Package_V3.0.1-AUS/SDK/libs/llvm\timer_dam_lib.lib(qapi_timer_user.o)	#SHT_PROGBITS,SHF_ALLOC|SHF_EXECINSTR,4
	0x4300110c		$t.9
	0x4300110d		qapi_Timer_Get_Timer_Info
	0x43001140		$d.10
.text.qapi_Timer_Sleep	0x43001144	0x38	../../../Quectel_BG96_QuecOpen_SDK_Package_V3.0.1-AUS/SDK/libs/llvm\timer_dam_lib.lib(qapi_timer_user.o)	#SHT_PROGBITS,SHF_ALLOC|SHF_EXECINSTR,4
	0x43001144		$t.11
	0x43001145		qapi_Timer_Sleep
	0x43001178		$d.12
.text.qapi_Timer_Undef	0x4300117c	0x34	../../../Quectel_BG96_QuecOpen_SDK_Package_V3.0.1-AUS/SDK/libs/llvm\timer_dam_lib.lib(qapi_timer_user.o)	#SHT_PROGBITS,SHF_ALLOC|SHF_EXECINSTR,4
	0x4300117c		$t.13
	0x4300117d		qapi_Timer_Undef
	0x430011ac		$d.14
.text.qapi_Timer_Stop	0x430011b0	0x34	../../../Quectel_BG96_QuecOpen_SDK_Package_V3.0.1-AUS/SDK/libs/llvm\timer_dam_lib.lib(qapi_timer_user.o)	#SHT_PROGBITS,SHF_ALLOC|SHF_EXECINSTR,4
	0x430011b0		$t.15
	0x430011b1		qapi_Timer_Stop
	0x430011e0		$d.16
.text.qapi_time_get	0x430011e4	0x3c	../../../Quectel_BG96_QuecOpen_SDK_Package_V3.0.1-AUS/SDK/libs/llvm\timer_dam_lib.lib(qapi_timer_user.o)	#SHT_PROGBITS,SHF_ALLOC|SHF_EXECINSTR,4
	0x430011e4		$t.17
	0x430011e5		qapi_time_get
	0x4300121c		$d.18
.text._txm_module_thread_shell_entry	0x43001220	0x94	../../../Quectel_BG96_QuecOpen_SDK_Package_V3.0.1-AUS/SDK/libs/llvm\txm_lib.lib(txm_module_thread_shell_entry.o)	#SHT_PROGBITS,SHF_ALLOC|SHF_EXECINSTR,4
	0x43001220		$a.0
	0x43001220		_txm_module_thread_shell_entry
	0x430012a8		$d.1
.text._txm_module_callback_request_thread_entry	0x430012b4	0x108	../../../Quectel_BG96_QuecOpen_SDK_Package_V3.0.1-AUS/SDK/libs/llvm\txm_lib.lib(txm_module_callback_request_thread_entry.o)	#SHT_PROGBITS,SHF_ALLOC|SHF_EXECINSTR,4
	0x430012b4		$a.0
	0x430012b4		_txm_module_callback_request_thread_entry
	0x4300130c		$d.1
	0x43001320		$a.2
	0x430013b4		$d.3
.text._txm_module_system_call11	0x430013bc	0x68	../../../Quectel_BG96_QuecOpen_SDK_Package_V3.0.1-AUS/SDK/libs/llvm\txm_lib.lib(txm_module_system_call11.o)	#SHT_PROGBITS,SHF_ALLOC|SHF_EXECINSTR,4
	0x430013bc		$a.0
	0x430013bc		_txm_module_system_call11
	0x43001420		$d.1
.text._txm_module_system_call12	0x43001424	0x70	../../../Quectel_BG96_QuecOpen_SDK_Package_V3.0.1-AUS/SDK/libs/llvm\txm_lib.lib(txm_module_system_call12.o)	#SHT_PROGBITS,SHF_ALLOC|SHF_EXECINSTR,4
	0x43001424		$a.0
	0x43001424		_txm_module_system_call12
	0x43001490		$d.1
.text._txm_module_system_call4	0x43001494	0x2c	../../../Quectel_BG96_QuecOpen_SDK_Package_V3.0.1-AUS/SDK/libs/llvm\txm_lib.lib(txm_module_system_call4.o)	#SHT_PROGBITS,SHF_ALLOC|SHF_EXECINSTR,4
	0x43001494		$a.0
	0x43001494		_txm_module_system_call4
	0x430014bc		$d.1
.text._txm_module_system_call5	0x430014c0	0x34	../../../Quectel_BG96_QuecOpen_SDK_Package_V3.0.1-AUS/SDK/libs/llvm\txm_lib.lib(txm_module_system_call5.o)	#SHT_PROGBITS,SHF_ALLOC|SHF_EXECINSTR,4
	0x430014c0		$a.0
	0x430014c0		_txm_module_system_call5
	0x430014f0		$d.1
.text._txm_module_system_call6	0x430014f4	0x3c	../../../Quectel_BG96_QuecOpen_SDK_Package_V3.0.1-AUS/SDK/libs/llvm\txm_lib.lib(txm_module_system_call6.o)	#SHT_PROGBITS,SHF_ALLOC|SHF_EXECINSTR,4
	0x430014f4		$a.0
	0x430014f4		_txm_module_system_call6
	0x4300152c		$d.1
.text	0x43001530	0xa10	C:\Users\nikol\projects\quectel\development\customer\threadx\workspace\apps\ml/libonnx.a(hmap.o)	#SHT_PROGBITS,SHF_ALLOC|SHF_EXECINSTR,4
	0x43001530		$a.0
	0x43001530		hmap_alloc
	0x43001630		hmap_free
	0x43001660		hmap_clear
	0x43001780		hmap_add
	0x43001908		hmap_resize
	0x43001ac0		hmap_remove
	0x43001bcc		hmap_sort
	0x43001ea4		hmap_search
.text	0x43001f40	0x4900	C:\Users\nikol\projects\quectel\development\customer\threadx\workspace\apps\ml/libonnx.a(onnx.o)	#SHT_PROGBITS,SHF_ALLOC|SHF_EXECINSTR,4
	0x43001f40		$a.0
	0x43001f40		onnx_context_alloc
	0x43002a54		$d.1
	0x43002aa4		onnx_tensor_search
	0x43002aa4		$a.2
	0x43002ac4		onnx_tensor_alloc_from_value_info
	0x43002dac		$d.3
	0x43002dc0		onnx_tensor_copy_from_tensor_proto
	0x43002dc0		$a.4
	0x43002e24		$d.5
	0x43002e64		$a.6
	0x43002e9c		$d.7
	0x43002edc		$a.8
	0x43003aac		$d.9
	0x43003ab0		$a.10
	0x43003ab0		onnx_tensor_alloc
	0x43003b4c		$d.11
	0x43003b58		$a.12
	0x43003b58		hmap_entry_callback
	0x43003b70		resolver_solve_operator
	0x43004b6c		$d.13
	0x43004b70		$a.14
	0x43004b74		$d.15
	0x43004ef4		$a.16
	0x43004ef4		reshape_dummy
	0x43004efc		operator_dummy
	0x43004f24		$d.17
	0x43004f2c		$a.18
	0x43004f2c		onnx_context_alloc_from_file
	0x43004ff0		$d.19
	0x43004ff4		$a.20
	0x43004ff4		onnx_context_free
	0x43005118		$d.21
	0x4300511c		$a.22
	0x4300511c		onnx_tensor_type_tostring
	0x43005134		$d.23
	0x4300513c		$a.24
	0x4300513c		onnx_tensor_type_sizeof
	0x43005158		$d.25
	0x4300515c		onnx_tensor_reinit
	0x4300515c		$a.26
	0x43005454		$d.27
	0x43005468		$a.28
	0x43005468		onnx_tensor_alloc_from_file
	0x43005658		$d.29
	0x43005668		$a.30
	0x43005668		onnx_tensor_free
	0x43005714		onnx_tensor_apply
	0x43005898		$d.31
	0x4300589c		onnx_attribute_read_float
	0x4300589c		$a.32
	0x43005918		onnx_attribute_read_int
	0x430059a0		onnx_attribute_read_string
	0x43005a28		onnx_attribute_read_floats
	0x43005abc		onnx_attribute_read_ints
	0x43005b50		onnx_attribute_read_tensor
	0x43005cd0		onnx_attribute_read_graph
	0x43005d58		onnx_attribute_read_sparse_tensor
	0x43005de0		onnx_tensor_dump
	0x4300617c		$d.33
	0x430061bc		$a.34
	0x43006344		$d.35
	0x43006384		$a.36
	0x43006530		$d.37
	0x4300659c		$a.38
	0x4300659c		onnx_node_dump
	0x43006690		$d.39
	0x430066a4		$a.40
	0x430066a4		onnx_context_dump
	0x430067a8		$d.41
	0x430067c4		$a.42
	0x430067c4		onnx_run
	0x43006834		resolver_default_create
	0x4300683c		resolver_default_destroy
.text	0x43006840	0x1400	C:\Users\nikol\projects\quectel\development\customer\threadx\workspace\apps\ml/libonnx.a(onnx.proto3.pb-c.o)	#SHT_PROGBITS,SHF_ALLOC|SHF_EXECINSTR,4
	0x43006840		$a.0
	0x43006840		onnx__attribute_proto__init
	0x4300684c		$d.1
	0x43006850		onnx__attribute_proto__get_packed_size
	0x43006850		$a.2
	0x43006888		$d.3
	0x43006898		onnx__attribute_proto__pack
	0x43006898		$a.4
	0x430068d8		$d.5
	0x430068e8		onnx__attribute_proto__pack_to_buffer
	0x430068e8		$a.6
	0x43006928		$d.7
	0x43006938		onnx__attribute_proto__unpack
	0x43006938		$a.8
	0x4300694c		$d.9
	0x43006950		$a.10
	0x43006950		onnx__attribute_proto__free_unpacked
	0x4300699c		$d.11
	0x430069ac		$a.12
	0x430069ac		onnx__value_info_proto__init
	0x430069c4		$d.13
	0x430069c8		onnx__value_info_proto__get_packed_size
	0x430069c8		$a.14
	0x43006a00		$d.15
	0x43006a10		$a.16
	0x43006a10		onnx__value_info_proto__pack
	0x43006a50		$d.17
	0x43006a60		$a.18
	0x43006a60		onnx__value_info_proto__pack_to_buffer
	0x43006aa0		$d.19
	0x43006ab0		onnx__value_info_proto__unpack
	0x43006ab0		$a.20
	0x43006ac4		$d.21
	0x43006ac8		onnx__value_info_proto__free_unpacked
	0x43006ac8		$a.22
	0x43006b14		$d.23
	0x43006b24		onnx__node_proto__init
	0x43006b24		$a.24
	0x43006b4c		$d.25
	0x43006b50		$a.26
	0x43006b50		onnx__node_proto__get_packed_size
	0x43006b88		$d.27
	0x43006b98		onnx__node_proto__pack
	0x43006b98		$a.28
	0x43006bd8		$d.29
	0x43006be8		$a.30
	0x43006be8		onnx__node_proto__pack_to_buffer
	0x43006c28		$d.31
	0x43006c38		onnx__node_proto__unpack
	0x43006c38		$a.32
	0x43006c4c		$d.33
	0x43006c50		$a.34
	0x43006c50		onnx__node_proto__free_unpacked
	0x43006c9c		$d.35
	0x43006cac		onnx__training_info_proto__init
	0x43006cac		$a.36
	0x43006ccc		$d.37
	0x43006cd0		onnx__training_info_proto__get_packed_size
	0x43006cd0		$a.38
	0x43006d08		$d.39
	0x43006d18		onnx__training_info_proto__pack
	0x43006d18		$a.40
	0x43006d58		$d.41
	0x43006d68		$a.42
	0x43006d68		onnx__training_info_proto__pack_to_buffer
	0x43006da8		$d.43
	0x43006db8		onnx__training_info_proto__unpack
	0x43006db8		$a.44
	0x43006dcc		$d.45
	0x43006dd0		$a.46
	0x43006dd0		onnx__training_info_proto__free_unpacked
	0x43006e1c		$d.47
	0x43006e2c		$a.48
	0x43006e2c		onnx__model_proto__init
	0x43006e38		$d.49
	0x43006e3c		$a.50
	0x43006e3c		onnx__model_proto__get_packed_size
	0x43006e74		$d.51
	0x43006e84		$a.52
	0x43006e84		onnx__model_proto__pack
	0x43006ec4		$d.53
	0x43006ed4		$a.54
	0x43006ed4		onnx__model_proto__pack_to_buffer
	0x43006f14		$d.55
	0x43006f24		$a.56
	0x43006f24		onnx__model_proto__unpack
	0x43006f38		$d.57
	0x43006f3c		$a.58
	0x43006f3c		onnx__model_proto__free_unpacked
	0x43006f88		$d.59
	0x43006f98		$a.60
	0x43006f98		onnx__string_string_entry_proto__init
	0x43006fb0		$d.61
	0x43006fb4		onnx__string_string_entry_proto__get_packed_size
	0x43006fb4		$a.62
	0x43006fec		$d.63
	0x43006ffc		onnx__string_string_entry_proto__pack
	0x43006ffc		$a.64
	0x4300703c		$d.65
	0x4300704c		onnx__string_string_entry_proto__pack_to_buffer
	0x4300704c		$a.66
	0x43007090		$d.67
	0x430070a0		onnx__string_string_entry_proto__unpack
	0x430070a0		$a.68
	0x430070b4		$d.69
	0x430070b8		onnx__string_string_entry_proto__free_unpacked
	0x430070b8		$a.70
	0x43007108		$d.71
	0x43007118		$a.72
	0x43007118		onnx__tensor_annotation__init
	0x43007130		$d.73
	0x43007134		$a.74
	0x43007134		onnx__tensor_annotation__get_packed_size
	0x43007170		$d.75
	0x43007180		$a.76
	0x43007180		onnx__tensor_annotation__pack
	0x430071c0		$d.77
	0x430071d0		onnx__tensor_annotation__pack_to_buffer
	0x430071d0		$a.78
	0x43007214		$d.79
	0x43007224		$a.80
	0x43007224		onnx__tensor_annotation__unpack
	0x43007238		$d.81
	0x4300723c		$a.82
	0x4300723c		onnx__tensor_annotation__free_unpacked
	0x4300728c		$d.83
	0x4300729c		onnx__graph_proto__init
	0x4300729c		$a.84
	0x430072a8		$d.85
	0x430072ac		onnx__graph_proto__get_packed_size
	0x430072ac		$a.86
	0x430072e8		$d.87
	0x430072f8		$a.88
	0x430072f8		onnx__graph_proto__pack
	0x4300733c		$d.89
	0x4300734c		$a.90
	0x4300734c		onnx__graph_proto__pack_to_buffer
	0x4300738c		$d.91
	0x4300739c		$a.92
	0x4300739c		onnx__graph_proto__unpack
	0x430073b0		$d.93
	0x430073b4		$a.94
	0x430073b4		onnx__graph_proto__free_unpacked
	0x43007404		$d.95
	0x43007414		$a.96
	0x43007414		onnx__tensor_proto__segment__init
	0x43007434		$d.97
	0x43007438		$a.98
	0x43007438		onnx__tensor_proto__init
	0x43007444		$d.99
	0x43007448		$a.100
	0x43007448		onnx__tensor_proto__get_packed_size
	0x43007484		$d.101
	0x43007494		$a.102
	0x43007494		onnx__tensor_proto__pack
	0x430074d4		$d.103
	0x430074e4		$a.104
	0x430074e4		onnx__tensor_proto__pack_to_buffer
	0x43007528		$d.105
	0x43007538		$a.106
	0x43007538		onnx__tensor_proto__unpack
	0x4300754c		$d.107
	0x43007550		$a.108
	0x43007550		onnx__tensor_proto__free_unpacked
	0x430075a0		$d.109
	0x430075b0		onnx__sparse_tensor_proto__init
	0x430075b0		$a.110
	0x430075d0		$d.111
	0x430075d4		onnx__sparse_tensor_proto__get_packed_size
	0x430075d4		$a.112
	0x43007610		$d.113
	0x43007620		onnx__sparse_tensor_proto__pack
	0x43007620		$a.114
	0x43007664		$d.115
	0x43007674		onnx__sparse_tensor_proto__pack_to_buffer
	0x43007674		$a.116
	0x430076b4		$d.117
	0x430076c4		onnx__sparse_tensor_proto__unpack
	0x430076c4		$a.118
	0x430076d8		$d.119
	0x430076dc		onnx__sparse_tensor_proto__free_unpacked
	0x430076dc		$a.120
	0x4300772c		$d.121
	0x4300773c		onnx__tensor_shape_proto__dimension__init
	0x4300773c		$a.122
	0x4300775c		$d.123
	0x43007760		$a.124
	0x43007760		onnx__tensor_shape_proto__init
	0x43007778		$d.125
	0x4300777c		onnx__tensor_shape_proto__get_packed_size
	0x4300777c		$a.126
	0x430077b8		$d.127
	0x430077c8		onnx__tensor_shape_proto__pack
	0x430077c8		$a.128
	0x43007808		$d.129
	0x43007818		onnx__tensor_shape_proto__pack_to_buffer
	0x43007818		$a.130
	0x4300785c		$d.131
	0x4300786c		onnx__tensor_shape_proto__unpack
	0x4300786c		$a.132
	0x43007880		$d.133
	0x43007884		onnx__tensor_shape_proto__free_unpacked
	0x43007884		$a.134
	0x430078d4		$d.135
	0x430078e4		onnx__type_proto__tensor__init
	0x430078e4		$a.136
	0x430078fc		$d.137
	0x43007900		onnx__type_proto__sequence__init
	0x43007900		$a.138
	0x43007918		$d.139
	0x4300791c		onnx__type_proto__map__init
	0x4300791c		$a.140
	0x43007934		$d.141
	0x43007938		onnx__type_proto__init
	0x43007938		$a.142
	0x43007950		$d.143
	0x43007954		onnx__type_proto__get_packed_size
	0x43007954		$a.144
	0x4300798c		$d.145
	0x4300799c		onnx__type_proto__pack
	0x4300799c		$a.146
	0x430079e0		$d.147
	0x430079f0		onnx__type_proto__pack_to_buffer
	0x430079f0		$a.148
	0x43007a34		$d.149
	0x43007a44		onnx__type_proto__unpack
	0x43007a44		$a.150
	0x43007a58		$d.151
	0x43007a5c		$a.152
	0x43007a5c		onnx__type_proto__free_unpacked
	0x43007aac		$d.153
	0x43007abc		$a.154
	0x43007abc		onnx__operator_set_id_proto__init
	0x43007ad4		$d.155
	0x43007ad8		$a.156
	0x43007ad8		onnx__operator_set_id_proto__get_packed_size
	0x43007b14		$d.157
	0x43007b24		onnx__operator_set_id_proto__pack
	0x43007b24		$a.158
	0x43007b64		$d.159
	0x43007b74		$a.160
	0x43007b74		onnx__operator_set_id_proto__pack_to_buffer
	0x43007bb8		$d.161
	0x43007bc8		$a.162
	0x43007bc8		onnx__operator_set_id_proto__unpack
	0x43007bdc		$d.163
	0x43007be0		$a.164
	0x43007be0		onnx__operator_set_id_proto__free_unpacked
	0x43007c30		$d.165
.text	0x43007c40	0x4	C:\Users\nikol\projects\quectel\development\customer\threadx\workspace\apps\ml/libonnx.a(Compress.o)	#SHT_PROGBITS,SHF_ALLOC|SHF_EXECINSTR,4
	0x43007c40		$a.0
	0x43007c40		resolver_default_op_Compress
.text	0x43007c44	0x1204	C:\Users\nikol\projects\quectel\development\customer\threadx\workspace\apps\ml/libonnx.a(LRN.o)	#SHT_PROGBITS,SHF_ALLOC|SHF_EXECINSTR,4
	0x43007c44		$a.0
	0x43007c44		resolver_default_op_LRN
	0x43007c74		$d.1
	0x43007cb4		$a.2
	0x43007d64		$d.3
	0x43007d80		$a.4
	0x43007d80		LRN_init
	0x43007e1c		$d.5
	0x43007e30		$a.6
	0x43007e30		LRN_exit
	0x43007e50		LRN_reshape
	0x43007ec8		LRN_bfloat16
	0x43008258		LRN_float16
	0x4300866c		LRN_float32
	0x430089cc		LRN_float64
.text	0x43008e48	0x23c	C:\Users\nikol\projects\quectel\development\customer\threadx\workspace\apps\ml/libonnx.a(Shape.o)	#SHT_PROGBITS,SHF_ALLOC|SHF_EXECINSTR,4
	0x43008e48		$a.0
	0x43008e48		resolver_default_op_Shape
	0x43008eb4		$d.1
	0x43008ec4		$a.2
	0x43008ec4		Shape_init
	0x43008eec		Shape_exit
	0x43008ef4		Shape_reshape
	0x43008f78		Shape_operator
.text	0x43009084	0x1384	C:\Users\nikol\projects\quectel\development\customer\threadx\workspace\apps\ml/libonnx.a(Multinomial.o)	#SHT_PROGBITS,SHF_ALLOC|SHF_EXECINSTR,4
	0x43009084		$a.0
	0x43009084		resolver_default_op_Multinomial
	0x43009118		$d.1
	0x43009130		$a.2
	0x43009130		Multinomial_init
	0x430091bc		$d.3
	0x430091c8		$a.4
	0x430091c8		Multinomial_exit
	0x430091e8		Multinomial_reshape
	0x43009264		Multinomial_float16
	0x43009874		Multinomial_float32
	0x43009ddc		Multinomial_float64
	0x4300a404		$d.5
.text	0x4300a408	0x4b40	C:\Users\nikol\projects\quectel\development\customer\threadx\workspace\apps\ml/libonnx.a(ReduceL2.o)	#SHT_PROGBITS,SHF_ALLOC|SHF_EXECINSTR,4
	0x4300a408		$a.0
	0x4300a408		resolver_default_op_ReduceL2
	0x4300a438		$d.1
	0x4300a478		$a.2
	0x4300a4c4		$d.3
	0x4300a4f8		$a.4
	0x4300a524		$d.5
	0x4300a558		$a.6
	0x4300a67c		$d.7
	0x4300a6b0		$a.8
	0x4300a6b0		ReduceL2_init
	0x4300a7f4		$d.9
	0x4300a7fc		$a.10
	0x4300a7fc		ReduceL2_exit
	0x4300a840		ReduceL2_reshape
	0x4300a9f8		ReduceL2_int8
	0x4300b0d0		ReduceL2_int32
	0x4300b7a0		ReduceL2_int64
	0x4300be94		ReduceL2_uint8
	0x4300c564		ReduceL2_uint32
	0x4300cc34		ReduceL2_uint64
	0x4300d328		ReduceL2_bfloat16
	0x4300da14		ReduceL2_float16
	0x4300e144		ReduceL2_float32
	0x4300e820		ReduceL2_float64
.text	0x4300ef48	0x1428	C:\Users\nikol\projects\quectel\development\customer\threadx\workspace\apps\ml/libonnx.a(Sub.o)	#SHT_PROGBITS,SHF_ALLOC|SHF_EXECINSTR,4
	0x4300ef48		$a.0
	0x4300ef48		resolver_default_op_Sub
	0x4300ef78		$d.1
	0x4300efb8		$a.2
	0x4300f004		$d.3
	0x4300f038		$a.4
	0x4300f11c		$d.5
	0x4300f148		$a.6
	0x4300f148		Sub_init
	0x4300f170		Sub_exit
	0x4300f178		Sub_reshape
	0x4300f190		Sub_int32
	0x4300f330		Sub_int64
	0x4300f504		Sub_uint32
	0x4300f6a4		Sub_uint64
	0x4300f878		Sub_bfloat16
	0x4300fa5c		Sub_float16
	0x4300fc34		Sub_float32
	0x4300fddc		Sub_float64
	0x4300ffa8		onnx_tensor_reshape_multi_broadcast
	0x430100e8		onnx_tensor_broadcast_map_address
.text	0x43010370	0x5778	C:\Users\nikol\projects\quectel\development\customer\threadx\workspace\apps\ml/libonnx.a(ReduceMean.o)	#SHT_PROGBITS,SHF_ALLOC|SHF_EXECINSTR,4
	0x43010370		$a.0
	0x43010370		resolver_default_op_ReduceMean
	0x430103a0		$d.1
	0x430103e0		$a.2
	0x4301042c		$d.3
	0x43010460		$a.4
	0x4301048c		$d.5
	0x430104c0		$a.6
	0x430105e4		$d.7
	0x43010618		$a.8
	0x43010618		ReduceMean_init
	0x4301075c		$d.9
	0x43010764		$a.10
	0x43010764		ReduceMean_exit
	0x430107a8		ReduceMean_reshape
	0x43010960		ReduceMean_int8
	0x4301118c		ReduceMean_int32
	0x430119ac		ReduceMean_int64
	0x430121f8		ReduceMean_uint8
	0x43012a10		ReduceMean_uint32
	0x43013228		ReduceMean_uint64
	0x43013a74		ReduceMean_bfloat16
	0x4301423c		ReduceMean_float16
	0x43014a48		ReduceMean_float32
	0x43015240		ReduceMean_float64
.text	0x43015ae8	0x4	C:\Users\nikol\projects\quectel\development\customer\threadx\workspace\apps\ml/libonnx.a(QuantizeLinear.o)	#SHT_PROGBITS,SHF_ALLOC|SHF_EXECINSTR,4
	0x43015ae8		$a.0
	0x43015ae8		resolver_default_op_QuantizeLinear
.text	0x43015aec	0x488	C:\Users\nikol\projects\quectel\development\customer\threadx\workspace\apps\ml/libonnx.a(Sin.o)	#SHT_PROGBITS,SHF_ALLOC|SHF_EXECINSTR,4
	0x43015aec		$a.0
	0x43015aec		resolver_default_op_Sin
	0x43015b80		$d.1
	0x43015b98		$a.2
	0x43015b98		Sin_init
	0x43015bc0		Sin_exit
	0x43015bc8		Sin_reshape
	0x43015c40		Sin_float16
	0x43015d94		Sin_float32
	0x43015e64		Sin_float64
.text	0x43015f74	0x4	C:\Users\nikol\projects\quectel\development\customer\threadx\workspace\apps\ml/libonnx.a(SequenceAt.o)	#SHT_PROGBITS,SHF_ALLOC|SHF_EXECINSTR,4
	0x43015f74		$a.0
	0x43015f74		resolver_default_op_SequenceAt
.text	0x43015f78	0xf6c	C:\Users\nikol\projects\quectel\development\customer\threadx\workspace\apps\ml/libonnx.a(GlobalLpPool.o)	#SHT_PROGBITS,SHF_ALLOC|SHF_EXECINSTR,4
	0x43015f78		$a.0
	0x43015f78		resolver_default_op_GlobalLpPool
	0x43016014		$d.1
	0x4301602c		$a.2
	0x4301602c		GlobalLpPool_init
	0x430160ac		$d.3
	0x430160b0		$a.4
	0x430160b0		GlobalLpPool_exit
	0x430160d0		GlobalLpPool_reshape
	0x43016288		GlobalLpPool_float16
	0x430165b4		GlobalLpPool_float32
	0x43016968		GlobalLpPool_float64
.text	0x43016ee4	0x22ec	C:\Users\nikol\projects\quectel\development\customer\threadx\workspace\apps\ml/libonnx.a(AveragePool.o)	#SHT_PROGBITS,SHF_ALLOC|SHF_EXECINSTR,4
	0x43016ee4		$a.0
	0x43016ee4		resolver_default_op_AveragePool
	0x43016f90		$d.1
	0x43016fa8		$a.2
	0x43016fa8		AveragePool_init
	0x430172d4		$d.3
	0x430172fc		$a.4
	0x430172fc		AveragePool_exit
	0x43017350		AveragePool_reshape
	0x430173b0		$d.5
	0x430173c0		$a.6
	0x43017744		AveragePool_float16
	0x4301804c		AveragePool_float32
	0x430188fc		AveragePool_float64
.text	0x430191d0	0x4	C:\Users\nikol\projects\quectel\development\customer\threadx\workspace\apps\ml/libonnx.a(SequenceInsert.o)	#SHT_PROGBITS,SHF_ALLOC|SHF_EXECINSTR,4
	0x430191d0		$a.0
	0x430191d0		resolver_default_op_SequenceInsert
.text	0x430191d4	0x974	C:\Users\nikol\projects\quectel\development\customer\threadx\workspace\apps\ml/libonnx.a(RandomUniformLike.o)	#SHT_PROGBITS,SHF_ALLOC|SHF_EXECINSTR,4
	0x430191d4		$a.0
	0x430191d4		resolver_default_op_RandomUniformLike
	0x43019204		$d.1
	0x43019214		$a.2
	0x43019214		RandomUniformLike_init
	0x430192b0		$d.3
	0x430192c0		$a.4
	0x430192c0		RandomUniformLike_exit
	0x430192e0		RandomUniformLike_reshape
	0x43019388		RandomUniformLike_operator
	0x43019b44		$d.5
.text	0x43019b48	0xae4	C:\Users\nikol\projects\quectel\development\customer\threadx\workspace\apps\ml/libonnx.a(Neg.o)	#SHT_PROGBITS,SHF_ALLOC|SHF_EXECINSTR,4
	0x43019b48		$a.0
	0x43019b48		resolver_default_op_Neg
	0x43019b78		$d.1
	0x43019bb8		$a.2
	0x43019c04		$d.3
	0x43019c30		$a.4
	0x43019d40		$d.5
	0x43019d6c		$a.6
	0x43019d6c		Neg_init
	0x43019d94		Neg_exit
	0x43019d9c		Neg_reshape
	0x43019e14		Neg_int8
	0x43019ee4		Neg_int16
	0x43019fb4		Neg_int32
	0x4301a084		Neg_int64
	0x4301a1c4		Neg_bfloat16
	0x4301a294		Neg_float16
	0x4301a3e0		Neg_float32
	0x4301a4d4		Neg_float64
.text	0x4301a62c	0x488	C:\Users\nikol\projects\quectel\development\customer\threadx\workspace\apps\ml/libonnx.a(Tan.o)	#SHT_PROGBITS,SHF_ALLOC|SHF_EXECINSTR,4
	0x4301a62c		$a.0
	0x4301a62c		resolver_default_op_Tan
	0x4301a6c0		$d.1
	0x4301a6d8		$a.2
	0x4301a6d8		Tan_init
	0x4301a700		Tan_exit
	0x4301a708		Tan_reshape
	0x4301a780		Tan_float16
	0x4301a8d4		Tan_float32
	0x4301a9a4		Tan_float64
.text	0x4301aab4	0xa74	C:\Users\nikol\projects\quectel\development\customer\threadx\workspace\apps\ml/libonnx.a(Concat.o)	#SHT_PROGBITS,SHF_ALLOC|SHF_EXECINSTR,4
	0x4301aab4		$a.0
	0x4301aab4		resolver_default_op_Concat
	0x4301ab58		$d.1
	0x4301ab68		$a.2
	0x4301ab68		Concat_init
	0x4301abcc		$d.3
	0x4301abd0		$a.4
	0x4301abd0		Concat_exit
	0x4301abf0		Concat_reshape
	0x4301ad84		Concat_operator
.text	0x4301b528	0x51e0	C:\Users\nikol\projects\quectel\development\customer\threadx\workspace\apps\ml/libonnx.a(ReduceLogSumExp.o)	#SHT_PROGBITS,SHF_ALLOC|SHF_EXECINSTR,4
	0x4301b528		$a.0
	0x4301b528		resolver_default_op_ReduceLogSumExp
	0x4301b558		$d.1
	0x4301b598		$a.2
	0x4301b5e4		$d.3
	0x4301b618		$a.4
	0x4301b644		$d.5
	0x4301b678		$a.6
	0x4301b79c		$d.7
	0x4301b7d0		$a.8
	0x4301b7d0		ReduceLogSumExp_init
	0x4301b914		$d.9
	0x4301b91c		$a.10
	0x4301b91c		ReduceLogSumExp_exit
	0x4301b960		ReduceLogSumExp_reshape
	0x4301bb18		ReduceLogSumExp_int8
	0x4301c2a4		ReduceLogSumExp_int32
	0x4301ca28		ReduceLogSumExp_int64
	0x4301d1bc		ReduceLogSumExp_uint8
	0x4301d940		ReduceLogSumExp_uint32
	0x4301e0c4		ReduceLogSumExp_uint64
	0x4301e858		ReduceLogSumExp_bfloat16
	0x4301efe4		ReduceLogSumExp_float16
	0x4301f7c0		ReduceLogSumExp_float32
	0x4301ff34		ReduceLogSumExp_float64
.text	0x43020708	0x1c5c	C:\Users\nikol\projects\quectel\development\customer\threadx\workspace\apps\ml/libonnx.a(Greater.o)	#SHT_PROGBITS,SHF_ALLOC|SHF_EXECINSTR,4
	0x43020708		$a.0
	0x43020708		resolver_default_op_Greater
	0x43020738		$d.1
	0x43020778		$a.2
	0x430207c4		$d.3
	0x430207f8		$a.4
	0x43020988		$d.5
	0x430209c4		$a.6
	0x430209c4		Greater_init
	0x430209ec		Greater_exit
	0x430209f4		Greater_reshape
	0x43020a08		Greater_int8
	0x43020bc4		Greater_int16
	0x43020d80		Greater_int32
	0x43020f3c		Greater_int64
	0x43021120		Greater_uint8
	0x430212dc		Greater_uint16
	0x43021498		Greater_uint32
	0x43021654		Greater_uint64
	0x43021838		Greater_bfloat16
	0x43021a30		Greater_float16
	0x43021be4		Greater_float32
	0x43021db4		Greater_float64
	0x43021fa4		onnx_tensor_reshape_multi_broadcast
	0x430220dc		onnx_tensor_broadcast_map_address
.text	0x43022364	0x1b94	C:\Users\nikol\projects\quectel\development\customer\threadx\workspace\apps\ml/libonnx.a(Tile.o)	#SHT_PROGBITS,SHF_ALLOC|SHF_EXECINSTR,4
	0x43022364		$a.0
	0x43022364		resolver_default_op_Tile
	0x43022394		$d.1
	0x430223d4		$a.2
	0x43022420		$d.3
	0x4302245c		$a.4
	0x43022640		$d.5
	0x4302268c		$a.6
	0x4302268c		Tile_init
	0x430226b4		Tile_exit
	0x430226bc		Tile_reshape
	0x43022838		Tile_bool
	0x4302297c		Tile_int8
	0x43022ac0		Tile_int16
	0x43022c04		Tile_int32
	0x43022d48		Tile_int64
	0x43022ed8		Tile_uint8
	0x4302301c		Tile_uint16
	0x43023160		Tile_uint32
	0x430232a4		Tile_uint64
	0x43023434		Tile_bfloat16
	0x43023578		Tile_float16
	0x430236bc		Tile_float32
	0x43023800		Tile_float64
	0x43023990		Tile_complex64
	0x43023aac		Tile_complex128
	0x43023c04		Tile_string
	0x43023c70		onnx_tensor_broadcast_map_address
.text	0x43023ef8	0x1134	C:\Users\nikol\projects\quectel\development\customer\threadx\workspace\apps\ml/libonnx.a(LogSoftmax.o)	#SHT_PROGBITS,SHF_ALLOC|SHF_EXECINSTR,4
	0x43023ef8		$a.0
	0x43023ef8		resolver_default_op_LogSoftmax
	0x43023f2c		$d.1
	0x43023f6c		$a.2
	0x43023fa0		$d.3
	0x43023fbc		$a.4
	0x43023fbc		LogSoftmax_init
	0x4302401c		$d.5
	0x43024020		$a.6
	0x43024020		LogSoftmax_exit
	0x43024040		LogSoftmax_reshape
	0x4302415c		LogSoftmax_bfloat16
	0x430244c8		LogSoftmax_float16
	0x430248d4		LogSoftmax_float32
	0x43024c00		LogSoftmax_float64
.text	0x4302502c	0x19a0	C:\Users\nikol\projects\quectel\development\customer\threadx\workspace\apps\ml/libonnx.a(LessOrEqual.o)	#SHT_PROGBITS,SHF_ALLOC|SHF_EXECINSTR,4
	0x4302502c		$a.0
	0x4302502c		resolver_default_op_LessOrEqual
	0x4302505c		$d.1
	0x43025090		$a.2
	0x430251ec		$d.3
	0x43025224		$a.4
	0x43025224		LessOrEqual_init
	0x4302524c		LessOrEqual_exit
	0x43025254		LessOrEqual_reshape
	0x43025268		LessOrEqual_int8
	0x43025424		LessOrEqual_int16
	0x430255e0		LessOrEqual_int32
	0x4302579c		LessOrEqual_int64
	0x43025980		LessOrEqual_uint8
	0x43025b3c		LessOrEqual_uint16
	0x43025cf8		LessOrEqual_uint32
	0x43025eb4		LessOrEqual_uint64
	0x43026098		LessOrEqual_float16
	0x4302624c		LessOrEqual_float32
	0x4302641c		LessOrEqual_float64
	0x4302660c		onnx_tensor_reshape_multi_broadcast
	0x43026744		onnx_tensor_broadcast_map_address
.text	0x430269cc	0x4	C:\Users\nikol\projects\quectel\development\customer\threadx\workspace\apps\ml/libonnx.a(RoiAlign.o)	#SHT_PROGBITS,SHF_ALLOC|SHF_EXECINSTR,4
	0x430269cc		$a.0
	0x430269cc		resolver_default_op_RoiAlign
.text	0x430269d0	0x4	C:\Users\nikol\projects\quectel\development\customer\threadx\workspace\apps\ml/libonnx.a(RNN.o)	#SHT_PROGBITS,SHF_ALLOC|SHF_EXECINSTR,4
	0x430269d0		$a.0
	0x430269d0		resolver_default_op_RNN
.text	0x430269d4	0x488	C:\Users\nikol\projects\quectel\development\customer\threadx\workspace\apps\ml/libonnx.a(Asinh.o)	#SHT_PROGBITS,SHF_ALLOC|SHF_EXECINSTR,4
	0x430269d4		$a.0
	0x430269d4		resolver_default_op_Asinh
	0x43026a68		$d.1
	0x43026a80		$a.2
	0x43026a80		Asinh_init
	0x43026aa8		Asinh_exit
	0x43026ab0		Asinh_reshape
	0x43026b28		Asinh_float16
	0x43026c7c		Asinh_float32
	0x43026d4c		Asinh_float64
.text	0x43026e5c	0x4	C:\Users\nikol\projects\quectel\development\customer\threadx\workspace\apps\ml/libonnx.a(MeanVarianceNormalization.o)	#SHT_PROGBITS,SHF_ALLOC|SHF_EXECINSTR,4
	0x43026e5c		$a.0
	0x43026e5c		resolver_default_op_MeanVarianceNormalization
.text	0x43026e60	0x4	C:\Users\nikol\projects\quectel\development\customer\threadx\workspace\apps\ml/libonnx.a(SplitToSequence.o)	#SHT_PROGBITS,SHF_ALLOC|SHF_EXECINSTR,4
	0x43026e60		$a.0
	0x43026e60		resolver_default_op_SplitToSequence
.text	0x43026e64	0x4	C:\Users\nikol\projects\quectel\development\customer\threadx\workspace\apps\ml/libonnx.a(QLinearMatMul.o)	#SHT_PROGBITS,SHF_ALLOC|SHF_EXECINSTR,4
	0x43026e64		$a.0
	0x43026e64		resolver_default_op_QLinearMatMul
.text	0x43026e68	0x4	C:\Users\nikol\projects\quectel\development\customer\threadx\workspace\apps\ml/libonnx.a(OneHot.o)	#SHT_PROGBITS,SHF_ALLOC|SHF_EXECINSTR,4
	0x43026e68		$a.0
	0x43026e68		resolver_default_op_OneHot
.text	0x43026e6c	0x19a8	C:\Users\nikol\projects\quectel\development\customer\threadx\workspace\apps\ml/libonnx.a(GreaterOrEqual.o)	#SHT_PROGBITS,SHF_ALLOC|SHF_EXECINSTR,4
	0x43026e6c		$a.0
	0x43026e6c		resolver_default_op_GreaterOrEqual
	0x43026e9c		$d.1
	0x43026ed0		$a.2
	0x43027034		$d.3
	0x4302706c		$a.4
	0x4302706c		GreaterOrEqual_init
	0x43027094		GreaterOrEqual_exit
	0x4302709c		GreaterOrEqual_reshape
	0x430270b0		GreaterOrEqual_int8
	0x4302726c		GreaterOrEqual_int16
	0x43027428		GreaterOrEqual_int32
	0x430275e4		GreaterOrEqual_int64
	0x430277c8		GreaterOrEqual_uint8
	0x43027984		GreaterOrEqual_uint16
	0x43027b40		GreaterOrEqual_uint32
	0x43027cfc		GreaterOrEqual_uint64
	0x43027ee0		GreaterOrEqual_float16
	0x43028094		GreaterOrEqual_float32
	0x43028264		GreaterOrEqual_float64
	0x43028454		onnx_tensor_reshape_multi_broadcast
	0x4302858c		onnx_tensor_broadcast_map_address
.text	0x43028814	0x1384	C:\Users\nikol\projects\quectel\development\customer\threadx\workspace\apps\ml/libonnx.a(Div.o)	#SHT_PROGBITS,SHF_ALLOC|SHF_EXECINSTR,4
	0x43028814		$a.0
	0x43028814		resolver_default_op_Div
	0x43028844		$d.1
	0x43028884		$a.2
	0x430288d0		$d.3
	0x43028904		$a.4
	0x430289e8		$d.5
	0x43028a14		$a.6
	0x43028a14		Div_7_init
	0x43028a3c		Div_7_exit
	0x43028a44		Div_7_reshape
	0x43028a5c		Div_7_int32
	0x43028c04		Div_7_int64
	0x43028dd0		Div_7_uint32
	0x43028f78		Div_7_uint64
	0x43029144		Div_13_bfloat16
	0x43029284		Div_7_float16
	0x4302945c		Div_7_float32
	0x43029604		Div_7_float64
	0x430297d0		onnx_tensor_reshape_multi_broadcast
	0x43029910		onnx_tensor_broadcast_map_address
.text	0x43029b98	0x4	C:\Users\nikol\projects\quectel\development\customer\threadx\workspace\apps\ml/libonnx.a(GRU.o)	#SHT_PROGBITS,SHF_ALLOC|SHF_EXECINSTR,4
	0x43029b98		$a.0
	0x43029b98		resolver_default_op_GRU
.text	0x43029b9c	0x4	C:\Users\nikol\projects\quectel\development\customer\threadx\workspace\apps\ml/libonnx.a(Scan.o)	#SHT_PROGBITS,SHF_ALLOC|SHF_EXECINSTR,4
	0x43029b9c		$a.0
	0x43029b9c		resolver_default_op_Scan
.text	0x43029ba0	0x4	C:\Users\nikol\projects\quectel\development\customer\threadx\workspace\apps\ml/libonnx.a(NonMaxSuppression.o)	#SHT_PROGBITS,SHF_ALLOC|SHF_EXECINSTR,4
	0x43029ba0		$a.0
	0x43029ba0		resolver_default_op_NonMaxSuppression
.text	0x43029ba4	0x620	C:\Users\nikol\projects\quectel\development\customer\threadx\workspace\apps\ml/libonnx.a(Ceil.o)	#SHT_PROGBITS,SHF_ALLOC|SHF_EXECINSTR,4
	0x43029ba4		$a.0
	0x43029ba4		resolver_default_op_Ceil
	0x43029bd4		$d.1
	0x43029c14		$a.2
	0x43029ccc		$d.3
	0x43029ce8		$a.4
	0x43029ce8		Ceil_init
	0x43029d10		Ceil_exit
	0x43029d18		Ceil_reshape
	0x43029d90		Ceil_bfloat16
	0x43029e90		Ceil_float16
	0x43029fe4		Ceil_float32
	0x4302a0b4		Ceil_float64
.text	0x4302a1c4	0x102c	C:\Users\nikol\projects\quectel\development\customer\threadx\workspace\apps\ml/libonnx.a(PRelu.o)	#SHT_PROGBITS,SHF_ALLOC|SHF_EXECINSTR,4
	0x4302a1c4		$a.0
	0x4302a1c4		resolver_default_op_PRelu
	0x4302a1f4		$d.1
	0x4302a228		$a.2
	0x4302a348		$d.3
	0x4302a370		$a.4
	0x4302a370		PRelu_init
	0x4302a398		PRelu_exit
	0x4302a3a0		PRelu_reshape
	0x4302a418		PRelu_int32
	0x4302a590		PRelu_int64
	0x4302a798		PRelu_uint32
	0x4302a844		PRelu_uint64
	0x4302a940		PRelu_float16
	0x4302ab20		PRelu_float32
	0x4302ad14		PRelu_float64
	0x4302af68		onnx_tensor_broadcast_map_address
.text	0x4302b1f0	0xb48	C:\Users\nikol\projects\quectel\development\customer\threadx\workspace\apps\ml/libonnx.a(HardSigmoid.o)	#SHT_PROGBITS,SHF_ALLOC|SHF_EXECINSTR,4
	0x4302b1f0		$a.0
	0x4302b1f0		resolver_default_op_HardSigmoid
	0x4302b2ec		$d.1
	0x4302b304		$a.2
	0x4302b304		HardSigmoid_init
	0x4302b374		$d.3
	0x4302b380		$a.4
	0x4302b380		HardSigmoid_exit
	0x4302b3a0		HardSigmoid_reshape
	0x4302b418		HardSigmoid_float16
	0x4302b6cc		HardSigmoid_float32
	0x4302b878		HardSigmoid_float64
.text	0x4302bd38	0x4	C:\Users\nikol\projects\quectel\development\customer\threadx\workspace\apps\ml/libonnx.a(SoftmaxCrossEntropyLoss.o)	#SHT_PROGBITS,SHF_ALLOC|SHF_EXECINSTR,4
	0x4302bd38		$a.0
	0x4302bd38		resolver_default_op_SoftmaxCrossEntropyLoss
.text	0x4302bd3c	0x4	C:\Users\nikol\projects\quectel\development\customer\threadx\workspace\apps\ml/libonnx.a(ConcatFromSequence.o)	#SHT_PROGBITS,SHF_ALLOC|SHF_EXECINSTR,4
	0x4302bd3c		$a.0
	0x4302bd3c		resolver_default_op_ConcatFromSequence
.text	0x4302bd40	0x4	C:\Users\nikol\projects\quectel\development\customer\threadx\workspace\apps\ml/libonnx.a(ConvInteger.o)	#SHT_PROGBITS,SHF_ALLOC|SHF_EXECINSTR,4
	0x4302bd40		$a.0
	0x4302bd40		resolver_default_op_ConvInteger
.text	0x4302bd44	0x3b4	C:\Users\nikol\projects\quectel\development\customer\threadx\workspace\apps\ml/libonnx.a(Constant.o)	#SHT_PROGBITS,SHF_ALLOC|SHF_EXECINSTR,4
	0x4302bd44		$a.0
	0x4302bd44		resolver_default_op_Constant
	0x4302bd74		$d.1
	0x4302bd84		$a.2
	0x4302bd84		Constant_init
	0x4302bddc		$d.3
	0x4302bdfc		$a.4
	0x4302c0cc		$d.5
	0x4302c0e4		$a.6
	0x4302c0e4		Constant_exit
	0x4302c0ec		Constant_reshape
	0x4302c0f4		Constant_operator
.text	0x4302c0f8	0x1f40	C:\Users\nikol\projects\quectel\development\customer\threadx\workspace\apps\ml/libonnx.a(Clip.o)	#SHT_PROGBITS,SHF_ALLOC|SHF_EXECINSTR,4
	0x4302c0f8		$a.0
	0x4302c0f8		resolver_default_op_Clip
	0x4302c128		$d.1
	0x4302c168		$a.2
	0x4302c1b4		$d.3
	0x4302c1e8		$a.4
	0x4302c378		$d.5
	0x4302c3b4		$a.6
	0x4302c3b4		Clip_init
	0x4302c404		Clip_exit
	0x4302c424		Clip_reshape
	0x4302c52c		$d.7
	0x4302c534		$a.8
	0x4302c534		Clip_int8
	0x4302c6dc		Clip_int16
	0x4302c898		Clip_int32
	0x4302ca38		Clip_int64
	0x4302ce14		Clip_uint8
	0x4302cfac		Clip_uint16
	0x4302d158		Clip_uint32
	0x4302d2f8		Clip_uint64
	0x4302d6e8		Clip_bfloat16
	0x4302d7ac		Clip_float16
	0x4302d8bc		Clip_float32
	0x4302db5c		$d.9
	0x4302db60		$a.10
	0x4302db60		Clip_float64
	0x4302e034		$d.11
.text	0x4302e038	0x928	C:\Users\nikol\projects\quectel\development\customer\threadx\workspace\apps\ml/libonnx.a(Mean.o)	#SHT_PROGBITS,SHF_ALLOC|SHF_EXECINSTR,4
	0x4302e038		$a.0
	0x4302e038		resolver_default_op_Mean
	0x4302e068		$d.1
	0x4302e0a8		$a.2
	0x4302e168		$d.3
	0x4302e184		$a.4
	0x4302e184		Mean_init
	0x4302e1ac		Mean_exit
	0x4302e1b4		Mean_reshape
	0x4302e280		Mean_bfloat16
	0x4302e334		Mean_float16
	0x4302e420		Mean_float32
	0x4302e4cc		Mean_float64
	0x4302e598		onnx_tensor_reshape_multi_broadcast
	0x4302e6d8		onnx_tensor_broadcast_map_address
.text	0x4302e960	0x4	C:\Users\nikol\projects\quectel\development\customer\threadx\workspace\apps\ml/libonnx.a(Slice.o)	#SHT_PROGBITS,SHF_ALLOC|SHF_EXECINSTR,4
	0x4302e960		$a.0
	0x4302e960		resolver_default_op_Slice
.text	0x4302e964	0x4	C:\Users\nikol\projects\quectel\development\customer\threadx\workspace\apps\ml/libonnx.a(Loop.o)	#SHT_PROGBITS,SHF_ALLOC|SHF_EXECINSTR,4
	0x4302e964		$a.0
	0x4302e964		resolver_default_op_Loop
.text	0x4302e968	0x4	C:\Users\nikol\projects\quectel\development\customer\threadx\workspace\apps\ml/libonnx.a(Split.o)	#SHT_PROGBITS,SHF_ALLOC|SHF_EXECINSTR,4
	0x4302e968		$a.0
	0x4302e968		resolver_default_op_Split
.text	0x4302e96c	0x1410	C:\Users\nikol\projects\quectel\development\customer\threadx\workspace\apps\ml/libonnx.a(Add.o)	#SHT_PROGBITS,SHF_ALLOC|SHF_EXECINSTR,4
	0x4302e96c		$a.0
	0x4302e96c		resolver_default_op_Add
	0x4302e99c		$d.1
	0x4302e9dc		$a.2
	0x4302ea28		$d.3
	0x4302ea5c		$a.4
	0x4302eb40		$d.5
	0x4302eb6c		$a.6
	0x4302eb6c		Add_7_init
	0x4302eb94		Add_7_exit
	0x4302eb9c		Add_7_reshape
	0x4302ebb4		Add_7_int32
	0x4302ed48		Add_7_int64
	0x4302ef1c		Add_7_uint32
	0x4302f0b0		Add_7_uint64
	0x4302f284		Add_13_bfloat16
	0x4302f468		Add_7_float16
	0x4302f640		Add_7_float32
	0x4302f7e8		Add_7_float64
	0x4302f9b4		onnx_tensor_reshape_multi_broadcast
	0x4302faf4		onnx_tensor_broadcast_map_address
.text	0x4302fd7c	0x488	C:\Users\nikol\projects\quectel\development\customer\threadx\workspace\apps\ml/libonnx.a(Sinh.o)	#SHT_PROGBITS,SHF_ALLOC|SHF_EXECINSTR,4
	0x4302fd7c		$a.0
	0x4302fd7c		resolver_default_op_Sinh
	0x4302fe10		$d.1
	0x4302fe28		$a.2
	0x4302fe28		Sinh_init
	0x4302fe50		Sinh_exit
	0x4302fe58		Sinh_reshape
	0x4302fed0		Sinh_float16
	0x43030024		Sinh_float32
	0x430300f4		Sinh_float64
.text	0x43030204	0x4	C:\Users\nikol\projects\quectel\development\customer\threadx\workspace\apps\ml/libonnx.a(DepthToSpace.o)	#SHT_PROGBITS,SHF_ALLOC|SHF_EXECINSTR,4
	0x43030204		$a.0
	0x43030204		resolver_default_op_DepthToSpace
.text	0x43030208	0x488	C:\Users\nikol\projects\quectel\development\customer\threadx\workspace\apps\ml/libonnx.a(Cosh.o)	#SHT_PROGBITS,SHF_ALLOC|SHF_EXECINSTR,4
	0x43030208		$a.0
	0x43030208		resolver_default_op_Cosh
	0x4303029c		$d.1
	0x430302b4		$a.2
	0x430302b4		Cosh_init
	0x430302dc		Cosh_exit
	0x430302e4		Cosh_reshape
	0x4303035c		Cosh_float16
	0x430304b0		Cosh_float32
	0x43030580		Cosh_float64
.text	0x43030690	0xbb20	C:\Users\nikol\projects\quectel\development\customer\threadx\workspace\apps\ml/libonnx.a(Gemm.o)	#SHT_PROGBITS,SHF_ALLOC|SHF_EXECINSTR,4
	0x43030690		$a.0
	0x43030690		resolver_default_op_Gemm
	0x430306c0		$d.1
	0x43030700		$a.2
	0x4303074c		$d.3
	0x43030780		$a.4
	0x430307ac		$d.5
	0x430307e0		$a.6
	0x430308f0		$d.7
	0x4303091c		$a.8
	0x4303091c		Gemm_init
	0x430309d0		$d.9
	0x430309e0		$a.10
	0x430309e0		Gemm_exit
	0x43030a00		Gemm_reshape
	0x43030b64		Gemm_int32
	0x43031cc8		Gemm_int64
	0x4303370c		Gemm_uint32
	0x43034870		Gemm_uint64
	0x430362b4		Gemm_bfloat16
	0x43037728		Gemm_float16
	0x43038b58		Gemm_float32
	0x4303a160		Gemm_float64
	0x4303bf28		onnx_tensor_broadcast_map_address
.text	0x4303c1b0	0xbd8	C:\Users\nikol\projects\quectel\development\customer\threadx\workspace\apps\ml/libonnx.a(RandomNormalLike.o)	#SHT_PROGBITS,SHF_ALLOC|SHF_EXECINSTR,4
	0x4303c1b0		$a.0
	0x4303c1b0		resolver_default_op_RandomNormalLike
	0x4303c1e0		$d.1
	0x4303c1f0		$a.2
	0x4303c1f0		RandomNormalLike_init
	0x4303c28c		$d.3
	0x4303c29c		$a.4
	0x4303c29c		RandomNormalLike_exit
	0x4303c2bc		RandomNormalLike_reshape
	0x4303c364		RandomNormalLike_operator
	0x4303cd7c		$d.5
.text	0x4303cd88	0x4	C:\Users\nikol\projects\quectel\development\customer\threadx\workspace\apps\ml/libonnx.a(TopK.o)	#SHT_PROGBITS,SHF_ALLOC|SHF_EXECINSTR,4
	0x4303cd88		$a.0
	0x4303cd88		resolver_default_op_TopK
.text	0x4303cd8c	0x4a04	C:\Users\nikol\projects\quectel\development\customer\threadx\workspace\apps\ml/libonnx.a(ReduceSumSquare.o)	#SHT_PROGBITS,SHF_ALLOC|SHF_EXECINSTR,4
	0x4303cd8c		$a.0
	0x4303cd8c		resolver_default_op_ReduceSumSquare
	0x4303cdbc		$d.1
	0x4303cdfc		$a.2
	0x4303ce48		$d.3
	0x4303ce7c		$a.4
	0x4303cea8		$d.5
	0x4303cedc		$a.6
	0x4303d000		$d.7
	0x4303d034		$a.8
	0x4303d034		ReduceSumSquare_init
	0x4303d178		$d.9
	0x4303d180		$a.10
	0x4303d180		ReduceSumSquare_exit
	0x4303d1c4		ReduceSumSquare_reshape
	0x4303d37c		ReduceSumSquare_int8
	0x4303da50		ReduceSumSquare_int32
	0x4303e11c		ReduceSumSquare_int64
	0x4303e7cc		ReduceSumSquare_uint8
	0x4303ee98		ReduceSumSquare_uint32
	0x4303f564		ReduceSumSquare_uint64
	0x4303fc14		ReduceSumSquare_bfloat16
	0x430402b4		ReduceSumSquare_float16
	0x43040998		ReduceSumSquare_float32
	0x43041060		ReduceSumSquare_float64
.text	0x43041790	0x488	C:\Users\nikol\projects\quectel\development\customer\threadx\workspace\apps\ml/libonnx.a(Acosh.o)	#SHT_PROGBITS,SHF_ALLOC|SHF_EXECINSTR,4
	0x43041790		$a.0
	0x43041790		resolver_default_op_Acosh
	0x43041824		$d.1
	0x4304183c		$a.2
	0x4304183c		Acosh_init
	0x43041864		Acosh_exit
	0x4304186c		Acosh_reshape
	0x430418e4		Acosh_float16
	0x43041a38		Acosh_float32
	0x43041b08		Acosh_float64
.text	0x43041c18	0x4	C:\Users\nikol\projects\quectel\development\customer\threadx\workspace\apps\ml/libonnx.a(DequantizeLinear.o)	#SHT_PROGBITS,SHF_ALLOC|SHF_EXECINSTR,4
	0x43041c18		$a.0
	0x43041c18		resolver_default_op_DequantizeLinear
.text	0x43041c1c	0x488	C:\Users\nikol\projects\quectel\development\customer\threadx\workspace\apps\ml/libonnx.a(Atan.o)	#SHT_PROGBITS,SHF_ALLOC|SHF_EXECINSTR,4
	0x43041c1c		$a.0
	0x43041c1c		resolver_default_op_Atan
	0x43041cb0		$d.1
	0x43041cc8		$a.2
	0x43041cc8		Atan_init
	0x43041cf0		Atan_exit
	0x43041cf8		Atan_reshape
	0x43041d70		Atan_float16
	0x43041ec4		Atan_float32
	0x43041f94		Atan_float64
.text	0x430420a4	0xfdc	C:\Users\nikol\projects\quectel\development\customer\threadx\workspace\apps\ml/libonnx.a(Range.o)	#SHT_PROGBITS,SHF_ALLOC|SHF_EXECINSTR,4
	0x430420a4		$a.0
	0x430420a4		resolver_default_op_Range
	0x430420d4		$d.1
	0x43042100		$a.2
	0x430421a4		$d.3
	0x430421c4		$a.4
	0x430421c4		Range_init
	0x43042224		Range_exit
	0x43042244		Range_reshape
	0x43042364		Range_int16
	0x430425d8		Range_int32
	0x4304284c		Range_int64
	0x43042ae0		Range_float32
	0x43042d54		Range_float64
	0x43042f6c		tensor_get_value
	0x43042f94		$d.5
	0x43042fd4		$a.6
.text	0x43043080	0x890	C:\Users\nikol\projects\quectel\development\customer\threadx\workspace\apps\ml/libonnx.a(Sum.o)	#SHT_PROGBITS,SHF_ALLOC|SHF_EXECINSTR,4
	0x43043080		$a.0
	0x43043080		resolver_default_op_Sum
	0x430430b0		$d.1
	0x430430f0		$a.2
	0x430431b0		$d.3
	0x430431cc		$a.4
	0x430431cc		Sum_init
	0x430431f4		Sum_exit
	0x430431fc		Sum_reshape
	0x430432c8		Sum_bfloat16
	0x43043358		Sum_float16
	0x43043420		Sum_float32
	0x430434a8		Sum_float64
	0x43043548		onnx_tensor_reshape_multi_broadcast
	0x43043688		onnx_tensor_broadcast_map_address
.text	0x43043910	0x488	C:\Users\nikol\projects\quectel\development\customer\threadx\workspace\apps\ml/libonnx.a(Asin.o)	#SHT_PROGBITS,SHF_ALLOC|SHF_EXECINSTR,4
	0x43043910		$a.0
	0x43043910		resolver_default_op_Asin
	0x430439a4		$d.1
	0x430439bc		$a.2
	0x430439bc		Asin_init
	0x430439e4		Asin_exit
	0x430439ec		Asin_reshape
	0x43043a64		Asin_float16
	0x43043bb8		Asin_float32
	0x43043c88		Asin_float64
.text	0x43043d98	0x5d0	C:\Users\nikol\projects\quectel\development\customer\threadx\workspace\apps\ml/libonnx.a(Softplus.o)	#SHT_PROGBITS,SHF_ALLOC|SHF_EXECINSTR,4
	0x43043d98		$a.0
	0x43043d98		resolver_default_op_Softplus
	0x43043e2c		$d.1
	0x43043e44		$a.2
	0x43043e44		Softplus_init
	0x43043e6c		Softplus_exit
	0x43043e74		Softplus_reshape
	0x43043eec		Softplus_float16
	0x4304407c		Softplus_float32
	0x430441b8		Softplus_float64
.text	0x43044368	0x4	C:\Users\nikol\projects\quectel\development\customer\threadx\workspace\apps\ml/libonnx.a(LSTM.o)	#SHT_PROGBITS,SHF_ALLOC|SHF_EXECINSTR,4
	0x43044368		$a.0
	0x43044368		resolver_default_op_LSTM
.text	0x4304436c	0x2240	C:\Users\nikol\projects\quectel\development\customer\threadx\workspace\apps\ml/libonnx.a(Where.o)	#SHT_PROGBITS,SHF_ALLOC|SHF_EXECINSTR,4
	0x4304436c		$a.0
	0x4304436c		resolver_default_op_Where
	0x430443a8		$d.1
	0x430443e8		$a.2
	0x430445ec		$d.3
	0x43044638		$a.4
	0x43044638		Where_init
	0x43044660		Where_exit
	0x43044668		Where_reshape
	0x43044730		Where_bool
	0x430448d8		Where_int8
	0x43044a80		Where_int16
	0x43044c28		Where_int32
	0x43044dd0		Where_int64
	0x43044fa4		Where_uint8
	0x4304514c		Where_uint16
	0x430452f4		Where_uint32
	0x4304549c		Where_uint64
	0x43045670		Where_bfloat16
	0x43045818		Where_float16
	0x430459c0		Where_float32
	0x43045b68		Where_float64
	0x43045d3c		Where_complex64
	0x43045f2c		Where_complex128
	0x43046154		Where_string
	0x430461e4		onnx_tensor_reshape_multi_broadcast
	0x43046324		onnx_tensor_broadcast_map_address
.text	0x430465ac	0xc44	C:\Users\nikol\projects\quectel\development\customer\threadx\workspace\apps\ml/libonnx.a(GlobalMaxPool.o)	#SHT_PROGBITS,SHF_ALLOC|SHF_EXECINSTR,4
	0x430465ac		$a.0
	0x430465ac		resolver_default_op_GlobalMaxPool
	0x43046640		$d.1
	0x43046658		$a.2
	0x43046658		GlobalMaxPool_init
	0x43046680		GlobalMaxPool_exit
	0x43046688		GlobalMaxPool_reshape
	0x43046840		GlobalMaxPool_float16
	0x43046bd8		GlobalMaxPool_float32
	0x43046eac		GlobalMaxPool_float64
.text	0x430471f0	0x1438	C:\Users\nikol\projects\quectel\development\customer\threadx\workspace\apps\ml/libonnx.a(Pow.o)	#SHT_PROGBITS,SHF_ALLOC|SHF_EXECINSTR,4
	0x430471f0		$a.0
	0x430471f0		resolver_default_op_Pow
	0x43047220		$d.1
	0x43047260		$a.2
	0x430472ac		$d.3
	0x430472d8		$a.4
	0x430473a8		$d.5
	0x430473cc		$a.6
	0x430473cc		Pow_init
	0x430473f4		Pow_exit
	0x430473fc		Pow_reshape
	0x43047414		Pow_int32
	0x4304765c		Pow_int64
	0x430478b4		Pow_bfloat16
	0x43047b24		Pow_float16
	0x43047d28		Pow_float32
	0x43047f70		Pow_float64
	0x4304814c		onnx_tensor_reshape_multi_broadcast
	0x4304828c		onnx_tensor_broadcast_map_address
	0x43048514		tensor_get_value
	0x4304853c		$d.7
	0x4304857c		$a.8
.text	0x43048628	0x10c4	C:\Users\nikol\projects\quectel\development\customer\threadx\workspace\apps\ml/libonnx.a(Erf.o)	#SHT_PROGBITS,SHF_ALLOC|SHF_EXECINSTR,4
	0x43048628		$a.0
	0x43048628		resolver_default_op_Erf
	0x43048658		$d.1
	0x43048698		$a.2
	0x430486e4		$d.3
	0x43048718		$a.4
	0x4304887c		$d.5
	0x430488b8		$a.6
	0x430488b8		Erf_init
	0x430488e0		Erf_exit
	0x430488e8		Erf_reshape
	0x43048960		Erf_int8
	0x43048a78		Erf_int16
	0x43048b90		Erf_int32
	0x43048ca8		Erf_int64
	0x43048e00		Erf_uint8
	0x43048f18		Erf_uint16
	0x43049030		Erf_uint32
	0x43049148		Erf_uint64
	0x430492a0		Erf_bfloat16
	0x430493b8		Erf_float16
	0x4304950c		Erf_float32
	0x430495dc		Erf_float64
.text	0x430496ec	0xcd4	C:\Users\nikol\projects\quectel\development\customer\threadx\workspace\apps\ml/libonnx.a(GlobalAveragePool.o)	#SHT_PROGBITS,SHF_ALLOC|SHF_EXECINSTR,4
	0x430496ec		$a.0
	0x430496ec		resolver_default_op_GlobalAveragePool
	0x43049780		$d.1
	0x43049798		$a.2
	0x43049798		GlobalAveragePool_init
	0x430497c0		GlobalAveragePool_exit
	0x430497c8		GlobalAveragePool_reshape
	0x43049980		GlobalAveragePool_float16
	0x43049cbc		GlobalAveragePool_float32
	0x4304a000		GlobalAveragePool_float64
.text	0x4304a3c0	0x49ec	C:\Users\nikol\projects\quectel\development\customer\threadx\workspace\apps\ml/libonnx.a(ReduceLogSum.o)	#SHT_PROGBITS,SHF_ALLOC|SHF_EXECINSTR,4
	0x4304a3c0		$a.0
	0x4304a3c0		resolver_default_op_ReduceLogSum
	0x4304a3f0		$d.1
	0x4304a430		$a.2
	0x4304a47c		$d.3
	0x4304a4b0		$a.4
	0x4304a4dc		$d.5
	0x4304a510		$a.6
	0x4304a634		$d.7
	0x4304a668		$a.8
	0x4304a668		ReduceLogSum_init
	0x4304a7ac		$d.9
	0x4304a7b4		$a.10
	0x4304a7b4		ReduceLogSum_exit
	0x4304a7f8		ReduceLogSum_reshape
	0x4304a9b0		ReduceLogSum_int8
	0x4304b08c		ReduceLogSum_int32
	0x4304b760		ReduceLogSum_int64
	0x4304be34		ReduceLogSum_uint8
	0x4304c508		ReduceLogSum_uint32
	0x4304cbdc		ReduceLogSum_uint64
	0x4304d2b0		ReduceLogSum_bfloat16
	0x4304d950		ReduceLogSum_float16
	0x4304e038		ReduceLogSum_float32
	0x4304e6e8		ReduceLogSum_float64
.text	0x4304edac	0x4	C:\Users\nikol\projects\quectel\development\customer\threadx\workspace\apps\ml/libonnx.a(ScatterND.o)	#SHT_PROGBITS,SHF_ALLOC|SHF_EXECINSTR,4
	0x4304edac		$a.0
	0x4304edac		resolver_default_op_ScatterND
.text	0x4304edb0	0x4ac	C:\Users\nikol\projects\quectel\development\customer\threadx\workspace\apps\ml/libonnx.a(Reshape.o)	#SHT_PROGBITS,SHF_ALLOC|SHF_EXECINSTR,4
	0x4304edb0		$a.0
	0x4304edb0		resolver_default_op_Reshape
	0x4304ee1c		$d.1
	0x4304ee2c		$a.2
	0x4304ee2c		Reshape_init
	0x4304ee88		Reshape_exit
	0x4304ee90		Reshape_reshape
	0x4304ee98		Reshape_operator
.text	0x4304f25c	0xee8	C:\Users\nikol\projects\quectel\development\customer\threadx\workspace\apps\ml/libonnx.a(Max.o)	#SHT_PROGBITS,SHF_ALLOC|SHF_EXECINSTR,4
	0x4304f25c		$a.0
	0x4304f25c		resolver_default_op_Max
	0x4304f28c		$d.1
	0x4304f2cc		$a.2
	0x4304f318		$d.3
	0x4304f34c		$a.4
	0x4304f4ec		$d.5
	0x4304f528		$a.6
	0x4304f528		Max_init
	0x4304f550		Max_exit
	0x4304f558		Max_reshape
	0x4304f624		Max_int8
	0x4304f6a8		Max_int16
	0x4304f72c		Max_int32
	0x4304f7ac		Max_int64
	0x4304f860		Max_uint8
	0x4304f8e8		Max_uint16
	0x4304f980		Max_uint32
	0x4304fa04		Max_uint64
	0x4304fabc		Max_bfloat16
	0x4304fb54		Max_float16
	0x4304fc28		Max_float32
	0x4304fcbc		Max_float64
	0x4304fd7c		onnx_tensor_reshape_multi_broadcast
	0x4304febc		onnx_tensor_broadcast_map_address
.text	0x43050144	0x1924	C:\Users\nikol\projects\quectel\development\customer\threadx\workspace\apps\ml/libonnx.a(Sign.o)	#SHT_PROGBITS,SHF_ALLOC|SHF_EXECINSTR,4
	0x43050144		$a.0
	0x43050144		resolver_default_op_Sign
	0x43050174		$d.1
	0x430501b4		$a.2
	0x43050200		$d.3
	0x43050234		$a.4
	0x43050398		$d.5
	0x430503d4		$a.6
	0x430503d4		Sign_init
	0x430503fc		Sign_exit
	0x43050404		Sign_reshape
	0x4305047c		Sign_int8
	0x43050614		Sign_int16
	0x430507b4		Sign_int32
	0x430508e8		Sign_int64
	0x43050b5c		Sign_uint8
	0x43050c50		Sign_uint16
	0x43050d44		Sign_uint32
	0x43050e38		Sign_uint64
	0x43050f7c		Sign_bfloat16
	0x4305120c		Sign_float16
	0x43051414		Sign_float32
	0x43051698		Sign_float64
.text	0x43051a68	0x4bf8	C:\Users\nikol\projects\quectel\development\customer\threadx\workspace\apps\ml/libonnx.a(ArgMax.o)	#SHT_PROGBITS,SHF_ALLOC|SHF_EXECINSTR,4
	0x43051a68		$a.0
	0x43051a68		resolver_default_op_ArgMax
	0x43051a98		$d.1
	0x43051ad8		$a.2
	0x43051b24		$d.3
	0x43051b58		$a.4
	0x43051b84		$d.5
	0x43051bb8		$a.6
	0x43051be4		$d.7
	0x43051c18		$a.8
	0x43051d7c		$d.9
	0x43051db8		$a.10
	0x43051db8		ArgMax_init
	0x43051e48		$d.11
	0x43051e54		$a.12
	0x43051e54		ArgMax_exit
	0x43051e74		ArgMax_reshape
	0x43051fa8		ArgMax_int8
	0x430524c8		ArgMax_int16
	0x43052a24		ArgMax_int32
	0x43052f54		ArgMax_int64
	0x43053634		ArgMax_uint8
	0x43053b54		ArgMax_uint16
	0x430540f4		ArgMax_uint32
	0x43054624		ArgMax_uint64
	0x43054d04		ArgMax_bfloat16
	0x43055348		ArgMax_float16
	0x43055884		ArgMax_float32
	0x43055ec4		ArgMax_float64
.text	0x43056660	0x4	C:\Users\nikol\projects\quectel\development\customer\threadx\workspace\apps\ml/libonnx.a(ReverseSequence.o)	#SHT_PROGBITS,SHF_ALLOC|SHF_EXECINSTR,4
	0x43056660		$a.0
	0x43056660		resolver_default_op_ReverseSequence
.text	0x43056664	0x4904	C:\Users\nikol\projects\quectel\development\customer\threadx\workspace\apps\ml/libonnx.a(ReduceSum.o)	#SHT_PROGBITS,SHF_ALLOC|SHF_EXECINSTR,4
	0x43056664		$a.0
	0x43056664		resolver_default_op_ReduceSum
	0x43056694		$d.1
	0x430566d4		$a.2
	0x43056720		$d.3
	0x43056754		$a.4
	0x43056780		$d.5
	0x430567b4		$a.6
	0x430568d8		$d.7
	0x4305690c		$a.8
	0x4305690c		ReduceSum_init
	0x43056988		$d.9
	0x43056990		$a.10
	0x43056990		ReduceSum_exit
	0x430569b0		ReduceSum_reshape
	0x43056be0		ReduceSum_int8
	0x430572c8		ReduceSum_int32
	0x43057980		ReduceSum_int64
	0x43058050		ReduceSum_uint8
	0x43058700		ReduceSum_uint32
	0x43058db8		ReduceSum_uint64
	0x43059488		ReduceSum_bfloat16
	0x43059b1c		ReduceSum_float16
	0x4305a1f0		ReduceSum_float32
	0x4305a89c		ReduceSum_float64
.text	0x4305af68	0x4	C:\Users\nikol\projects\quectel\development\customer\threadx\workspace\apps\ml/libonnx.a(ScatterElements.o)	#SHT_PROGBITS,SHF_ALLOC|SHF_EXECINSTR,4
	0x4305af68		$a.0
	0x4305af68		resolver_default_op_ScatterElements
.text	0x4305af6c	0x4	C:\Users\nikol\projects\quectel\development\customer\threadx\workspace\apps\ml/libonnx.a(GatherElements.o)	#SHT_PROGBITS,SHF_ALLOC|SHF_EXECINSTR,4
	0x4305af6c		$a.0
	0x4305af6c		resolver_default_op_GatherElements
.text	0x4305af70	0x2f98	C:\Users\nikol\projects\quectel\development\customer\threadx\workspace\apps\ml/libonnx.a(MaxPool.o)	#SHT_PROGBITS,SHF_ALLOC|SHF_EXECINSTR,4
	0x4305af70		$a.0
	0x4305af70		resolver_default_op_MaxPool
	0x4305afa0		$d.1
	0x4305afcc		$a.2
	0x4305b0b0		$d.3
	0x4305b0d0		$a.4
	0x4305b0d0		MaxPool_init
	0x4305b4e8		$d.5
	0x4305b514		$a.6
	0x4305b514		MaxPool_exit
	0x4305b578		MaxPool_reshape
	0x4305b5d8		$d.7
	0x4305b5e8		$a.8
	0x4305b9c0		MaxPool_int8
	0x4305c0b0		MaxPool_uint8
	0x4305c7b8		MaxPool_float16
	0x4305cf94		MaxPool_float32
	0x4305d744		MaxPool_float64
.text	0x4305df08	0x488	C:\Users\nikol\projects\quectel\development\customer\threadx\workspace\apps\ml/libonnx.a(Acos.o)	#SHT_PROGBITS,SHF_ALLOC|SHF_EXECINSTR,4
	0x4305df08		$a.0
	0x4305df08		resolver_default_op_Acos
	0x4305df9c		$d.1
	0x4305dfb4		$a.2
	0x4305dfb4		Acos_init
	0x4305dfdc		Acos_exit
	0x4305dfe4		Acos_reshape
	0x4305e05c		Acos_float16
	0x4305e1b0		Acos_float32
	0x4305e280		Acos_float64
.text	0x4305e390	0x2e0	C:\Users\nikol\projects\quectel\development\customer\threadx\workspace\apps\ml/libonnx.a(Flatten.o)	#SHT_PROGBITS,SHF_ALLOC|SHF_EXECINSTR,4
	0x4305e390		$a.0
	0x4305e390		resolver_default_op_Flatten
	0x4305e434		$d.1
	0x4305e444		$a.2
	0x4305e444		Flatten_init
	0x4305e4a4		$d.3
	0x4305e4a8		$a.4
	0x4305e4a8		Flatten_exit
	0x4305e4c8		Flatten_reshape
	0x4305e5ec		Flatten_operator
.text	0x4305e670	0x3dc	C:\Users\nikol\projects\quectel\development\customer\threadx\workspace\apps\ml/libonnx.a(Celu.o)	#SHT_PROGBITS,SHF_ALLOC|SHF_EXECINSTR,4
	0x4305e670		$a.0
	0x4305e670		resolver_default_op_Celu
	0x4305e6b4		$d.1
	0x4305e6c4		$a.2
	0x4305e6c4		Celu_init
	0x4305e720		$d.3
	0x4305e724		$a.4
	0x4305e724		Celu_exit
	0x4305e744		Celu_reshape
	0x4305e7bc		Celu_float32
.text	0x4305ea4c	0x4	C:\Users\nikol\projects\quectel\development\customer\threadx\workspace\apps\ml/libonnx.a(SequenceLength.o)	#SHT_PROGBITS,SHF_ALLOC|SHF_EXECINSTR,4
	0x4305ea4c		$a.0
	0x4305ea4c		resolver_default_op_SequenceLength
.text	0x4305ea50	0x638	C:\Users\nikol\projects\quectel\development\customer\threadx\workspace\apps\ml/libonnx.a(Floor.o)	#SHT_PROGBITS,SHF_ALLOC|SHF_EXECINSTR,4
	0x4305ea50		$a.0
	0x4305ea50		resolver_default_op_Floor
	0x4305ea80		$d.1
	0x4305eac0		$a.2
	0x4305eb78		$d.3
	0x4305eb94		$a.4
	0x4305eb94		Floor_init
	0x4305ebbc		Floor_exit
	0x4305ebc4		Floor_reshape
	0x4305ec3c		Floor_bfloat16
	0x4305ed54		Floor_float16
	0x4305eea8		Floor_float32
	0x4305ef78		Floor_float64
.text	0x4305f088	0x49d0	C:\Users\nikol\projects\quectel\development\customer\threadx\workspace\apps\ml/libonnx.a(ReduceProd.o)	#SHT_PROGBITS,SHF_ALLOC|SHF_EXECINSTR,4
	0x4305f088		$a.0
	0x4305f088		resolver_default_op_ReduceProd
	0x4305f0b8		$d.1
	0x4305f0f8		$a.2
	0x4305f144		$d.3
	0x4305f178		$a.4
	0x4305f1a4		$d.5
	0x4305f1d8		$a.6
	0x4305f2fc		$d.7
	0x4305f330		$a.8
	0x4305f330		ReduceProd_init
	0x4305f474		$d.9
	0x4305f47c		$a.10
	0x4305f47c		ReduceProd_exit
	0x4305f4c0		ReduceProd_reshape
	0x4305f678		ReduceProd_int8
	0x4305fd50		ReduceProd_int32
	0x43060420		ReduceProd_int64
	0x43060b14		ReduceProd_uint8
	0x430611e4		ReduceProd_uint32
	0x430618b4		ReduceProd_uint64
	0x43061fa8		ReduceProd_bfloat16
	0x43062618		ReduceProd_float16
	0x43062cc8		ReduceProd_float32
	0x4306336c		ReduceProd_float64
.text	0x43063a58	0x5dc	C:\Users\nikol\projects\quectel\development\customer\threadx\workspace\apps\ml/libonnx.a(Dropout.o)	#SHT_PROGBITS,SHF_ALLOC|SHF_EXECINSTR,4
	0x43063a58		$a.0
	0x43063a58		resolver_default_op_Dropout
	0x43063a88		$d.1
	0x43063ac8		$a.2
	0x43063b78		$d.3
	0x43063b94		$a.4
	0x43063b94		Dropout_init
	0x43063bf4		$d.5
	0x43063bf8		$a.6
	0x43063bf8		Dropout_exit
	0x43063c18		Dropout_reshape
	0x43063cf4		Dropout_bfloat16
	0x43063db4		Dropout_float16
	0x43063e74		Dropout_float32
	0x43063f34		Dropout_float64
.text	0x43064034	0x4	C:\Users\nikol\projects\quectel\development\customer\threadx\workspace\apps\ml/libonnx.a(Pad.o)	#SHT_PROGBITS,SHF_ALLOC|SHF_EXECINSTR,4
	0x43064034		$a.0
	0x43064034		resolver_default_op_Pad
.text	0x43064038	0x492c	C:\Users\nikol\projects\quectel\development\customer\threadx\workspace\apps\ml/libonnx.a(ReduceMax.o)	#SHT_PROGBITS,SHF_ALLOC|SHF_EXECINSTR,4
	0x43064038		$a.0
	0x43064038		resolver_default_op_ReduceMax
	0x43064068		$d.1
	0x430640a8		$a.2
	0x430640f4		$d.3
	0x43064128		$a.4
	0x43064174		$d.5
	0x430641a8		$a.6
	0x430641d4		$d.7
	0x43064208		$a.8
	0x4306430c		$d.9
	0x43064340		$a.10
	0x43064340		ReduceMax_init
	0x43064484		$d.11
	0x4306448c		$a.12
	0x4306448c		ReduceMax_exit
	0x430644d0		ReduceMax_reshape
	0x43064688		ReduceMax_int8
	0x43064d50		ReduceMax_int32
	0x4306540c		ReduceMax_int64
	0x43065ac0		ReduceMax_uint8
	0x43066180		ReduceMax_uint32
	0x4306683c		ReduceMax_uint64
	0x43066ef0		ReduceMax_bfloat16
	0x43067548		ReduceMax_float16
	0x43067be0		ReduceMax_float32
	0x43068278		ReduceMax_float64
.text	0x43068964	0x210	C:\Users\nikol\projects\quectel\development\customer\threadx\workspace\apps\ml/libonnx.a(Not.o)	#SHT_PROGBITS,SHF_ALLOC|SHF_EXECINSTR,4
	0x43068964		$a.0
	0x43068964		resolver_default_op_Not
	0x430689a8		$d.1
	0x430689b8		$a.2
	0x430689b8		Not_init
	0x430689e0		Not_exit
	0x430689e8		Not_reshape
	0x43068a5c		Not_bool
.text	0x43068b74	0x4	C:\Users\nikol\projects\quectel\development\customer\threadx\workspace\apps\ml/libonnx.a(TfIdfVectorizer.o)	#SHT_PROGBITS,SHF_ALLOC|SHF_EXECINSTR,4
	0x43068b74		$a.0
	0x43068b74		resolver_default_op_TfIdfVectorizer
.text	0x43068b78	0x42d0	C:\Users\nikol\projects\quectel\development\customer\threadx\workspace\apps\ml/libonnx.a(Conv.o)	#SHT_PROGBITS,SHF_ALLOC|SHF_EXECINSTR,4
	0x43068b78		$a.0
	0x43068b78		resolver_default_op_Conv
	0x43068c14		$d.1
	0x43068c2c		$a.2
	0x43068c2c		Conv_init
	0x4306902c		$d.3
	0x43069054		$a.4
	0x43069054		Conv_exit
	0x430690b8		Conv_reshape
	0x4306911c		$d.5
	0x4306912c		$a.6
	0x430694f0		Conv_float16
	0x4306a650		Conv_float32
	0x4306b98c		Conv_float64
.text	0x4306ce48	0x4	C:\Users\nikol\projects\quectel\development\customer\threadx\workspace\apps\ml/libonnx.a(SequenceErase.o)	#SHT_PROGBITS,SHF_ALLOC|SHF_EXECINSTR,4
	0x4306ce48		$a.0
	0x4306ce48		resolver_default_op_SequenceErase
.text	0x4306ce4c	0x21e4	C:\Users\nikol\projects\quectel\development\customer\threadx\workspace\apps\ml/libonnx.a(Shrink.o)	#SHT_PROGBITS,SHF_ALLOC|SHF_EXECINSTR,4
	0x4306ce4c		$a.0
	0x4306ce4c		resolver_default_op_Shrink
	0x4306ce7c		$d.1
	0x4306ceb0		$a.2
	0x4306d014		$d.3
	0x4306d04c		$a.4
	0x4306d04c		Shrink_init
	0x4306d0bc		$d.5
	0x4306d0c4		$a.6
	0x4306d0c4		Shrink_exit
	0x4306d0e4		Shrink_reshape
	0x4306d15c		Shrink_int8
	0x4306d454		Shrink_int16
	0x4306d6ec		Shrink_int32
	0x4306d9a8		Shrink_int64
	0x4306dc9c		Shrink_uint8
	0x4306df94		Shrink_uint16
	0x4306e22c		Shrink_uint32
	0x4306e4e8		Shrink_uint64
	0x4306e7dc		Shrink_float16
	0x4306e9e0		Shrink_float32
	0x4306ec88		Shrink_float64
.text	0x4306f030	0x4	C:\Users\nikol\projects\quectel\development\customer\threadx\workspace\apps\ml/libonnx.a(LpPool.o)	#SHT_PROGBITS,SHF_ALLOC|SHF_EXECINSTR,4
	0x4306f030		$a.0
	0x4306f030		resolver_default_op_LpPool
.text	0x4306f034	0xa72c	C:\Users\nikol\projects\quectel\development\customer\threadx\workspace\apps\ml/libonnx.a(Cast.o)	#SHT_PROGBITS,SHF_ALLOC|SHF_EXECINSTR,4
	0x4306f034		$a.0
	0x4306f034		resolver_default_op_Cast
	0x4306f064		$d.1
	0x4306f0a4		$a.2
	0x4306f0f0		$d.3
	0x4306f124		$a.4
	0x4306f170		$d.5
	0x4306f1a4		$a.6
	0x4306f328		$d.7
	0x4306f36c		Cast_init
	0x4306f36c		$a.8
	0x4306f3d4		$d.9
	0x4306f3d8		$a.10
	0x4306f3d8		Cast_exit
	0x4306f3f8		Cast_reshape
	0x4306f474		Cast_bool
	0x4306f4b0		$d.11
	0x4306f4f0		$a.12
	0x430700c8		$d.13
	0x430700cc		$a.14
	0x430700cc		Cast_int8
	0x43070108		$d.15
	0x43070148		$a.16
	0x43070b20		$d.17
	0x43070b24		$a.18
	0x43070b24		Cast_int16
	0x43070b60		$d.19
	0x43070ba0		$a.20
	0x43071578		$d.21
	0x4307157c		$a.22
	0x4307157c		Cast_int32
	0x430715b8		$d.23
	0x430715f8		$a.24
	0x43071fd0		$d.25
	0x43071fd4		Cast_int64
	0x43071fd4		$a.26
	0x43072010		$d.27
	0x43072050		$a.28
	0x43072abc		$d.29
	0x43072ac0		$a.30
	0x43072ac0		Cast_uint8
	0x43072afc		$d.31
	0x43072b3c		$a.32
	0x430734e4		$d.33
	0x430734e8		$a.34
	0x430734e8		Cast_uint16
	0x43073524		$d.35
	0x43073564		$a.36
	0x43073f0c		$d.37
	0x43073f10		Cast_uint32
	0x43073f10		$a.38
	0x43073f4c		$d.39
	0x43073f8c		$a.40
	0x43074934		$d.41
	0x43074938		Cast_uint64
	0x43074938		$a.42
	0x43074974		$d.43
	0x430749b4		$a.44
	0x43075420		$d.45
	0x43075424		Cast_bfloat16
	0x43075424		$a.46
	0x43075460		$d.47
	0x430754a0		$a.48
	0x430760b8		$d.49
	0x430760bc		Cast_float16
	0x430760bc		$a.50
	0x43076100		$d.51
	0x43076140		$a.52
	0x4307712c		$d.53
	0x43077130		Cast_float32
	0x43077130		$a.54
	0x4307716c		$d.55
	0x430771ac		$a.56
	0x43077c40		$d.57
	0x43077c44		$a.58
	0x43077c44		Cast_float64
	0x43077c80		$d.59
	0x43077cc0		$a.60
	0x43078978		$d.61
	0x4307897c		Cast_string
	0x4307897c		$a.62
	0x430789b4		$d.63
	0x430789f4		$a.64
.text	0x43079760	0x488	C:\Users\nikol\projects\quectel\development\customer\threadx\workspace\apps\ml/libonnx.a(Round.o)	#SHT_PROGBITS,SHF_ALLOC|SHF_EXECINSTR,4
	0x43079760		$a.0
	0x43079760		resolver_default_op_Round
	0x430797f4		$d.1
	0x4307980c		$a.2
	0x4307980c		Round_init
	0x43079834		Round_exit
	0x4307983c		Round_reshape
	0x430798b4		Round_float16
	0x43079a08		Round_float32
	0x43079ad8		Round_float64
.text	0x43079be8	0x68c	C:\Users\nikol\projects\quectel\development\customer\threadx\workspace\apps\ml/libonnx.a(Reciprocal.o)	#SHT_PROGBITS,SHF_ALLOC|SHF_EXECINSTR,4
	0x43079be8		$a.0
	0x43079be8		resolver_default_op_Reciprocal
	0x43079c18		$d.1
	0x43079c58		$a.2
	0x43079d10		$d.3
	0x43079d2c		$a.4
	0x43079d2c		Reciprocal_init
	0x43079d54		Reciprocal_exit
	0x43079d5c		Reciprocal_reshape
	0x43079dd4		Reciprocal_bfloat16
	0x43079eb0		Reciprocal_float16
	0x4307a018		Reciprocal_float32
	0x4307a10c		Reciprocal_float64
.text	0x4307a274	0x4	C:\Users\nikol\projects\quectel\development\customer\threadx\workspace\apps\ml/libonnx.a(Scatter.o)	#SHT_PROGBITS,SHF_ALLOC|SHF_EXECINSTR,4
	0x4307a274		$a.0
	0x4307a274		resolver_default_op_Scatter
.text	0x4307a278	0x499c	C:\Users\nikol\projects\quectel\development\customer\threadx\workspace\apps\ml/libonnx.a(ReduceL1.o)	#SHT_PROGBITS,SHF_ALLOC|SHF_EXECINSTR,4
	0x4307a278		$a.0
	0x4307a278		resolver_default_op_ReduceL1
	0x4307a2a8		$d.1
	0x4307a2e8		$a.2
	0x4307a334		$d.3
	0x4307a368		$a.4
	0x4307a394		$d.5
	0x4307a3c8		$a.6
	0x4307a4ec		$d.7
	0x4307a520		$a.8
	0x4307a520		ReduceL1_init
	0x4307a664		$d.9
	0x4307a66c		$a.10
	0x4307a66c		ReduceL1_exit
	0x4307a6b0		ReduceL1_reshape
	0x4307a868		ReduceL1_int8
	0x4307af38		ReduceL1_int32
	0x4307b608		ReduceL1_int64
	0x4307bce0		ReduceL1_uint8
	0x4307c3a0		ReduceL1_uint32
	0x4307ca70		ReduceL1_uint64
	0x4307d148		ReduceL1_bfloat16
	0x4307d7c8		ReduceL1_float16
	0x4307de6c		ReduceL1_float32
	0x4307e518		ReduceL1_float64
.text	0x4307ec14	0x4	C:\Users\nikol\projects\quectel\development\customer\threadx\workspace\apps\ml/libonnx.a(SequenceEmpty.o)	#SHT_PROGBITS,SHF_ALLOC|SHF_EXECINSTR,4
	0x4307ec14		$a.0
	0x4307ec14		resolver_default_op_SequenceEmpty
.text	0x4307ec18	0x7b4	C:\Users\nikol\projects\quectel\development\customer\threadx\workspace\apps\ml/libonnx.a(IsInf.o)	#SHT_PROGBITS,SHF_ALLOC|SHF_EXECINSTR,4
	0x4307ec18		$a.0
	0x4307ec18		resolver_default_op_IsInf
	0x4307ec84		$d.1
	0x4307ec98		$a.2
	0x4307ec98		IsInf_init
	0x4307ed10		$d.3
	0x4307ed18		$a.4
	0x4307ed18		IsInf_exit
	0x4307ed38		IsInf_reshape
	0x4307edac		IsInf_float32
	0x4307f08c		IsInf_float64
.text	0x4307f3cc	0x1b84	C:\Users\nikol\projects\quectel\development\customer\threadx\workspace\apps\ml/libonnx.a(Expand.o)	#SHT_PROGBITS,SHF_ALLOC|SHF_EXECINSTR,4
	0x4307f3cc		$a.0
	0x4307f3cc		resolver_default_op_Expand
	0x4307f3fc		$d.1
	0x4307f43c		$a.2
	0x4307f488		$d.3
	0x4307f4c4		$a.4
	0x4307f6a8		$d.5
	0x4307f6f4		$a.6
	0x4307f6f4		Expand_init
	0x4307f71c		Expand_exit
	0x4307f724		Expand_reshape
	0x4307f890		Expand_bool
	0x4307f9d4		Expand_int8
	0x4307fb18		Expand_int16
	0x4307fc5c		Expand_int32
	0x4307fda0		Expand_int64
	0x4307ff30		Expand_uint8
	0x43080074		Expand_uint16
	0x430801b8		Expand_uint32
	0x430802fc		Expand_uint64
	0x4308048c		Expand_bfloat16
	0x430805d0		Expand_float16
	0x43080714		Expand_float32
	0x43080858		Expand_float64
	0x430809e8		Expand_complex64
	0x43080b04		Expand_complex128
	0x43080c5c		Expand_string
	0x43080cc8		onnx_tensor_broadcast_map_address
.text	0x43080f50	0x4	C:\Users\nikol\projects\quectel\development\customer\threadx\workspace\apps\ml/libonnx.a(Upsample.o)	#SHT_PROGBITS,SHF_ALLOC|SHF_EXECINSTR,4
	0x43080f50		$a.0
	0x43080f50		resolver_default_op_Upsample
.text	0x43080f54	0x64c	C:\Users\nikol\projects\quectel\development\customer\threadx\workspace\apps\ml/libonnx.a(Or.o)	#SHT_PROGBITS,SHF_ALLOC|SHF_EXECINSTR,4
	0x43080f54		$a.0
	0x43080f54		resolver_default_op_Or
	0x43080f98		$d.1
	0x43080fa8		$a.2
	0x43080fa8		Or_init
	0x43080fd0		Or_exit
	0x43080fd8		Or_reshape
	0x43080fec		Or_bool
	0x430811e0		onnx_tensor_reshape_multi_broadcast
	0x43081318		onnx_tensor_broadcast_map_address
.text	0x430815a0	0x638	C:\Users\nikol\projects\quectel\development\customer\threadx\workspace\apps\ml/libonnx.a(Log.o)	#SHT_PROGBITS,SHF_ALLOC|SHF_EXECINSTR,4
	0x430815a0		$a.0
	0x430815a0		resolver_default_op_Log
	0x430815d0		$d.1
	0x43081610		$a.2
	0x430816c8		$d.3
	0x430816e4		$a.4
	0x430816e4		Log_init
	0x4308170c		Log_exit
	0x43081714		Log_reshape
	0x4308178c		Log_bfloat16
	0x430818a4		Log_float16
	0x430819f8		Log_float32
	0x43081ac8		Log_float64
.text	0x43081bd8	0x4	C:\Users\nikol\projects\quectel\development\customer\threadx\workspace\apps\ml/libonnx.a(EyeLike.o)	#SHT_PROGBITS,SHF_ALLOC|SHF_EXECINSTR,4
	0x43081bd8		$a.0
	0x43081bd8		resolver_default_op_EyeLike
.text	0x43081bdc	0xd0c	C:\Users\nikol\projects\quectel\development\customer\threadx\workspace\apps\ml/libonnx.a(BatchNormalization.o)	#SHT_PROGBITS,SHF_ALLOC|SHF_EXECINSTR,4
	0x43081bdc		$a.0
	0x43081bdc		resolver_default_op_BatchNormalization
	0x43081c40		$d.1
	0x43081c58		$a.2
	0x43081c58		BatchNormalization_9_init
	0x43081ccc		$d.3
	0x43081cdc		$a.4
	0x43081cdc		BatchNormalization_9_exit
	0x43081cfc		BatchNormalization_9_reshape
	0x43081d74		BatchNormalization_9_float16
	0x43082004		BatchNormalization_9_float32
	0x430823f0		BatchNormalization_9_float64
.text	0x430828e8	0x4	C:\Users\nikol\projects\quectel\development\customer\threadx\workspace\apps\ml/libonnx.a(ConvTranspose.o)	#SHT_PROGBITS,SHF_ALLOC|SHF_EXECINSTR,4
	0x430828e8		$a.0
	0x430828e8		resolver_default_op_ConvTranspose
.text	0x430828ec	0x4	C:\Users\nikol\projects\quectel\development\customer\threadx\workspace\apps\ml/libonnx.a(Det.o)	#SHT_PROGBITS,SHF_ALLOC|SHF_EXECINSTR,4
	0x430828ec		$a.0
	0x430828ec		resolver_default_op_Det
.text	0x430828f0	0x638	C:\Users\nikol\projects\quectel\development\customer\threadx\workspace\apps\ml/libonnx.a(Tanh.o)	#SHT_PROGBITS,SHF_ALLOC|SHF_EXECINSTR,4
	0x430828f0		$a.0
	0x430828f0		resolver_default_op_Tanh
	0x43082920		$d.1
	0x43082960		$a.2
	0x43082a18		$d.3
	0x43082a34		$a.4
	0x43082a34		Tanh_init
	0x43082a5c		Tanh_exit
	0x43082a64		Tanh_reshape
	0x43082adc		Tanh_bfloat16
	0x43082bf4		Tanh_float16
	0x43082d48		Tanh_float32
	0x43082e18		Tanh_float64
.text	0x43082f28	0x4	C:\Users\nikol\projects\quectel\development\customer\threadx\workspace\apps\ml/libonnx.a(If.o)	#SHT_PROGBITS,SHF_ALLOC|SHF_EXECINSTR,4
	0x43082f28		$a.0
	0x43082f28		resolver_default_op_If
.text	0x43082f2c	0x4	C:\Users\nikol\projects\quectel\development\customer\threadx\workspace\apps\ml/libonnx.a(NonZero.o)	#SHT_PROGBITS,SHF_ALLOC|SHF_EXECINSTR,4
	0x43082f2c		$a.0
	0x43082f2c		resolver_default_op_NonZero
.text	0x43082f30	0x4	C:\Users\nikol\projects\quectel\development\customer\threadx\workspace\apps\ml/libonnx.a(SpaceToDepth.o)	#SHT_PROGBITS,SHF_ALLOC|SHF_EXECINSTR,4
	0x43082f30		$a.0
	0x43082f30		resolver_default_op_SpaceToDepth
.text	0x43082f34	0x498	C:\Users\nikol\projects\quectel\development\customer\threadx\workspace\apps\ml/libonnx.a(ConstantOfShape.o)	#SHT_PROGBITS,SHF_ALLOC|SHF_EXECINSTR,4
	0x43082f34		$a.0
	0x43082f34		resolver_default_op_ConstantOfShape
	0x43082f64		$d.1
	0x43082f74		$a.2
	0x43082f74		ConstantOfShape_init
	0x4308305c		$d.3
	0x4308309c		$a.4
	0x430831fc		$d.5
	0x43083200		$a.6
	0x43083200		ConstantOfShape_exit
	0x43083220		ConstantOfShape_reshape
	0x43083228		ConstantOfShape_operator
.text	0x430833cc	0x4	C:\Users\nikol\projects\quectel\development\customer\threadx\workspace\apps\ml/libonnx.a(StringNormalizer.o)	#SHT_PROGBITS,SHF_ALLOC|SHF_EXECINSTR,4
	0x430833cc		$a.0
	0x430833cc		resolver_default_op_StringNormalizer
.text	0x430833d0	0x4	C:\Users\nikol\projects\quectel\development\customer\threadx\workspace\apps\ml/libonnx.a(Unique.o)	#SHT_PROGBITS,SHF_ALLOC|SHF_EXECINSTR,4
	0x430833d0		$a.0
	0x430833d0		resolver_default_op_Unique
.text	0x430833d4	0x614	C:\Users\nikol\projects\quectel\development\customer\threadx\workspace\apps\ml/libonnx.a(Xor.o)	#SHT_PROGBITS,SHF_ALLOC|SHF_EXECINSTR,4
	0x430833d4		$a.0
	0x430833d4		resolver_default_op_Xor
	0x43083418		$d.1
	0x43083428		$a.2
	0x43083428		Xor_init
	0x43083450		Xor_exit
	0x43083458		Xor_reshape
	0x4308346c		Xor_bool
	0x43083628		onnx_tensor_reshape_multi_broadcast
	0x43083760		onnx_tensor_broadcast_map_address
.text	0x430839e8	0x110	C:\Users\nikol\projects\quectel\development\customer\threadx\workspace\apps\ml/libonnx.a(Size.o)	#SHT_PROGBITS,SHF_ALLOC|SHF_EXECINSTR,4
	0x430839e8		$a.0
	0x430839e8		resolver_default_op_Size
	0x43083a54		$d.1
	0x43083a64		$a.2
	0x43083a64		Size_init
	0x43083a8c		Size_exit
	0x43083a94		Size_reshape
	0x43083ad4		Size_operator
.text	0x43083af8	0x4d8	C:\Users\nikol\projects\quectel\development\customer\threadx\workspace\apps\ml/libonnx.a(And.o)	#SHT_PROGBITS,SHF_ALLOC|SHF_EXECINSTR,4
	0x43083af8		$a.0
	0x43083af8		resolver_default_op_And
	0x43083b3c		$d.1
	0x43083b4c		$a.2
	0x43083b4c		And_7_init
	0x43083b74		And_7_exit
	0x43083b7c		And_7_reshape
	0x43083b90		And_7_bool
	0x43083c10		onnx_tensor_reshape_multi_broadcast
	0x43083d48		onnx_tensor_broadcast_map_address
.text	0x43083fd0	0x4	C:\Users\nikol\projects\quectel\development\customer\threadx\workspace\apps\ml/libonnx.a(MaxRoiPool.o)	#SHT_PROGBITS,SHF_ALLOC|SHF_EXECINSTR,4
	0x43083fd0		$a.0
	0x43083fd0		resolver_default_op_MaxRoiPool
.text	0x43083fd4	0x784	C:\Users\nikol\projects\quectel\development\customer\threadx\workspace\apps\ml/libonnx.a(IsNaN.o)	#SHT_PROGBITS,SHF_ALLOC|SHF_EXECINSTR,4
	0x43083fd4		$a.0
	0x43083fd4		resolver_default_op_IsNaN
	0x43084004		$d.1
	0x43084044		$a.2
	0x430840f4		$d.3
	0x43084110		$a.4
	0x43084110		IsNaN_init
	0x43084138		IsNaN_exit
	0x43084140		IsNaN_reshape
	0x430841b4		IsNaN_bfloat16
	0x43084310		IsNaN_float16
	0x43084480		IsNaN_float32
	0x430845c4		IsNaN_float64
.text	0x43084758	0x4	C:\Users\nikol\projects\quectel\development\customer\threadx\workspace\apps\ml/libonnx.a(LpNormalization.o)	#SHT_PROGBITS,SHF_ALLOC|SHF_EXECINSTR,4
	0x43084758		$a.0
	0x43084758		resolver_default_op_LpNormalization
.text	0x4308475c	0x638	C:\Users\nikol\projects\quectel\development\customer\threadx\workspace\apps\ml/libonnx.a(Sqrt.o)	#SHT_PROGBITS,SHF_ALLOC|SHF_EXECINSTR,4
	0x4308475c		$a.0
	0x4308475c		resolver_default_op_Sqrt
	0x4308478c		$d.1
	0x430847cc		$a.2
	0x43084884		$d.3
	0x430848a0		$a.4
	0x430848a0		Sqrt_init
	0x430848c8		Sqrt_exit
	0x430848d0		Sqrt_reshape
	0x43084948		Sqrt_bfloat16
	0x43084a60		Sqrt_float16
	0x43084bb4		Sqrt_float32
	0x43084c84		Sqrt_float64
.text	0x43084d94	0x760	C:\Users\nikol\projects\quectel\development\customer\threadx\workspace\apps\ml/libonnx.a(ThresholdedRelu.o)	#SHT_PROGBITS,SHF_ALLOC|SHF_EXECINSTR,4
	0x43084d94		$a.0
	0x43084d94		resolver_default_op_ThresholdedRelu
	0x43084e28		$d.1
	0x43084e40		$a.2
	0x43084e40		ThresholdedRelu_init
	0x43084e9c		$d.3
	0x43084ea0		$a.4
	0x43084ea0		ThresholdedRelu_exit
	0x43084ec0		ThresholdedRelu_reshape
	0x43084f38		ThresholdedRelu_float16
	0x43085168		ThresholdedRelu_float32
	0x430852cc		ThresholdedRelu_float64
.text	0x430854f4	0x464	C:\Users\nikol\projects\quectel\development\customer\threadx\workspace\apps\ml/libonnx.a(Selu.o)	#SHT_PROGBITS,SHF_ALLOC|SHF_EXECINSTR,4
	0x430854f4		$a.0
	0x430854f4		resolver_default_op_Selu
	0x43085590		$d.1
	0x430855a8		$a.2
	0x430855a8		Selu_init
	0x43085618		$d.3
	0x43085628		$a.4
	0x43085628		Selu_exit
	0x43085648		Selu_reshape
	0x430856c0		Selu_float16
	0x43085794		Selu_float32
	0x43085844		Selu_float64
.text	0x43085958	0x4	C:\Users\nikol\projects\quectel\development\customer\threadx\workspace\apps\ml/libonnx.a(Resize.o)	#SHT_PROGBITS,SHF_ALLOC|SHF_EXECINSTR,4
	0x43085958		$a.0
	0x43085958		resolver_default_op_Resize
.text	0x4308595c	0x960	C:\Users\nikol\projects\quectel\development\customer\threadx\workspace\apps\ml/libonnx.a(LeakyRelu.o)	#SHT_PROGBITS,SHF_ALLOC|SHF_EXECINSTR,4
	0x4308595c		$a.0
	0x4308595c		resolver_default_op_LeakyRelu
	0x430859f8		$d.1
	0x43085a10		$a.2
	0x43085a10		LeakyRelu_init
	0x43085a6c		$d.3
	0x43085a74		$a.4
	0x43085a74		LeakyRelu_exit
	0x43085a94		LeakyRelu_reshape
	0x43085b0c		LeakyRelu_float16
	0x43085d38		LeakyRelu_float32
	0x43085f4c		LeakyRelu_float64
.text	0x430862bc	0x4898	C:\Users\nikol\projects\quectel\development\customer\threadx\workspace\apps\ml/libonnx.a(Transpose.o)	#SHT_PROGBITS,SHF_ALLOC|SHF_EXECINSTR,4
	0x430862bc		$a.0
	0x430862bc		resolver_default_op_Transpose
	0x430862ec		$d.1
	0x4308632c		$a.2
	0x43086378		$d.3
	0x430863b4		$a.4
	0x43086598		$d.5
	0x430865e4		$a.6
	0x430865e4		Transpose_init
	0x430866dc		$d.7
	0x430866e0		$a.8
	0x430866e0		Transpose_exit
	0x43086714		Transpose_reshape
	0x430867d0		Transpose_bool
	0x43086be4		Transpose_int8
	0x43086ff8		Transpose_int16
	0x43087434		Transpose_int32
	0x43087848		Transpose_int64
	0x43087c94		Transpose_uint8
	0x430880a8		Transpose_uint16
	0x430884e4		Transpose_uint32
	0x430888f8		Transpose_uint64
	0x43088d44		Transpose_bfloat16
	0x43089180		Transpose_float16
	0x430895bc		Transpose_float32
	0x430899f0		Transpose_float64
	0x43089e3c		Transpose_complex64
	0x4308a298		Transpose_complex128
	0x4308a71c		Transpose_string
.text	0x4308ab54	0x2d54	C:\Users\nikol\projects\quectel\development\customer\threadx\workspace\apps\ml/libonnx.a(Mod.o)	#SHT_PROGBITS,SHF_ALLOC|SHF_EXECINSTR,4
	0x4308ab54		$a.0
	0x4308ab54		resolver_default_op_Mod
	0x4308ab84		$d.1
	0x4308abc4		$a.2
	0x4308ac10		$d.3
	0x4308ac44		$a.4
	0x4308ada8		$d.5
	0x4308ade4		$a.6
	0x4308ade4		Mod_init
	0x4308ae44		$d.7
	0x4308ae48		$a.8
	0x4308ae48		Mod_exit
	0x4308ae68		Mod_reshape
	0x4308ae80		Mod_int8
	0x4308b28c		Mod_int16
	0x4308b698		Mod_int32
	0x4308ba4c		Mod_int64
	0x4308beb4		Mod_uint8
	0x4308c254		Mod_uint16
	0x4308c5f4		Mod_uint32
	0x4308c994		Mod_uint64
	0x4308cdec		Mod_bfloat16
	0x4308cfd0		Mod_float16
	0x4308d1a8		Mod_float32
	0x4308d33c		Mod_float64
	0x4308d4e0		onnx_tensor_reshape_multi_broadcast
	0x4308d620		onnx_tensor_broadcast_map_address
.text	0x4308d8a8	0xba4	C:\Users\nikol\projects\quectel\development\customer\threadx\workspace\apps\ml/libonnx.a(InstanceNormalization.o)	#SHT_PROGBITS,SHF_ALLOC|SHF_EXECINSTR,4
	0x4308d8a8		$a.0
	0x4308d8a8		resolver_default_op_InstanceNormalization
	0x4308d944		$d.1
	0x4308d95c		$a.2
	0x4308d95c		InstanceNormalization_init
	0x4308d9bc		$d.3
	0x4308d9c4		$a.4
	0x4308d9c4		InstanceNormalization_exit
	0x4308d9e4		InstanceNormalization_reshape
	0x4308da5c		InstanceNormalization_float16
	0x4308ddec		InstanceNormalization_float32
	0x4308e0f4		InstanceNormalization_float64
.text	0x4308e44c	0x23c	C:\Users\nikol\projects\quectel\development\customer\threadx\workspace\apps\ml/libonnx.a(Unsqueeze.o)	#SHT_PROGBITS,SHF_ALLOC|SHF_EXECINSTR,4
	0x4308e44c		$a.0
	0x4308e44c		resolver_default_op_Unsqueeze
	0x4308e494		$d.1
	0x4308e4a4		$a.2
	0x4308e4a4		Unsqueeze_init
	0x4308e4cc		Unsqueeze_exit
	0x4308e4d4		Unsqueeze_reshape
	0x4308e604		Unsqueeze_operator
.text	0x4308e688	0x488	C:\Users\nikol\projects\quectel\development\customer\threadx\workspace\apps\ml/libonnx.a(Atanh.o)	#SHT_PROGBITS,SHF_ALLOC|SHF_EXECINSTR,4
	0x4308e688		$a.0
	0x4308e688		resolver_default_op_Atanh
	0x4308e71c		$d.1
	0x4308e734		$a.2
	0x4308e734		Atanh_init
	0x4308e75c		Atanh_exit
	0x4308e764		Atanh_reshape
	0x4308e7dc		Atanh_float16
	0x4308e930		Atanh_float32
	0x4308ea00		Atanh_float64
.text	0x4308eb10	0x730	C:\Users\nikol\projects\quectel\development\customer\threadx\workspace\apps\ml/libonnx.a(Softsign.o)	#SHT_PROGBITS,SHF_ALLOC|SHF_EXECINSTR,4
	0x4308eb10		$a.0
	0x4308eb10		resolver_default_op_Softsign
	0x4308eba4		$d.1
	0x4308ebbc		$a.2
	0x4308ebbc		Softsign_init
	0x4308ebe4		Softsign_exit
	0x4308ebec		Softsign_reshape
	0x4308ec64		Softsign_float16
	0x4308ee54		$d.3
	0x4308ee58		$a.4
	0x4308ee58		Softsign_float32
	0x4308efdc		Softsign_float64
.text	0x4308f240	0x1688	C:\Users\nikol\projects\quectel\development\customer\threadx\workspace\apps\ml/libonnx.a(Softmax.o)	#SHT_PROGBITS,SHF_ALLOC|SHF_EXECINSTR,4
	0x4308f240		$a.0
	0x4308f240		resolver_default_op_Softmax
	0x4308f274		$d.1
	0x4308f2b4		$a.2
	0x4308f2e8		$d.3
	0x4308f304		$a.4
	0x4308f304		Softmax_init
	0x4308f364		$d.5
	0x4308f368		$a.6
	0x4308f368		Softmax_exit
	0x4308f388		Softmax_reshape
	0x4308f4a4		Softmax_bfloat16
	0x4308f95c		Softmax_float16
	0x4308fe88		Softmax_float32
	0x43090300		Softmax_float64
.text	0x430908c8	0x4	C:\Users\nikol\projects\quectel\development\customer\threadx\workspace\apps\ml/libonnx.a(NegativeLogLikelihoodLoss.o)	#SHT_PROGBITS,SHF_ALLOC|SHF_EXECINSTR,4
	0x430908c8		$a.0
	0x430908c8		resolver_default_op_NegativeLogLikelihoodLoss
.text	0x430908cc	0xf44	C:\Users\nikol\projects\quectel\development\customer\threadx\workspace\apps\ml/libonnx.a(Min.o)	#SHT_PROGBITS,SHF_ALLOC|SHF_EXECINSTR,4
	0x430908cc		$a.0
	0x430908cc		resolver_default_op_Min
	0x430908fc		$d.1
	0x4309093c		$a.2
	0x43090988		$d.3
	0x430909bc		$a.4
	0x43090b5c		$d.5
	0x43090b98		$a.6
	0x43090b98		Min_init
	0x43090bc0		Min_exit
	0x43090bc8		Min_reshape
	0x43090c94		Min_int8
	0x43090d20		Min_int16
	0x43090dbc		Min_int32
	0x43090e44		Min_int64
	0x43090ef0		Min_uint8
	0x43090f7c		Min_uint16
	0x43091018		Min_uint32
	0x430910a0		Min_uint64
	0x43091158		Min_bfloat16
	0x430911f8		$d.7
	0x430911fc		$a.8
	0x430911fc		Min_float16
	0x430912d8		$d.9
	0x430912dc		$a.10
	0x430912dc		Min_float32
	0x43091378		$d.11
	0x4309137c		$a.12
	0x4309137c		Min_float64
	0x43091444		$d.13
	0x43091448		$a.14
	0x43091448		onnx_tensor_reshape_multi_broadcast
	0x43091588		onnx_tensor_broadcast_map_address
.text	0x43091810	0x4	C:\Users\nikol\projects\quectel\development\customer\threadx\workspace\apps\ml/libonnx.a(MatMulInteger.o)	#SHT_PROGBITS,SHF_ALLOC|SHF_EXECINSTR,4
	0x43091810		$a.0
	0x43091810		resolver_default_op_MatMulInteger
.text	0x43091814	0x488	C:\Users\nikol\projects\quectel\development\customer\threadx\workspace\apps\ml/libonnx.a(Cos.o)	#SHT_PROGBITS,SHF_ALLOC|SHF_EXECINSTR,4
	0x43091814		$a.0
	0x43091814		resolver_default_op_Cos
	0x430918a8		$d.1
	0x430918c0		$a.2
	0x430918c0		Cos_init
	0x430918e8		Cos_exit
	0x430918f0		Cos_reshape
	0x43091968		Cos_float16
	0x43091abc		Cos_float32
	0x43091b8c		Cos_float64
.text	0x43091c9c	0x4bf8	C:\Users\nikol\projects\quectel\development\customer\threadx\workspace\apps\ml/libonnx.a(ArgMin.o)	#SHT_PROGBITS,SHF_ALLOC|SHF_EXECINSTR,4
	0x43091c9c		$a.0
	0x43091c9c		resolver_default_op_ArgMin
	0x43091ccc		$d.1
	0x43091d0c		$a.2
	0x43091d58		$d.3
	0x43091d8c		$a.4
	0x43091db8		$d.5
	0x43091dec		$a.6
	0x43091e18		$d.7
	0x43091e4c		$a.8
	0x43091fb0		$d.9
	0x43091fec		$a.10
	0x43091fec		ArgMin_init
	0x4309207c		$d.11
	0x43092088		$a.12
	0x43092088		ArgMin_exit
	0x430920a8		ArgMin_reshape
	0x430921dc		ArgMin_int8
	0x430926fc		ArgMin_int16
	0x43092c58		ArgMin_int32
	0x43093188		ArgMin_int64
	0x43093868		ArgMin_uint8
	0x43093d88		ArgMin_uint16
	0x43094328		ArgMin_uint32
	0x43094858		ArgMin_uint64
	0x43094f38		ArgMin_bfloat16
	0x4309557c		ArgMin_float16
	0x43095ab8		ArgMin_float32
	0x430960f8		ArgMin_float64
.text	0x43096894	0x8c0	C:\Users\nikol\projects\quectel\development\customer\threadx\workspace\apps\ml/libonnx.a(Relu.o)	#SHT_PROGBITS,SHF_ALLOC|SHF_EXECINSTR,4
	0x43096894		$a.0
	0x43096894		resolver_default_op_Relu
	0x430968c4		$d.1
	0x43096904		$a.2
	0x430969bc		$d.3
	0x430969d8		$a.4
	0x430969d8		Relu_init
	0x43096a00		Relu_exit
	0x43096a08		Relu_reshape
	0x43096a80		Relu_bfloat16
	0x43096c28		Relu_float16
	0x43096de8		Relu_float32
	0x43096f48		Relu_float64
.text	0x43097154	0x4	C:\Users\nikol\projects\quectel\development\customer\threadx\workspace\apps\ml/libonnx.a(MaxUnpool.o)	#SHT_PROGBITS,SHF_ALLOC|SHF_EXECINSTR,4
	0x43097154		$a.0
	0x43097154		resolver_default_op_MaxUnpool
.text	0x43097158	0x638	C:\Users\nikol\projects\quectel\development\customer\threadx\workspace\apps\ml/libonnx.a(Exp.o)	#SHT_PROGBITS,SHF_ALLOC|SHF_EXECINSTR,4
	0x43097158		$a.0
	0x43097158		resolver_default_op_Exp
	0x43097188		$d.1
	0x430971c8		$a.2
	0x43097280		$d.3
	0x4309729c		$a.4
	0x4309729c		Exp_init
	0x430972c4		Exp_exit
	0x430972cc		Exp_reshape
	0x43097344		Exp_bfloat16
	0x4309745c		Exp_float16
	0x430975b0		Exp_float32
	0x43097680		Exp_float64
.text	0x43097790	0x1e64	C:\Users\nikol\projects\quectel\development\customer\threadx\workspace\apps\ml/libonnx.a(Equal.o)	#SHT_PROGBITS,SHF_ALLOC|SHF_EXECINSTR,4
	0x43097790		$a.0
	0x43097790		resolver_default_op_Equal
	0x430977c0		$d.1
	0x43097800		$a.2
	0x4309784c		$d.3
	0x43097880		$a.4
	0x43097a30		$d.5
	0x43097a70		$a.6
	0x43097a70		Equal_init
	0x43097a98		Equal_exit
	0x43097aa0		Equal_reshape
	0x43097ab4		Equal_bool
	0x43097c70		Equal_int8
	0x43097e2c		Equal_int16
	0x43097fe8		Equal_int32
	0x430981a4		Equal_int64
	0x4309839c		Equal_uint8
	0x43098558		Equal_uint16
	0x43098714		Equal_uint32
	0x430988d0		Equal_uint64
	0x43098ac8		Equal_bfloat16
	0x43098cc0		Equal_float16
	0x43098e74		Equal_float32
	0x43099044		Equal_float64
	0x43099234		onnx_tensor_reshape_multi_broadcast
	0x4309936c		onnx_tensor_broadcast_map_address
.text	0x430995f4	0x26c	C:\Users\nikol\projects\quectel\development\customer\threadx\workspace\apps\ml/libonnx.a(Squeeze.o)	#SHT_PROGBITS,SHF_ALLOC|SHF_EXECINSTR,4
	0x430995f4		$a.0
	0x430995f4		resolver_default_op_Squeeze
	0x4309963c		$d.1
	0x4309964c		$a.2
	0x4309964c		Squeeze_init
	0x43099674		Squeeze_exit
	0x4309967c		Squeeze_reshape
	0x430997dc		Squeeze_operator
.text	0x43099860	0x4	C:\Users\nikol\projects\quectel\development\customer\threadx\workspace\apps\ml/libonnx.a(Hardmax.o)	#SHT_PROGBITS,SHF_ALLOC|SHF_EXECINSTR,4
	0x43099860		$a.0
	0x43099860		resolver_default_op_Hardmax
.text	0x43099864	0xc70	C:\Users\nikol\projects\quectel\development\customer\threadx\workspace\apps\ml/libonnx.a(Sigmoid.o)	#SHT_PROGBITS,SHF_ALLOC|SHF_EXECINSTR,4
	0x43099864		$a.0
	0x43099864		resolver_default_op_Sigmoid
	0x43099894		$d.1
	0x430998d4		$a.2
	0x4309998c		$d.3
	0x430999a8		$a.4
	0x430999a8		Sigmoid_init
	0x430999d0		Sigmoid_exit
	0x430999d8		Sigmoid_reshape
	0x43099a50		Sigmoid_bfloat16
	0x43099c30		Sigmoid_float16
	0x43099e8c		Sigmoid_float32
	0x4309a18c		Sigmoid_float64
.text	0x4309a4d4	0x4	C:\Users\nikol\projects\quectel\development\customer\threadx\workspace\apps\ml/libonnx.a(GatherND.o)	#SHT_PROGBITS,SHF_ALLOC|SHF_EXECINSTR,4
	0x4309a4d4		$a.0
	0x4309a4d4		resolver_default_op_GatherND
.text	0x4309a4d8	0x1c5c	C:\Users\nikol\projects\quectel\development\customer\threadx\workspace\apps\ml/libonnx.a(Less.o)	#SHT_PROGBITS,SHF_ALLOC|SHF_EXECINSTR,4
	0x4309a4d8		$a.0
	0x4309a4d8		resolver_default_op_Less
	0x4309a508		$d.1
	0x4309a548		$a.2
	0x4309a594		$d.3
	0x4309a5c8		$a.4
	0x4309a758		$d.5
	0x4309a794		$a.6
	0x4309a794		Less_init
	0x4309a7bc		Less_exit
	0x4309a7c4		Less_reshape
	0x4309a7d8		Less_int8
	0x4309a994		Less_int16
	0x4309ab50		Less_int32
	0x4309ad0c		Less_int64
	0x4309aef0		Less_uint8
	0x4309b0ac		Less_uint16
	0x4309b268		Less_uint32
	0x4309b424		Less_uint64
	0x4309b608		Less_bfloat16
	0x4309b800		Less_float16
	0x4309b9b4		Less_float32
	0x4309bb84		Less_float64
	0x4309bd74		onnx_tensor_reshape_multi_broadcast
	0x4309beac		onnx_tensor_broadcast_map_address
.text	0x4309c134	0xe54	C:\Users\nikol\projects\quectel\development\customer\threadx\workspace\apps\ml/libonnx.a(Abs.o)	#SHT_PROGBITS,SHF_ALLOC|SHF_EXECINSTR,4
	0x4309c134		$a.0
	0x4309c134		resolver_default_op_Abs
	0x4309c164		$d.1
	0x4309c1a4		$a.2
	0x4309c1f0		$d.3
	0x4309c224		$a.4
	0x4309c3b4		$d.5
	0x4309c3f0		$a.6
	0x4309c3f0		Abs_init
	0x4309c418		Abs_exit
	0x4309c420		Abs_reshape
	0x4309c498		Abs_int8
	0x4309c584		Abs_int16
	0x4309c670		Abs_int32
	0x4309c75c		Abs_int64
	0x4309c8e4		Abs_uint8
	0x4309c990		Abs_uint16
	0x4309ca3c		Abs_uint32
	0x4309cae8		Abs_uint64
	0x4309cbe4		Abs_bfloat16
	0x4309ccc4		Abs_float16
	0x4309cd9c		Abs_float32
	0x4309ce6c		Abs_float64
.text	0x4309cf88	0x492c	C:\Users\nikol\projects\quectel\development\customer\threadx\workspace\apps\ml/libonnx.a(ReduceMin.o)	#SHT_PROGBITS,SHF_ALLOC|SHF_EXECINSTR,4
	0x4309cf88		$a.0
	0x4309cf88		resolver_default_op_ReduceMin
	0x4309cfb8		$d.1
	0x4309cff8		$a.2
	0x4309d044		$d.3
	0x4309d078		$a.4
	0x4309d0c4		$d.5
	0x4309d0f8		$a.6
	0x4309d124		$d.7
	0x4309d158		$a.8
	0x4309d25c		$d.9
	0x4309d290		$a.10
	0x4309d290		ReduceMin_init
	0x4309d3d4		$d.11
	0x4309d3dc		$a.12
	0x4309d3dc		ReduceMin_exit
	0x4309d420		ReduceMin_reshape
	0x4309d5d8		ReduceMin_int8
	0x4309dca0		ReduceMin_int32
	0x4309e35c		ReduceMin_int64
	0x4309ea10		ReduceMin_uint8
	0x4309f0d0		ReduceMin_uint32
	0x4309f78c		ReduceMin_uint64
	0x4309fe40		ReduceMin_bfloat16
	0x430a0498		ReduceMin_float16
	0x430a0b30		ReduceMin_float32
	0x430a11c8		ReduceMin_float64
.text	0x430a18b4	0xc1c	C:\Users\nikol\projects\quectel\development\customer\threadx\workspace\apps\ml/libonnx.a(RandomNormal.o)	#SHT_PROGBITS,SHF_ALLOC|SHF_EXECINSTR,4
	0x430a18b4		$a.0
	0x430a18b4		resolver_default_op_RandomNormal
	0x430a18e4		$d.1
	0x430a18f4		$a.2
	0x430a18f4		RandomNormal_init
	0x430a19f0		$d.3
	0x430a1a04		$a.4
	0x430a1a04		RandomNormal_exit
	0x430a1a38		RandomNormal_reshape
	0x430a1aac		RandomNormal_operator
	0x430a24c4		$d.5
.text	0x430a24d0	0x1374	C:\Users\nikol\projects\quectel\development\customer\threadx\workspace\apps\ml/libonnx.a(BitShift.o)	#SHT_PROGBITS,SHF_ALLOC|SHF_EXECINSTR,4
	0x430a24d0		$a.0
	0x430a24d0		resolver_default_op_BitShift
	0x430a2500		$d.1
	0x430a2530		$a.2
	0x430a25b4		$d.3
	0x430a25d0		$a.4
	0x430a25d0		BitShift_init
	0x430a2644		$d.5
	0x430a264c		$a.6
	0x430a264c		BitShift_exit
	0x430a266c		BitShift_reshape
	0x430a2684		BitShift_uint8
	0x430a29a8		BitShift_uint16
	0x430a2ccc		BitShift_uint32
	0x430a2ff0		BitShift_uint64
	0x430a347c		onnx_tensor_reshape_multi_broadcast
	0x430a35bc		onnx_tensor_broadcast_map_address
.text	0x430a3844	0x4	C:\Users\nikol\projects\quectel\development\customer\threadx\workspace\apps\ml/libonnx.a(Einsum.o)	#SHT_PROGBITS,SHF_ALLOC|SHF_EXECINSTR,4
	0x430a3844		$a.0
	0x430a3844		resolver_default_op_Einsum
.text	0x430a3848	0x4	C:\Users\nikol\projects\quectel\development\customer\threadx\workspace\apps\ml/libonnx.a(QLinearConv.o)	#SHT_PROGBITS,SHF_ALLOC|SHF_EXECINSTR,4
	0x430a3848		$a.0
	0x430a3848		resolver_default_op_QLinearConv
.text	0x430a384c	0x9b8	C:\Users\nikol\projects\quectel\development\customer\threadx\workspace\apps\ml/libonnx.a(RandomUniform.o)	#SHT_PROGBITS,SHF_ALLOC|SHF_EXECINSTR,4
	0x430a384c		$a.0
	0x430a384c		resolver_default_op_RandomUniform
	0x430a387c		$d.1
	0x430a388c		$a.2
	0x430a388c		RandomUniform_init
	0x430a3988		$d.3
	0x430a399c		$a.4
	0x430a399c		RandomUniform_exit
	0x430a39d0		RandomUniform_reshape
	0x430a3a44		RandomUniform_operator
	0x430a4200		$d.5
.text	0x430a4204	0x4	C:\Users\nikol\projects\quectel\development\customer\threadx\workspace\apps\ml/libonnx.a(DynamicQuantizeLinear.o)	#SHT_PROGBITS,SHF_ALLOC|SHF_EXECINSTR,4
	0x430a4204		$a.0
	0x430a4204		resolver_default_op_DynamicQuantizeLinear
.text	0x430a4208	0x1a8	C:\Users\nikol\projects\quectel\development\customer\threadx\workspace\apps\ml/libonnx.a(Identity.o)	#SHT_PROGBITS,SHF_ALLOC|SHF_EXECINSTR,4
	0x430a4208		$a.0
	0x430a4208		resolver_default_op_Identity
	0x430a4274		$d.1
	0x430a4284		$a.2
	0x430a4284		Identity_init
	0x430a42ac		Identity_exit
	0x430a42b4		Identity_reshape
	0x430a432c		Identity_operator
.text	0x430a43b0	0x2254	C:\Users\nikol\projects\quectel\development\customer\threadx\workspace\apps\ml/libonnx.a(MatMul.o)	#SHT_PROGBITS,SHF_ALLOC|SHF_EXECINSTR,4
	0x430a43b0		$a.0
	0x430a43b0		resolver_default_op_MatMul
	0x430a43e0		$d.1
	0x430a4420		$a.2
	0x430a446c		$d.3
	0x430a44a0		$a.4
	0x430a45b0		$d.5
	0x430a45dc		$a.6
	0x430a45dc		MatMul_init
	0x430a4630		MatMul_exit
	0x430a4650		MatMul_reshape
	0x430a4878		MatMul_int32
	0x430a4b0c		MatMul_int64
	0x430a4ecc		MatMul_uint32
	0x430a5160		MatMul_uint64
	0x430a5520		MatMul_bfloat16
	0x430a5840		MatMul_float16
	0x430a5bfc		MatMul_float32
	0x430a5f4c		MatMul_float64
	0x430a637c		onnx_tensor_broadcast_map_address
.text	0x430a6604	0x1438	C:\Users\nikol\projects\quectel\development\customer\threadx\workspace\apps\ml/libonnx.a(Mul.o)	#SHT_PROGBITS,SHF_ALLOC|SHF_EXECINSTR,4
	0x430a6604		$a.0
	0x430a6604		resolver_default_op_Mul
	0x430a6634		$d.1
	0x430a6674		$a.2
	0x430a66c0		$d.3
	0x430a66f4		$a.4
	0x430a67d8		$d.5
	0x430a6804		$a.6
	0x430a6804		Mul_init
	0x430a682c		Mul_exit
	0x430a6834		Mul_reshape
	0x430a684c		Mul_int32
	0x430a69e0		Mul_int64
	0x430a6bc8		Mul_uint32
	0x430a6d5c		Mul_uint64
	0x430a6f44		Mul_bfloat16
	0x430a7128		Mul_float16
	0x430a7300		Mul_float32
	0x430a74a8		Mul_float64
	0x430a7674		onnx_tensor_reshape_multi_broadcast
	0x430a77b4		onnx_tensor_broadcast_map_address
.text	0x430a7a3c	0x4	C:\Users\nikol\projects\quectel\development\customer\threadx\workspace\apps\ml/libonnx.a(SequenceConstruct.o)	#SHT_PROGBITS,SHF_ALLOC|SHF_EXECINSTR,4
	0x430a7a3c		$a.0
	0x430a7a3c		resolver_default_op_SequenceConstruct
.text	0x430a7a40	0x4	C:\Users\nikol\projects\quectel\development\customer\threadx\workspace\apps\ml/libonnx.a(CumSum.o)	#SHT_PROGBITS,SHF_ALLOC|SHF_EXECINSTR,4
	0x430a7a40		$a.0
	0x430a7a40		resolver_default_op_CumSum
.text	0x430a7a44	0x7d0	C:\Users\nikol\projects\quectel\development\customer\threadx\workspace\apps\ml/libonnx.a(Elu.o)	#SHT_PROGBITS,SHF_ALLOC|SHF_EXECINSTR,4
	0x430a7a44		$a.0
	0x430a7a44		resolver_default_op_Elu
	0x430a7ae0		$d.1
	0x430a7af8		$a.2
	0x430a7af8		Elu_init
	0x430a7b54		$d.3
	0x430a7b58		$a.4
	0x430a7b58		Elu_exit
	0x430a7b78		Elu_reshape
	0x430a7bf0		Elu_float16
	0x430a7d60		Elu_float32
	0x430a7f30		Elu_float64
.text	0x430a8214	0x4	C:\Users\nikol\projects\quectel\development\customer\threadx\workspace\apps\ml/libonnx.a(Gather.o)	#SHT_PROGBITS,SHF_ALLOC|SHF_EXECINSTR,4
	0x430a8214		$a.0
	0x430a8214		resolver_default_op_Gather
.text	0x430a8218	0x843c	C:\Users\nikol\projects\quectel\development\customer\threadx\workspace\apps\ml/libonnx.a(protobuf-c.o)	#SHT_PROGBITS,SHF_ALLOC|SHF_EXECINSTR,4
	0x430a8218		$a.0
	0x430a8218		protobuf_c_version
	0x430a8220		$d.1
	0x430a8224		$a.2
	0x430a8224		protobuf_c_version_number
	0x430a822c		$d.3
	0x430a8230		protobuf_c_buffer_simple_append
	0x430a8230		$a.4
	0x430a8304		$d.5
	0x430a8308		$a.6
	0x430a8308		protobuf_c_message_get_packed_size
	0x430a8664		$d.7
	0x430a86a8		$a.8
	0x430a8718		$d.9
	0x430a875c		$a.10
	0x430a9318		$d.11
	0x430a9328		$a.12
	0x430a9474		required_field_get_packed_size
	0x430a94b0		$d.13
	0x430a94f4		$a.14
	0x430a9678		$d.15
	0x430a9684		$a.16
	0x430a9684		protobuf_c_message_pack
	0x430a9a7c		$d.17
	0x430a9ac0		$a.18
	0x430a9c34		$d.19
	0x430a9c6c		$a.20
	0x430aa670		$d.21
	0x430aa684		$a.22
	0x430aa6f0		$d.23
	0x430aa70c		required_field_pack
	0x430aa70c		$a.24
	0x430aa88c		$d.25
	0x430aa8d0		$a.26
	0x430aaf00		$d.27
	0x430aaf10		protobuf_c_message_pack_to_buffer
	0x430aaf10		$a.28
	0x430ab394		$d.29
	0x430ab3d8		$a.30
	0x430ab470		$d.31
	0x430ab4a8		$a.32
	0x430abda0		$d.33
	0x430abdd8		$a.34
	0x430abf1c		$d.35
	0x430abf30		$a.36
	0x430ac0dc		$d.37
	0x430ac0e0		$a.38
	0x430ac14c		$d.39
	0x430ac150		$a.40
	0x430ac190		$d.41
	0x430ac194		$a.42
	0x430ac4f4		$d.43
	0x430ac4f8		$a.44
	0x430ac90c		$d.45
	0x430ac920		$a.46
	0x430ac920		required_field_pack_to_buffer
	0x430acaac		$d.47
	0x430acaf0		$a.48
	0x430ad17c		$d.49
	0x430ad190		protobuf_c_message_unpack
	0x430ad190		$a.50
	0x430adf4c		$d.51
	0x430adf5c		$a.52
	0x430ae08c		$d.53
	0x430ae0c4		$a.54
	0x430ae138		$d.55
	0x430ae14c		$a.56
	0x430ae268		$d.57
	0x430ae2ac		$a.58
	0x430ae2e0		$d.59
	0x430ae2ec		$a.60
	0x430ae364		$d.61
	0x430ae368		$a.62
	0x430ae470		$d.63
	0x430ae474		$a.64
	0x430ae5e4		$d.65
	0x430ae5fc		$a.66
	0x430ae840		$d.67
	0x430ae878		$a.68
	0x430aeb7c		$d.69
	0x430aeb90		$a.70
	0x430aeb90		protobuf_c_message_init
	0x430aeb9c		protobuf_c_message_free_unpacked
	0x430aeec8		$d.71
	0x430aeedc		$a.72
	0x430aeedc		protobuf_c_message_check
	0x430af0dc		$d.73
	0x430af0e0		protobuf_c_service_invoke_internal
	0x430af0e0		$a.74
	0x430af140		$d.75
	0x430af14c		$a.76
	0x430af14c		protobuf_c_service_generated_init
	0x430af1ac		$d.77
	0x430af1c0		$a.78
	0x430af1c0		protobuf_c_service_destroy
	0x430af1c8		protobuf_c_enum_descriptor_get_value_by_name
	0x430af29c		protobuf_c_enum_descriptor_get_value
	0x430af374		protobuf_c_message_descriptor_get_field_by_name
	0x430af43c		protobuf_c_message_descriptor_get_field
	0x430af514		protobuf_c_service_descriptor_get_method_by_name
	0x430af5e0		system_alloc
	0x430af5e8		system_free
	0x430af5f0		parse_required_member
	0x430af630		$d.79
	0x430af674		$a.80
	0x430b0018		parse_oneof_member
	0x430b0234		$d.81
	0x430b0244		$a.82
	0x430b0244		merge_messages
	0x430b0644		$d.83
.text.__errno_location	0x430b0654	0x8	C:\Users\nikol\projects\quectel\development\customer\threadx\tools\LLVM\4.0.3\armv7m-none-eabi\libc\lib/libc.a(__errno_location.o)	#SHT_PROGBITS,SHF_ALLOC|SHF_EXECINSTR,2
	0x430b0654		$t
	0x430b0655		__errno_location
.text.__assert_fail	0x430b065c	0x2c	C:\Users\nikol\projects\quectel\development\customer\threadx\tools\LLVM\4.0.3\armv7m-none-eabi\libc\lib/libc.a(assert.o)	#SHT_PROGBITS,SHF_ALLOC|SHF_EXECINSTR,4
	0x430b065c		$t
	0x430b065d		__assert_fail
	0x430b0680		$d
.text.__aeabi_assert	0x430b0688	0x6	C:\Users\nikol\projects\quectel\development\customer\threadx\tools\LLVM\4.0.3\armv7m-none-eabi\libc\lib/libc.a(assert.o)	#SHT_PROGBITS,SHF_ALLOC|SHF_EXECINSTR,2
	0x430b0688		$t
	0x430b0689		__aeabi_assert
PADDING_ALIGNMENT	0x430b068e	0x2	0x0
.text.acos	0x430b0690	0x1a4	C:\Users\nikol\projects\quectel\development\customer\threadx\tools\LLVM\4.0.3\armv7m-none-eabi\libc\lib/libc.a(acos.o)	#SHT_PROGBITS,SHF_ALLOC|SHF_EXECINSTR,4
	0x430b0690		$t
	0x430b0691		acos
	0x430b0808		$d
.text.R	0x430b0834	0x108	C:\Users\nikol\projects\quectel\development\customer\threadx\tools\LLVM\4.0.3\armv7m-none-eabi\libc\lib/libc.a(acos.o)	#SHT_PROGBITS,SHF_ALLOC|SHF_EXECINSTR,4
	0x430b0834		$t
	0x430b0835		R
	0x430b08ec		$d
.text.acosf	0x430b093c	0x130	C:\Users\nikol\projects\quectel\development\customer\threadx\tools\LLVM\4.0.3\armv7m-none-eabi\libc\lib/libc.a(acosf.o)	#SHT_PROGBITS,SHF_ALLOC|SHF_EXECINSTR,4
	0x430b093c		$t
	0x430b093d		acosf
	0x430b0a58		$d
.text.R	0x430b0a6c	0x50	C:\Users\nikol\projects\quectel\development\customer\threadx\tools\LLVM\4.0.3\armv7m-none-eabi\libc\lib/libc.a(acosf.o)	#SHT_PROGBITS,SHF_ALLOC|SHF_EXECINSTR,4
	0x430b0a6c		$t
	0x430b0a6d		R
	0x430b0aac		$d
.text.acosh	0x430b0abc	0xdc	C:\Users\nikol\projects\quectel\development\customer\threadx\tools\LLVM\4.0.3\armv7m-none-eabi\libc\lib/libc.a(acosh.o)	#SHT_PROGBITS,SHF_ALLOC|SHF_EXECINSTR,4
	0x430b0abc		$t
	0x430b0abd		acosh
	0x430b0b8c		$d
.text.acoshf	0x430b0b98	0x9c	C:\Users\nikol\projects\quectel\development\customer\threadx\tools\LLVM\4.0.3\armv7m-none-eabi\libc\lib/libc.a(acoshf.o)	#SHT_PROGBITS,SHF_ALLOC|SHF_EXECINSTR,4
	0x430b0b98		$t
	0x430b0b99		acoshf
	0x430b0c2c		$d
.text.sqrt	0x430b0c34	0x164	C:\Users\nikol\projects\quectel\development\customer\threadx\tools\LLVM\4.0.3\armv7m-none-eabi\libc\lib/libc.a(sqrt.o)	#SHT_PROGBITS,SHF_ALLOC|SHF_EXECINSTR,4
	0x430b0c34		$t
	0x430b0c35		sqrt
	0x430b0d8c		$d
.text.sqrtf	0x430b0d98	0xb4	C:\Users\nikol\projects\quectel\development\customer\threadx\tools\LLVM\4.0.3\armv7m-none-eabi\libc\lib/libc.a(sqrtf.o)	#SHT_PROGBITS,SHF_ALLOC|SHF_EXECINSTR,4
	0x430b0d98		$t
	0x430b0d99		sqrtf
	0x430b0e48		$d
.text.asin	0x430b0e4c	0x1f4	C:\Users\nikol\projects\quectel\development\customer\threadx\tools\LLVM\4.0.3\armv7m-none-eabi\libc\lib/libc.a(asin.o)	#SHT_PROGBITS,SHF_ALLOC|SHF_EXECINSTR,4
	0x430b0e4c		$t
	0x430b0e4d		asin
	0x430b100c		$d
.text.R	0x430b1040	0x108	C:\Users\nikol\projects\quectel\development\customer\threadx\tools\LLVM\4.0.3\armv7m-none-eabi\libc\lib/libc.a(asin.o)	#SHT_PROGBITS,SHF_ALLOC|SHF_EXECINSTR,4
	0x430b1040		$t
	0x430b1041		R
	0x430b10f8		$d
.text.asinf	0x430b1148	0xfc	C:\Users\nikol\projects\quectel\development\customer\threadx\tools\LLVM\4.0.3\armv7m-none-eabi\libc\lib/libc.a(asinf.o)	#SHT_PROGBITS,SHF_ALLOC|SHF_EXECINSTR,4
	0x430b1148		$t
	0x430b1149		asinf
	0x430b1234		$d
.text.R	0x430b1244	0x50	C:\Users\nikol\projects\quectel\development\customer\threadx\tools\LLVM\4.0.3\armv7m-none-eabi\libc\lib/libc.a(asinf.o)	#SHT_PROGBITS,SHF_ALLOC|SHF_EXECINSTR,4
	0x430b1244		$t
	0x430b1245		R
	0x430b1284		$d
.text.asinh	0x430b1294	0x110	C:\Users\nikol\projects\quectel\development\customer\threadx\tools\LLVM\4.0.3\armv7m-none-eabi\libc\lib/libc.a(asinh.o)	#SHT_PROGBITS,SHF_ALLOC|SHF_EXECINSTR,4
	0x430b1294		$t
	0x430b1295		asinh
	0x430b1394		$d
.text.asinhf	0x430b13a4	0xbc	C:\Users\nikol\projects\quectel\development\customer\threadx\tools\LLVM\4.0.3\armv7m-none-eabi\libc\lib/libc.a(asinhf.o)	#SHT_PROGBITS,SHF_ALLOC|SHF_EXECINSTR,4
	0x430b13a4		$t
	0x430b13a5		asinhf
	0x430b145c		$d
.text.atan	0x430b1460	0x340	C:\Users\nikol\projects\quectel\development\customer\threadx\tools\LLVM\4.0.3\armv7m-none-eabi\libc\lib/libc.a(atan.o)	#SHT_PROGBITS,SHF_ALLOC|SHF_EXECINSTR,4
	0x430b1460		$t
	0x430b1461		atan
	0x430b1710		$d
.text.atanf	0x430b17a0	0x1d0	C:\Users\nikol\projects\quectel\development\customer\threadx\tools\LLVM\4.0.3\armv7m-none-eabi\libc\lib/libc.a(atanf.o)	#SHT_PROGBITS,SHF_ALLOC|SHF_EXECINSTR,4
	0x430b17a0		$t
	0x430b17a1		atanf
	0x430b1938		$d
.text.atanh	0x430b1970	0xc0	C:\Users\nikol\projects\quectel\development\customer\threadx\tools\LLVM\4.0.3\armv7m-none-eabi\libc\lib/libc.a(atanh.o)	#SHT_PROGBITS,SHF_ALLOC|SHF_EXECINSTR,4
	0x430b1970		$t
	0x430b1971		atanh
	0x430b1a28		$d
.text.atanhf	0x430b1a30	0x8a	C:\Users\nikol\projects\quectel\development\customer\threadx\tools\LLVM\4.0.3\armv7m-none-eabi\libc\lib/libc.a(atanhf.o)	#SHT_PROGBITS,SHF_ALLOC|SHF_EXECINSTR,2
	0x430b1a30		$t
	0x430b1a31		atanhf
PADDING_ALIGNMENT	0x430b1aba	0x2	0x0
.text.ceil	0x430b1abc	0xd4	C:\Users\nikol\projects\quectel\development\customer\threadx\tools\LLVM\4.0.3\armv7m-none-eabi\libc\lib/libc.a(ceil.o)	#SHT_PROGBITS,SHF_ALLOC|SHF_EXECINSTR,4
	0x430b1abc		$t
	0x430b1abd		ceil
	0x430b1b84		$d
.text.ceilf	0x430b1b90	0x5c	C:\Users\nikol\projects\quectel\development\customer\threadx\tools\LLVM\4.0.3\armv7m-none-eabi\libc\lib/libc.a(ceilf.o)	#SHT_PROGBITS,SHF_ALLOC|SHF_EXECINSTR,4
	0x430b1b90		$t
	0x430b1b91		ceilf
	0x430b1be8		$d
.text.cos	0x430b1bec	0xa0	C:\Users\nikol\projects\quectel\development\customer\threadx\tools\LLVM\4.0.3\armv7m-none-eabi\libc\lib/libc.a(cos.o)	#SHT_PROGBITS,SHF_ALLOC|SHF_EXECINSTR,4
	0x430b1bec		$t
	0x430b1bed		cos
	0x430b1c78		$d
.text.cosf	0x430b1c8c	0x140	C:\Users\nikol\projects\quectel\development\customer\threadx\tools\LLVM\4.0.3\armv7m-none-eabi\libc\lib/libc.a(cosf.o)	#SHT_PROGBITS,SHF_ALLOC|SHF_EXECINSTR,4
	0x430b1c8c		$t
	0x430b1c8d		cosf
	0x430b1da0		$d
.text.cosh	0x430b1dcc	0xc0	C:\Users\nikol\projects\quectel\development\customer\threadx\tools\LLVM\4.0.3\armv7m-none-eabi\libc\lib/libc.a(cosh.o)	#SHT_PROGBITS,SHF_ALLOC|SHF_EXECINSTR,4
	0x430b1dcc		$t
	0x430b1dcd		cosh
	0x430b1e74		$d
.text.coshf	0x430b1e8c	0x8c	C:\Users\nikol\projects\quectel\development\customer\threadx\tools\LLVM\4.0.3\armv7m-none-eabi\libc\lib/libc.a(coshf.o)	#SHT_PROGBITS,SHF_ALLOC|SHF_EXECINSTR,4
	0x430b1e8c		$t
	0x430b1e8d		coshf
	0x430b1f10		$d
.text.erf	0x430b1f18	0x214	C:\Users\nikol\projects\quectel\development\customer\threadx\tools\LLVM\4.0.3\armv7m-none-eabi\libc\lib/libc.a(erf.o)	#SHT_PROGBITS,SHF_ALLOC|SHF_EXECINSTR,4
	0x430b1f18		$t
	0x430b1f19		erf
	0x430b20bc		$d
.text.erfc2	0x430b212c	0x5b4	C:\Users\nikol\projects\quectel\development\customer\threadx\tools\LLVM\4.0.3\armv7m-none-eabi\libc\lib/libc.a(erf.o)	#SHT_PROGBITS,SHF_ALLOC|SHF_EXECINSTR,4
	0x430b212c		$t
	0x430b212d		erfc2
	0x430b2574		$d
.text.erfc	0x430b26e0	0x220	C:\Users\nikol\projects\quectel\development\customer\threadx\tools\LLVM\4.0.3\armv7m-none-eabi\libc\lib/libc.a(erf.o)	#SHT_PROGBITS,SHF_ALLOC|SHF_EXECINSTR,4
	0x430b26e0		$t
	0x430b26e1		erfc
	0x430b2890		$d
.text.erff	0x430b2900	0x16c	C:\Users\nikol\projects\quectel\development\customer\threadx\tools\LLVM\4.0.3\armv7m-none-eabi\libc\lib/libc.a(erff.o)	#SHT_PROGBITS,SHF_ALLOC|SHF_EXECINSTR,4
	0x430b2900		$t
	0x430b2901		erff
	0x430b2a34		$d
.text.erfc2	0x430b2a6c	0x37c	C:\Users\nikol\projects\quectel\development\customer\threadx\tools\LLVM\4.0.3\armv7m-none-eabi\libc\lib/libc.a(erff.o)	#SHT_PROGBITS,SHF_ALLOC|SHF_EXECINSTR,4
	0x430b2a6c		$t
	0x430b2a6d		erfc2
	0x430b2d28		$d
.text.erfcf	0x430b2de8	0x178	C:\Users\nikol\projects\quectel\development\customer\threadx\tools\LLVM\4.0.3\armv7m-none-eabi\libc\lib/libc.a(erff.o)	#SHT_PROGBITS,SHF_ALLOC|SHF_EXECINSTR,4
	0x430b2de8		$t
	0x430b2de9		erfcf
	0x430b2f30		$d
.text.exp	0x430b2f60	0x280	C:\Users\nikol\projects\quectel\development\customer\threadx\tools\LLVM\4.0.3\armv7m-none-eabi\libc\lib/libc.a(exp.o)	#SHT_PROGBITS,SHF_ALLOC|SHF_EXECINSTR,4
	0x430b2f60		$t
	0x430b2f61		exp
	0x430b3164		$d
.text.expf	0x430b31e0	0x154	C:\Users\nikol\projects\quectel\development\customer\threadx\tools\LLVM\4.0.3\armv7m-none-eabi\libc\lib/libc.a(expf.o)	#SHT_PROGBITS,SHF_ALLOC|SHF_EXECINSTR,4
	0x430b31e0		$t
	0x430b31e1		expf
	0x430b3304		$d
.text.expm1	0x430b3334	0x420	C:\Users\nikol\projects\quectel\development\customer\threadx\tools\LLVM\4.0.3\armv7m-none-eabi\libc\lib/libc.a(expm1.o)	#SHT_PROGBITS,SHF_ALLOC|SHF_EXECINSTR,4
	0x430b3334		$t
	0x430b3335		expm1
	0x430b36d8		$d
.text.expm1f	0x430b3754	0x2b8	C:\Users\nikol\projects\quectel\development\customer\threadx\tools\LLVM\4.0.3\armv7m-none-eabi\libc\lib/libc.a(expm1f.o)	#SHT_PROGBITS,SHF_ALLOC|SHF_EXECINSTR,4
	0x430b3754		$t
	0x430b3755		expm1f
	0x430b39d8		$d
.text.floor	0x430b3a0c	0xc4	C:\Users\nikol\projects\quectel\development\customer\threadx\tools\LLVM\4.0.3\armv7m-none-eabi\libc\lib/libc.a(floor.o)	#SHT_PROGBITS,SHF_ALLOC|SHF_EXECINSTR,4
	0x430b3a0c		$t
	0x430b3a0d		floor
	0x430b3ac4		$d
.text.floorf	0x430b3ad0	0x5c	C:\Users\nikol\projects\quectel\development\customer\threadx\tools\LLVM\4.0.3\armv7m-none-eabi\libc\lib/libc.a(floorf.o)	#SHT_PROGBITS,SHF_ALLOC|SHF_EXECINSTR,4
	0x430b3ad0		$t
	0x430b3ad1		floorf
	0x430b3b24		$d
.text.fmax	0x430b3b2c	0x78	C:\Users\nikol\projects\quectel\development\customer\threadx\tools\LLVM\4.0.3\armv7m-none-eabi\libc\lib/libc.a(fmax.o)	#SHT_PROGBITS,SHF_ALLOC|SHF_EXECINSTR,4
	0x430b3b2c		$t
	0x430b3b2d		fmax
	0x430b3b9c		$d
.text.fmaxf	0x430b3ba4	0x48	C:\Users\nikol\projects\quectel\development\customer\threadx\tools\LLVM\4.0.3\armv7m-none-eabi\libc\lib/libc.a(fmaxf.o)	#SHT_PROGBITS,SHF_ALLOC|SHF_EXECINSTR,4
	0x430b3ba4		$t
	0x430b3ba5		fmaxf
	0x430b3be8		$d
.text.fmod	0x430b3bec	0x1f4	C:\Users\nikol\projects\quectel\development\customer\threadx\tools\LLVM\4.0.3\armv7m-none-eabi\libc\lib/libc.a(fmod.o)	#SHT_PROGBITS,SHF_ALLOC|SHF_EXECINSTR,4
	0x430b3bec		$t
	0x430b3bed		fmod
	0x430b3ddc		$d
.text.fmodf	0x430b3de0	0xe4	C:\Users\nikol\projects\quectel\development\customer\threadx\tools\LLVM\4.0.3\armv7m-none-eabi\libc\lib/libc.a(fmodf.o)	#SHT_PROGBITS,SHF_ALLOC|SHF_EXECINSTR,4
	0x430b3de0		$t
	0x430b3de1		fmodf
	0x430b3ec0		$d
.text.log	0x430b3ec4	0x248	C:\Users\nikol\projects\quectel\development\customer\threadx\tools\LLVM\4.0.3\armv7m-none-eabi\libc\lib/libc.a(log.o)	#SHT_PROGBITS,SHF_ALLOC|SHF_EXECINSTR,4
	0x430b3ec4		$t
	0x430b3ec5		log
	0x430b40a0		$d
.text.log1p	0x430b410c	0x2f0	C:\Users\nikol\projects\quectel\development\customer\threadx\tools\LLVM\4.0.3\armv7m-none-eabi\libc\lib/libc.a(log1p.o)	#SHT_PROGBITS,SHF_ALLOC|SHF_EXECINSTR,4
	0x430b410c		$t
	0x430b410d		log1p
	0x430b4380		$d
.text.log1pf	0x430b43fc	0x1c0	C:\Users\nikol\projects\quectel\development\customer\threadx\tools\LLVM\4.0.3\armv7m-none-eabi\libc\lib/libc.a(log1pf.o)	#SHT_PROGBITS,SHF_ALLOC|SHF_EXECINSTR,4
	0x430b43fc		$t
	0x430b43fd		log1pf
	0x430b4588		$d
.text.logf	0x430b45bc	0x14c	C:\Users\nikol\projects\quectel\development\customer\threadx\tools\LLVM\4.0.3\armv7m-none-eabi\libc\lib/libc.a(logf.o)	#SHT_PROGBITS,SHF_ALLOC|SHF_EXECINSTR,4
	0x430b45bc		$t
	0x430b45bd		logf
	0x430b46e0		$d
.text.nearbyint	0x430b4708	0x4	C:\Users\nikol\projects\quectel\development\customer\threadx\tools\LLVM\4.0.3\armv7m-none-eabi\libc\lib/libc.a(nearbyint.o)	#SHT_PROGBITS,SHF_ALLOC|SHF_EXECINSTR,2
	0x430b4708		$t
	0x430b4709		nearbyint
.text.pow	0x430b470c	0xaa0	C:\Users\nikol\projects\quectel\development\customer\threadx\tools\LLVM\4.0.3\armv7m-none-eabi\libc\lib/libc.a(pow.o)	#SHT_PROGBITS,SHF_ALLOC|SHF_EXECINSTR,4
	0x430b470c		$t
	0x430b470d		pow
	0x430b509c		$d
.text.powf	0x430b51ac	0x718	C:\Users\nikol\projects\quectel\development\customer\threadx\tools\LLVM\4.0.3\armv7m-none-eabi\libc\lib/libc.a(powf.o)	#SHT_PROGBITS,SHF_ALLOC|SHF_EXECINSTR,4
	0x430b51ac		$t
	0x430b51ad		powf
	0x430b5828		$d
.text.rint	0x430b58c4	0x84	C:\Users\nikol\projects\quectel\development\customer\threadx\tools\LLVM\4.0.3\armv7m-none-eabi\libc\lib/libc.a(rint.o)	#SHT_PROGBITS,SHF_ALLOC|SHF_EXECINSTR,4
	0x430b58c4		$t
	0x430b58c5		rint
	0x430b5938		$d
.text.rintf	0x430b5948	0x54	C:\Users\nikol\projects\quectel\development\customer\threadx\tools\LLVM\4.0.3\armv7m-none-eabi\libc\lib/libc.a(rintf.o)	#SHT_PROGBITS,SHF_ALLOC|SHF_EXECINSTR,2
	0x430b5948		$t
	0x430b5949		rintf
.text.scalbn	0x430b599c	0x94	C:\Users\nikol\projects\quectel\development\customer\threadx\tools\LLVM\4.0.3\armv7m-none-eabi\libc\lib/libc.a(scalbn.o)	#SHT_PROGBITS,SHF_ALLOC|SHF_EXECINSTR,4
	0x430b599c		$t
	0x430b599d		scalbn
	0x430b5a1c		$d
.text.scalbnf	0x430b5a30	0x70	C:\Users\nikol\projects\quectel\development\customer\threadx\tools\LLVM\4.0.3\armv7m-none-eabi\libc\lib/libc.a(scalbnf.o)	#SHT_PROGBITS,SHF_ALLOC|SHF_EXECINSTR,4
	0x430b5a30		$t
	0x430b5a31		scalbnf
	0x430b5a9c		$d
.text.sin	0x430b5aa0	0xdc	C:\Users\nikol\projects\quectel\development\customer\threadx\tools\LLVM\4.0.3\armv7m-none-eabi\libc\lib/libc.a(sin.o)	#SHT_PROGBITS,SHF_ALLOC|SHF_EXECINSTR,4
	0x430b5aa0		$t
	0x430b5aa1		sin
	0x430b5b68		$d
.text.sinf	0x430b5b7c	0x160	C:\Users\nikol\projects\quectel\development\customer\threadx\tools\LLVM\4.0.3\armv7m-none-eabi\libc\lib/libc.a(sinf.o)	#SHT_PROGBITS,SHF_ALLOC|SHF_EXECINSTR,4
	0x430b5b7c		$t
	0x430b5b7d		sinf
	0x430b5ca8		$d
.text.sinh	0x430b5cdc	0xe8	C:\Users\nikol\projects\quectel\development\customer\threadx\tools\LLVM\4.0.3\armv7m-none-eabi\libc\lib/libc.a(sinh.o)	#SHT_PROGBITS,SHF_ALLOC|SHF_EXECINSTR,4
	0x430b5cdc		$t
	0x430b5cdd		sinh
	0x430b5db0		$d
.text.sinhf	0x430b5dc4	0xa0	C:\Users\nikol\projects\quectel\development\customer\threadx\tools\LLVM\4.0.3\armv7m-none-eabi\libc\lib/libc.a(sinhf.o)	#SHT_PROGBITS,SHF_ALLOC|SHF_EXECINSTR,4
	0x430b5dc4		$t
	0x430b5dc5		sinhf
	0x430b5e60		$d
.text.tan	0x430b5e64	0xa0	C:\Users\nikol\projects\quectel\development\customer\threadx\tools\LLVM\4.0.3\armv7m-none-eabi\libc\lib/libc.a(tan.o)	#SHT_PROGBITS,SHF_ALLOC|SHF_EXECINSTR,4
	0x430b5e64		$t
	0x430b5e65		tan
	0x430b5ef4		$d
.text.tanf	0x430b5f04	0x118	C:\Users\nikol\projects\quectel\development\customer\threadx\tools\LLVM\4.0.3\armv7m-none-eabi\libc\lib/libc.a(tanf.o)	#SHT_PROGBITS,SHF_ALLOC|SHF_EXECINSTR,4
	0x430b5f04		$t
	0x430b5f05		tanf
	0x430b5ff0		$d
.text.tanh	0x430b601c	0x118	C:\Users\nikol\projects\quectel\development\customer\threadx\tools\LLVM\4.0.3\armv7m-none-eabi\libc\lib/libc.a(tanh.o)	#SHT_PROGBITS,SHF_ALLOC|SHF_EXECINSTR,4
	0x430b601c		$t
	0x430b601d		tanh
	0x430b6124		$d
.text.tanhf	0x430b6134	0xd8	C:\Users\nikol\projects\quectel\development\customer\threadx\tools\LLVM\4.0.3\armv7m-none-eabi\libc\lib/libc.a(tanhf.o)	#SHT_PROGBITS,SHF_ALLOC|SHF_EXECINSTR,4
	0x430b6134		$t
	0x430b6135		tanhf
	0x430b6200		$d
.text.srand	0x430b620c	0x10	C:\Users\nikol\projects\quectel\development\customer\threadx\tools\LLVM\4.0.3\armv7m-none-eabi\libc\lib/libc.a(rand.o)	#SHT_PROGBITS,SHF_ALLOC|SHF_EXECINSTR,4
	0x430b620c		$t
	0x430b620d		srand
	0x430b6218		$d
.text.rand	0x430b621c	0x34	C:\Users\nikol\projects\quectel\development\customer\threadx\tools\LLVM\4.0.3\armv7m-none-eabi\libc\lib/libc.a(rand.o)	#SHT_PROGBITS,SHF_ALLOC|SHF_EXECINSTR,4
	0x430b621c		$t
	0x430b621d		rand
	0x430b6244		$d
.text.fopen	0x430b6250	0x60	C:\Users\nikol\projects\quectel\development\customer\threadx\tools\LLVM\4.0.3\armv7m-none-eabi\libc\lib/libc.a(fopen.o)	#SHT_PROGBITS,SHF_ALLOC|SHF_EXECINSTR,4
	0x430b6250		$t
	0x430b6251		fopen
	0x430b6251		fopen64
	0x430b62ac		$d
.text.vfprintf	0x430b62b0	0xd6	C:\Users\nikol\projects\quectel\development\customer\threadx\tools\LLVM\4.0.3\armv7m-none-eabi\libc\lib/libc.a(vfprintf.o)	#SHT_PROGBITS,SHF_ALLOC|SHF_EXECINSTR,2
	0x430b62b0		$t
	0x430b62b1		vfprintf
PADDING_ALIGNMENT	0x430b6386	0x2	0x0
.text.printf_core	0x430b6388	0x6a8	C:\Users\nikol\projects\quectel\development\customer\threadx\tools\LLVM\4.0.3\armv7m-none-eabi\libc\lib/libc.a(vfprintf.o)	#SHT_PROGBITS,SHF_ALLOC|SHF_EXECINSTR,4
	0x430b6388		$t
	0x430b6389		printf_core
	0x430b6638		$d
	0x430b6640		$t
	0x430b68a8		$d
	0x430b68ce		$t
	0x430b6a0c		$d
.text.vsnprintf	0x430b6a30	0x1a4	C:\Users\nikol\projects\quectel\development\customer\threadx\tools\LLVM\4.0.3\armv7m-none-eabi\libc\lib/libc.a(vfprintf.o)	#SHT_PROGBITS,SHF_ALLOC|SHF_EXECINSTR,4
	0x430b6a30		$t
	0x430b6a31		vsnprintf
	0x430b6bd0		$d
.text.fmt_u32	0x430b6bd4	0x22	C:\Users\nikol\projects\quectel\development\customer\threadx\tools\LLVM\4.0.3\armv7m-none-eabi\libc\lib/libc.a(vfprintf.o)	#SHT_PROGBITS,SHF_ALLOC|SHF_EXECINSTR,2
	0x430b6bd4		$t
	0x430b6bd5		fmt_u32
.text.out	0x430b6bf6	0x14	C:\Users\nikol\projects\quectel\development\customer\threadx\tools\LLVM\4.0.3\armv7m-none-eabi\libc\lib/libc.a(vfprintf.o)	#SHT_PROGBITS,SHF_ALLOC|SHF_EXECINSTR,2
	0x430b6bf6		$t
	0x430b6bf7		out
.text.getint	0x430b6c0a	0x1e	C:\Users\nikol\projects\quectel\development\customer\threadx\tools\LLVM\4.0.3\armv7m-none-eabi\libc\lib/libc.a(vfprintf.o)	#SHT_PROGBITS,SHF_ALLOC|SHF_EXECINSTR,2
	0x430b6c0a		$t
	0x430b6c0b		getint
.text.pop_arg	0x430b6c28	0x80	C:\Users\nikol\projects\quectel\development\customer\threadx\tools\LLVM\4.0.3\armv7m-none-eabi\libc\lib/libc.a(vfprintf.o)	#SHT_PROGBITS,SHF_ALLOC|SHF_EXECINSTR,4
	0x430b6c28		$t
	0x430b6c29		pop_arg
	0x430b6c36		$d
	0x430b6c40		$t
.text.pad	0x430b6ca8	0x4e	C:\Users\nikol\projects\quectel\development\customer\threadx\tools\LLVM\4.0.3\armv7m-none-eabi\libc\lib/libc.a(vfprintf.o)	#SHT_PROGBITS,SHF_ALLOC|SHF_EXECINSTR,2
	0x430b6ca8		$t
	0x430b6ca9		pad
.text.dummy	0x430b6cf6	0x2	C:\Users\nikol\projects\quectel\development\customer\threadx\tools\LLVM\4.0.3\armv7m-none-eabi\libc\lib/libc.a(fclose.o)	#SHT_PROGBITS,SHF_ALLOC|SHF_EXECINSTR,2
	0x430b6cf6		$t
	0x430b6cf7		dummy
	0x430b6cf7		__unlist_locked_file
.text.fclose	0x430b6cf8	0x72	C:\Users\nikol\projects\quectel\development\customer\threadx\tools\LLVM\4.0.3\armv7m-none-eabi\libc\lib/libc.a(fclose.o)	#SHT_PROGBITS,SHF_ALLOC|SHF_EXECINSTR,2
	0x430b6cf8		$t
	0x430b6cf9		fclose
PADDING_ALIGNMENT	0x430b6d6a	0x2	0x0
.text.fflush	0x430b6d6c	0x88	C:\Users\nikol\projects\quectel\development\customer\threadx\tools\LLVM\4.0.3\armv7m-none-eabi\libc\lib/libc.a(fflush.o)	#SHT_PROGBITS,SHF_ALLOC|SHF_EXECINSTR,4
	0x430b6d6c		$t
	0x430b6d6d		fflush
	0x430b6df0		$d
.text.__fflush_unlocked	0x430b6df4	0x46	C:\Users\nikol\projects\quectel\development\customer\threadx\tools\LLVM\4.0.3\armv7m-none-eabi\libc\lib/libc.a(fflush.o)	#SHT_PROGBITS,SHF_ALLOC|SHF_EXECINSTR,2
	0x430b6df4		$t
	0x430b6df5		__fflush_unlocked
	0x430b6df5		fflush_unlocked
.text.fprintf	0x430b6e3a	0x18	C:\Users\nikol\projects\quectel\development\customer\threadx\tools\LLVM\4.0.3\armv7m-none-eabi\libc\lib/libc.a(fprintf.o)	#SHT_PROGBITS,SHF_ALLOC|SHF_EXECINSTR,2
	0x430b6e3a		$t
	0x430b6e3b		fprintf
.text.fread	0x430b6e52	0xa4	C:\Users\nikol\projects\quectel\development\customer\threadx\tools\LLVM\4.0.3\armv7m-none-eabi\libc\lib/libc.a(fread.o)	#SHT_PROGBITS,SHF_ALLOC|SHF_EXECINSTR,2
	0x430b6e52		$t
	0x430b6e53		fread
	0x430b6e53		fread_unlocked
.text.__fseeko_unlocked	0x430b6ef6	0x64	C:\Users\nikol\projects\quectel\development\customer\threadx\tools\LLVM\4.0.3\armv7m-none-eabi\libc\lib/libc.a(fseek.o)	#SHT_PROGBITS,SHF_ALLOC|SHF_EXECINSTR,2
	0x430b6ef6		$t
	0x430b6ef7		__fseeko_unlocked
.text.__fseeko	0x430b6f5a	0x4a	C:\Users\nikol\projects\quectel\development\customer\threadx\tools\LLVM\4.0.3\armv7m-none-eabi\libc\lib/libc.a(fseek.o)	#SHT_PROGBITS,SHF_ALLOC|SHF_EXECINSTR,2
	0x430b6f5a		$t
	0x430b6f5b		__fseeko
	0x430b6f5b		fseeko
	0x430b6f5b		fseeko64
.text.fseek	0x430b6fa4	0x10	C:\Users\nikol\projects\quectel\development\customer\threadx\tools\LLVM\4.0.3\armv7m-none-eabi\libc\lib/libc.a(fseek.o)	#SHT_PROGBITS,SHF_ALLOC|SHF_EXECINSTR,2
	0x430b6fa4		$t
	0x430b6fa5		fseek
.text.__ftello_unlocked	0x430b6fb4	0x44	C:\Users\nikol\projects\quectel\development\customer\threadx\tools\LLVM\4.0.3\armv7m-none-eabi\libc\lib/libc.a(ftell.o)	#SHT_PROGBITS,SHF_ALLOC|SHF_EXECINSTR,2
	0x430b6fb4		$t
	0x430b6fb5		__ftello_unlocked
.text.__ftello	0x430b6ff8	0x38	C:\Users\nikol\projects\quectel\development\customer\threadx\tools\LLVM\4.0.3\armv7m-none-eabi\libc\lib/libc.a(ftell.o)	#SHT_PROGBITS,SHF_ALLOC|SHF_EXECINSTR,2
	0x430b6ff8		$t
	0x430b6ff9		__ftello
	0x430b6ff9		ftello
	0x430b6ff9		ftello64
.text.ftell	0x430b7030	0x1e	C:\Users\nikol\projects\quectel\development\customer\threadx\tools\LLVM\4.0.3\armv7m-none-eabi\libc\lib/libc.a(ftell.o)	#SHT_PROGBITS,SHF_ALLOC|SHF_EXECINSTR,2
	0x430b7030		$t
	0x430b7031		ftell
.text.__fwritex	0x430b704e	0x76	C:\Users\nikol\projects\quectel\development\customer\threadx\tools\LLVM\4.0.3\armv7m-none-eabi\libc\lib/libc.a(fwrite.o)	#SHT_PROGBITS,SHF_ALLOC|SHF_EXECINSTR,2
	0x430b704e		$t
	0x430b704f		__fwritex
.text.fwrite	0x430b70c4	0x58	C:\Users\nikol\projects\quectel\development\customer\threadx\tools\LLVM\4.0.3\armv7m-none-eabi\libc\lib/libc.a(fwrite.o)	#SHT_PROGBITS,SHF_ALLOC|SHF_EXECINSTR,2
	0x430b70c4		$t
	0x430b70c5		fwrite
	0x430b70c5		fwrite_unlocked
.text.sprintf	0x430b711c	0x18	C:\Users\nikol\projects\quectel\development\customer\threadx\tools\LLVM\4.0.3\armv7m-none-eabi\libc\lib/libc.a(sprintf.o)	#SHT_PROGBITS,SHF_ALLOC|SHF_EXECINSTR,2
	0x430b711c		$t
	0x430b711d		sprintf
.text.vsnprintf_full	0x430b7134	0x74	C:\Users\nikol\projects\quectel\development\customer\threadx\tools\LLVM\4.0.3\armv7m-none-eabi\libc\lib/libc.a(vsnprintf.o)	#SHT_PROGBITS,SHF_ALLOC|SHF_EXECINSTR,4
	0x430b7134		$t
	0x430b7135		vsnprintf_full
	0x430b71a0		$d
.text.sn_write	0x430b71a8	0x22	C:\Users\nikol\projects\quectel\development\customer\threadx\tools\LLVM\4.0.3\armv7m-none-eabi\libc\lib/libc.a(vsnprintf.o)	#SHT_PROGBITS,SHF_ALLOC|SHF_EXECINSTR,2
	0x430b71a8		$t
	0x430b71a9		sn_write
PADDING_ALIGNMENT	0x430b71ca	0x2	0x0
.text.vsprintf	0x430b71cc	0x10	C:\Users\nikol\projects\quectel\development\customer\threadx\tools\LLVM\4.0.3\armv7m-none-eabi\libc\lib/libc.a(vsprintf.o)	#SHT_PROGBITS,SHF_ALLOC|SHF_EXECINSTR,4
	0x430b71cc		$t
	0x430b71cd		vsprintf
	0x430b71d8		$d
.text.strtof	0x430b71dc	0xe	C:\Users\nikol\projects\quectel\development\customer\threadx\tools\LLVM\4.0.3\armv7m-none-eabi\libc\lib/libc.a(strtod.o)	#SHT_PROGBITS,SHF_ALLOC|SHF_EXECINSTR,2
	0x430b71dc		$t
	0x430b71dd		strtof
	0x430b71dd		strtof_l
	0x430b71dd		__strtof_l
.text.strtox	0x430b71ea	0x52	C:\Users\nikol\projects\quectel\development\customer\threadx\tools\LLVM\4.0.3\armv7m-none-eabi\libc\lib/libc.a(strtod.o)	#SHT_PROGBITS,SHF_ALLOC|SHF_EXECINSTR,2
	0x430b71ea		$t
	0x430b71eb		strtox
.text.strtod	0x430b723c	0x6	C:\Users\nikol\projects\quectel\development\customer\threadx\tools\LLVM\4.0.3\armv7m-none-eabi\libc\lib/libc.a(strtod.o)	#SHT_PROGBITS,SHF_ALLOC|SHF_EXECINSTR,2
	0x430b723c		$t
	0x430b723d		strtod
	0x430b723d		strtod_l
	0x430b723d		__strtod_l
.text.strtold	0x430b7242	0x6	C:\Users\nikol\projects\quectel\development\customer\threadx\tools\LLVM\4.0.3\armv7m-none-eabi\libc\lib/libc.a(strtod.o)	#SHT_PROGBITS,SHF_ALLOC|SHF_EXECINSTR,2
	0x430b7242		$t
	0x430b7243		strtold
	0x430b7243		strtold_l
	0x430b7243		__strtold_l
.text.strtoull	0x430b7248	0x12	C:\Users\nikol\projects\quectel\development\customer\threadx\tools\LLVM\4.0.3\armv7m-none-eabi\libc\lib/libc.a(strtol.o)	#SHT_PROGBITS,SHF_ALLOC|SHF_EXECINSTR,2
	0x430b7248		$t
	0x430b7249		strtoull
	0x430b7249		__strtoull_internal
PADDING_ALIGNMENT	0x430b725a	0x2	0x0
.text.strtox	0x430b725c	0x5c	C:\Users\nikol\projects\quectel\development\customer\threadx\tools\LLVM\4.0.3\armv7m-none-eabi\libc\lib/libc.a(strtol.o)	#SHT_PROGBITS,SHF_ALLOC|SHF_EXECINSTR,4
	0x430b725c		$t
	0x430b725d		strtox
	0x430b72b4		$d
.text.strtoll	0x430b72b8	0x14	C:\Users\nikol\projects\quectel\development\customer\threadx\tools\LLVM\4.0.3\armv7m-none-eabi\libc\lib/libc.a(strtol.o)	#SHT_PROGBITS,SHF_ALLOC|SHF_EXECINSTR,2
	0x430b72b8		$t
	0x430b72b9		strtoll
	0x430b72b9		__strtoll_internal
.text.strtoul	0x430b72cc	0x14	C:\Users\nikol\projects\quectel\development\customer\threadx\tools\LLVM\4.0.3\armv7m-none-eabi\libc\lib/libc.a(strtol.o)	#SHT_PROGBITS,SHF_ALLOC|SHF_EXECINSTR,2
	0x430b72cc		$t
	0x430b72cd		strtoul
	0x430b72cd		__strtoul_internal
.text.strtol	0x430b72e0	0x14	C:\Users\nikol\projects\quectel\development\customer\threadx\tools\LLVM\4.0.3\armv7m-none-eabi\libc\lib/libc.a(strtol.o)	#SHT_PROGBITS,SHF_ALLOC|SHF_EXECINSTR,2
	0x430b72e0		$t
	0x430b72e1		strtol
	0x430b72e1		__strtol_internal
.text.strtoimax	0x430b72f4	0x4	C:\Users\nikol\projects\quectel\development\customer\threadx\tools\LLVM\4.0.3\armv7m-none-eabi\libc\lib/libc.a(strtol.o)	#SHT_PROGBITS,SHF_ALLOC|SHF_EXECINSTR,2
	0x430b72f4		$t
	0x430b72f5		strtoimax
	0x430b72f5		__strtoimax_internal
.text.strtoumax	0x430b72f8	0x4	C:\Users\nikol\projects\quectel\development\customer\threadx\tools\LLVM\4.0.3\armv7m-none-eabi\libc\lib/libc.a(strtol.o)	#SHT_PROGBITS,SHF_ALLOC|SHF_EXECINSTR,2
	0x430b72f8		$t
	0x430b72f9		strtoumax
	0x430b72f9		__strtoumax_internal
.text.__aeabi_memclr	0x430b72fc	0x8	C:\Users\nikol\projects\quectel\development\customer\threadx\tools\LLVM\4.0.3\armv7m-none-eabi\libc\lib/libc.a(__aeabi_memclr.o)	#SHT_PROGBITS,SHF_ALLOC|SHF_EXECINSTR,2
	0x430b72fc		$t
	0x430b72fd		__aeabi_memclr
	0x430b72fd		__aeabi_memclr4
	0x430b72fd		__aeabi_memclr8
.text.__aeabi_memcpy	0x430b7304	0x4	C:\Users\nikol\projects\quectel\development\customer\threadx\tools\LLVM\4.0.3\armv7m-none-eabi\libc\lib/libc.a(__aeabi_memcpy.o)	#SHT_PROGBITS,SHF_ALLOC|SHF_EXECINSTR,2
	0x430b7304		$t
	0x430b7305		__aeabi_memcpy
	0x430b7305		__aeabi_memcpy4
	0x430b7305		__aeabi_memcpy8
.text	0x430b7308	0x2ee	C:\Users\nikol\projects\quectel\development\customer\threadx\tools\LLVM\4.0.3\armv7m-none-eabi\libc\lib/libc.a(memcpy_le.o)	#SHT_PROGBITS,SHF_ALLOC|SHF_EXECINSTR,2
	0x430b7308		$t
	0x430b7309		memcpy
	0x430b7348		src_aligned
	0x430b7396		congruent_aligned32
	0x430b7396		cached_aligned32
	0x430b73ac		less_than_32_left
	0x430b73fa		non_congruent
	0x430b7476		loop16
	0x430b74d2		loop8
	0x430b752e		loop24
	0x430b7586		less_than_thirtytwo
	0x430b75b0		partial_word_tail
	0x430b75cc		copy_last_3_and_return
PADDING_ALIGNMENT	0x430b75f6	0x2	0x0
.text	0x430b75f8	0x68	C:\Users\nikol\projects\quectel\development\customer\threadx\tools\LLVM\4.0.3\armv7m-none-eabi\libc\lib/libc.a(memset_nofp_armv7.o)	#SHT_PROGBITS,SHF_ALLOC|SHF_EXECINSTR,4
	0x430b75f8		$t
	0x430b75f9		memset
.text.memchr	0x430b7660	0x5c	C:\Users\nikol\projects\quectel\development\customer\threadx\tools\LLVM\4.0.3\armv7m-none-eabi\libc\lib/libc.a(memchr.o)	#SHT_PROGBITS,SHF_ALLOC|SHF_EXECINSTR,2
	0x430b7660		$t
	0x430b7661		memchr
.text.memcmp	0x430b76bc	0x1c	C:\Users\nikol\projects\quectel\development\customer\threadx\tools\LLVM\4.0.3\armv7m-none-eabi\libc\lib/libc.a(memcmp.o)	#SHT_PROGBITS,SHF_ALLOC|SHF_EXECINSTR,2
	0x430b76bc		$t
	0x430b76bd		memcmp
.text.memmove	0x430b76d8	0x82	C:\Users\nikol\projects\quectel\development\customer\threadx\tools\LLVM\4.0.3\armv7m-none-eabi\libc\lib/libc.a(memmove.o)	#SHT_PROGBITS,SHF_ALLOC|SHF_EXECINSTR,2
	0x430b76d8		$t
	0x430b76d9		memmove
.text.strchr	0x430b775a	0x14	C:\Users\nikol\projects\quectel\development\customer\threadx\tools\LLVM\4.0.3\armv7m-none-eabi\libc\lib/libc.a(strchr.o)	#SHT_PROGBITS,SHF_ALLOC|SHF_EXECINSTR,2
	0x430b775a		$t
	0x430b775b		strchr
.text.__strchrnul	0x430b776e	0x5c	C:\Users\nikol\projects\quectel\development\customer\threadx\tools\LLVM\4.0.3\armv7m-none-eabi\libc\lib/libc.a(strchrnul.o)	#SHT_PROGBITS,SHF_ALLOC|SHF_EXECINSTR,2
	0x430b776e		$t
	0x430b776f		__strchrnul
	0x430b776f		strchrnul
.text.strcmp	0x430b77ca	0x14	C:\Users\nikol\projects\quectel\development\customer\threadx\tools\LLVM\4.0.3\armv7m-none-eabi\libc\lib/libc.a(strcmp.o)	#SHT_PROGBITS,SHF_ALLOC|SHF_EXECINSTR,2
	0x430b77ca		$t
	0x430b77cb		strcmp
.text.__strdup	0x430b77de	0x22	C:\Users\nikol\projects\quectel\development\customer\threadx\tools\LLVM\4.0.3\armv7m-none-eabi\libc\lib/libc.a(strdup.o)	#SHT_PROGBITS,SHF_ALLOC|SHF_EXECINSTR,2
	0x430b77de		$t
	0x430b77df		__strdup
	0x430b77df		strdup
.text.strlen	0x430b7800	0x34	C:\Users\nikol\projects\quectel\development\customer\threadx\tools\LLVM\4.0.3\armv7m-none-eabi\libc\lib/libc.a(strlen.o)	#SHT_PROGBITS,SHF_ALLOC|SHF_EXECINSTR,2
	0x430b7800		$t
	0x430b7801		strlen
.text.strncpy	0x430b7834	0xc	C:\Users\nikol\projects\quectel\development\customer\threadx\tools\LLVM\4.0.3\armv7m-none-eabi\libc\lib/libc.a(strncpy.o)	#SHT_PROGBITS,SHF_ALLOC|SHF_EXECINSTR,2
	0x430b7834		$t
	0x430b7835		strncpy
.text.__strerror_l	0x430b7840	0x3c	C:\Users\nikol\projects\quectel\development\customer\threadx\tools\LLVM\4.0.3\armv7m-none-eabi\libc\lib/libc.a(strerror.o)	#SHT_PROGBITS,SHF_ALLOC|SHF_EXECINSTR,4
	0x430b7840		$t
	0x430b7841		__strerror_l
	0x430b7841		strerror_l
	0x430b7874		$d
.text.strerror	0x430b787c	0xc	C:\Users\nikol\projects\quectel\development\customer\threadx\tools\LLVM\4.0.3\armv7m-none-eabi\libc\lib/libc.a(strerror.o)	#SHT_PROGBITS,SHF_ALLOC|SHF_EXECINSTR,2
	0x430b787c		$t
	0x430b787d		strerror
.text.__floatscan	0x430b7888	0xe68	C:\Users\nikol\projects\quectel\development\customer\threadx\tools\LLVM\4.0.3\armv7m-none-eabi\libc\lib/libc.a(floatscan.o)	#SHT_PROGBITS,SHF_ALLOC|SHF_EXECINSTR,4
	0x430b7888		$t
	0x430b7889		__floatscan
	0x430b8630		$d
	0x430b8634		$t
	0x430b86ac		$d
.text.scanexp	0x430b86f0	0x130	C:\Users\nikol\projects\quectel\development\customer\threadx\tools\LLVM\4.0.3\armv7m-none-eabi\libc\lib/libc.a(floatscan.o)	#SHT_PROGBITS,SHF_ALLOC|SHF_EXECINSTR,4
	0x430b86f0		$t
	0x430b86f1		scanexp
	0x430b8814		$d
.text.__intscan	0x430b8820	0x418	C:\Users\nikol\projects\quectel\development\customer\threadx\tools\LLVM\4.0.3\armv7m-none-eabi\libc\lib/libc.a(intscan.o)	#SHT_PROGBITS,SHF_ALLOC|SHF_EXECINSTR,4
	0x430b8820		$t
	0x430b8821		__intscan
	0x430b8c24		$d
.text.__shlim	0x430b8c38	0x2a	C:\Users\nikol\projects\quectel\development\customer\threadx\tools\LLVM\4.0.3\armv7m-none-eabi\libc\lib/libc.a(shgetc.o)	#SHT_PROGBITS,SHF_ALLOC|SHF_EXECINSTR,2
	0x430b8c38		$t
	0x430b8c39		__shlim
.text.__shgetc	0x430b8c62	0x8c	C:\Users\nikol\projects\quectel\development\customer\threadx\tools\LLVM\4.0.3\armv7m-none-eabi\libc\lib/libc.a(shgetc.o)	#SHT_PROGBITS,SHF_ALLOC|SHF_EXECINSTR,2
	0x430b8c62		$t
	0x430b8c63		__shgetc
.text.dummy	0x430b8cee	0x2	C:\Users\nikol\projects\quectel\development\customer\threadx\tools\LLVM\4.0.3\armv7m-none-eabi\libc\lib/libc.a(__lctrans.o)	#SHT_PROGBITS,SHF_ALLOC|SHF_EXECINSTR,2
	0x430b8cee		$t
	0x430b8cef		dummy
	0x430b8cef		__lctrans_impl
.text.__lctrans	0x430b8cf0	0x4	C:\Users\nikol\projects\quectel\development\customer\threadx\tools\LLVM\4.0.3\armv7m-none-eabi\libc\lib/libc.a(__lctrans.o)	#SHT_PROGBITS,SHF_ALLOC|SHF_EXECINSTR,2
	0x430b8cf0		$t
	0x430b8cf1		__lctrans
.text.__lctrans_cur	0x430b8cf4	0xe	C:\Users\nikol\projects\quectel\development\customer\threadx\tools\LLVM\4.0.3\armv7m-none-eabi\libc\lib/libc.a(__lctrans.o)	#SHT_PROGBITS,SHF_ALLOC|SHF_EXECINSTR,2
	0x430b8cf4		$t
	0x430b8cf5		__lctrans_cur
PADDING_ALIGNMENT	0x430b8d02	0x2	0x0
.text.__cos	0x430b8d04	0x164	C:\Users\nikol\projects\quectel\development\customer\threadx\tools\LLVM\4.0.3\armv7m-none-eabi\libc\lib/libc.a(__cos.o)	#SHT_PROGBITS,SHF_ALLOC|SHF_EXECINSTR,4
	0x430b8d04		$t
	0x430b8d05		__cos
	0x430b8e30		$d
.text.__cosdf	0x430b8e68	0xb8	C:\Users\nikol\projects\quectel\development\customer\threadx\tools\LLVM\4.0.3\armv7m-none-eabi\libc\lib/libc.a(__cosdf.o)	#SHT_PROGBITS,SHF_ALLOC|SHF_EXECINSTR,4
	0x430b8e68		$t
	0x430b8e69		__cosdf
	0x430b8efc		$d
.text.__expo2	0x430b8f20	0x30	C:\Users\nikol\projects\quectel\development\customer\threadx\tools\LLVM\4.0.3\armv7m-none-eabi\libc\lib/libc.a(__expo2.o)	#SHT_PROGBITS,SHF_ALLOC|SHF_EXECINSTR,4
	0x430b8f20		$t
	0x430b8f21		__expo2
	0x430b8f44		$d
.text.__expo2f	0x430b8f50	0x24	C:\Users\nikol\projects\quectel\development\customer\threadx\tools\LLVM\4.0.3\armv7m-none-eabi\libc\lib/libc.a(__expo2f.o)	#SHT_PROGBITS,SHF_ALLOC|SHF_EXECINSTR,4
	0x430b8f50		$t
	0x430b8f51		__expo2f
	0x430b8f70		$d
.text.__rem_pio2	0x430b8f74	0x600	C:\Users\nikol\projects\quectel\development\customer\threadx\tools\LLVM\4.0.3\armv7m-none-eabi\libc\lib/libc.a(__rem_pio2.o)	#SHT_PROGBITS,SHF_ALLOC|SHF_EXECINSTR,4
	0x430b8f74		$t
	0x430b8f75		__rem_pio2
	0x430b94e0		$d
.text.__rem_pio2_large	0x430b9574	0x6b4	C:\Users\nikol\projects\quectel\development\customer\threadx\tools\LLVM\4.0.3\armv7m-none-eabi\libc\lib/libc.a(__rem_pio2_large.o)	#SHT_PROGBITS,SHF_ALLOC|SHF_EXECINSTR,4
	0x430b9574		$t
	0x430b9575		__rem_pio2_large
	0x430b9bf8		$d
.text.__rem_pio2f	0x430b9c28	0xf8	C:\Users\nikol\projects\quectel\development\customer\threadx\tools\LLVM\4.0.3\armv7m-none-eabi\libc\lib/libc.a(__rem_pio2f.o)	#SHT_PROGBITS,SHF_ALLOC|SHF_EXECINSTR,4
	0x430b9c28		$t
	0x430b9c29		__rem_pio2f
	0x430b9d00		$d
.text.__sin	0x430b9d20	0x174	C:\Users\nikol\projects\quectel\development\customer\threadx\tools\LLVM\4.0.3\armv7m-none-eabi\libc\lib/libc.a(__sin.o)	#SHT_PROGBITS,SHF_ALLOC|SHF_EXECINSTR,4
	0x430b9d20		$t
	0x430b9d21		__sin
	0x430b9e5c		$d
.text.__sindf	0x430b9e94	0xbc	C:\Users\nikol\projects\quectel\development\customer\threadx\tools\LLVM\4.0.3\armv7m-none-eabi\libc\lib/libc.a(__sindf.o)	#SHT_PROGBITS,SHF_ALLOC|SHF_EXECINSTR,4
	0x430b9e94		$t
	0x430b9e95		__sindf
	0x430b9f30		$d
.text.__tan	0x430b9f50	0x3ac	C:\Users\nikol\projects\quectel\development\customer\threadx\tools\LLVM\4.0.3\armv7m-none-eabi\libc\lib/libc.a(__tan.o)	#SHT_PROGBITS,SHF_ALLOC|SHF_EXECINSTR,4
	0x430b9f50		$t
	0x430b9f51		__tan
	0x430ba274		$d
.text.__tandf	0x430ba2fc	0x128	C:\Users\nikol\projects\quectel\development\customer\threadx\tools\LLVM\4.0.3\armv7m-none-eabi\libc\lib/libc.a(__tandf.o)	#SHT_PROGBITS,SHF_ALLOC|SHF_EXECINSTR,4
	0x430ba2fc		$t
	0x430ba2fd		__tandf
	0x430ba3f0		$d
.text.fabs	0x430ba424	0x6	C:\Users\nikol\projects\quectel\development\customer\threadx\tools\LLVM\4.0.3\armv7m-none-eabi\libc\lib/libc.a(fabs.o)	#SHT_PROGBITS,SHF_ALLOC|SHF_EXECINSTR,2
	0x430ba424		$t
	0x430ba425		fabs
.text.fabsf	0x430ba42a	0x6	C:\Users\nikol\projects\quectel\development\customer\threadx\tools\LLVM\4.0.3\armv7m-none-eabi\libc\lib/libc.a(fabsf.o)	#SHT_PROGBITS,SHF_ALLOC|SHF_EXECINSTR,2
	0x430ba42a		$t
	0x430ba42b		fabsf
.text.copysignl	0x430ba430	0x4	C:\Users\nikol\projects\quectel\development\customer\threadx\tools\LLVM\4.0.3\armv7m-none-eabi\libc\lib/libc.a(copysignl.o)	#SHT_PROGBITS,SHF_ALLOC|SHF_EXECINSTR,2
	0x430ba430		$t
	0x430ba431		copysignl
.text.fmodl	0x430ba434	0x4	C:\Users\nikol\projects\quectel\development\customer\threadx\tools\LLVM\4.0.3\armv7m-none-eabi\libc\lib/libc.a(fmodl.o)	#SHT_PROGBITS,SHF_ALLOC|SHF_EXECINSTR,2
	0x430ba434		$t
	0x430ba435		fmodl
.text.scalbnl	0x430ba438	0x4	C:\Users\nikol\projects\quectel\development\customer\threadx\tools\LLVM\4.0.3\armv7m-none-eabi\libc\lib/libc.a(scalbnl.o)	#SHT_PROGBITS,SHF_ALLOC|SHF_EXECINSTR,2
	0x430ba438		$t
	0x430ba439		scalbnl
.text.wctomb	0x430ba43c	0xc	C:\Users\nikol\projects\quectel\development\customer\threadx\tools\LLVM\4.0.3\armv7m-none-eabi\libc\lib/libc.a(wctomb.o)	#SHT_PROGBITS,SHF_ALLOC|SHF_EXECINSTR,2
	0x430ba43c		$t
	0x430ba43d		wctomb
.text.__toread	0x430ba448	0x50	C:\Users\nikol\projects\quectel\development\customer\threadx\tools\LLVM\4.0.3\armv7m-none-eabi\libc\lib/libc.a(__toread.o)	#SHT_PROGBITS,SHF_ALLOC|SHF_EXECINSTR,2
	0x430ba448		$t
	0x430ba449		__toread
.text.__toread_needs_stdio_exit	0x430ba498	0x4	C:\Users\nikol\projects\quectel\development\customer\threadx\tools\LLVM\4.0.3\armv7m-none-eabi\libc\lib/libc.a(__toread.o)	#SHT_PROGBITS,SHF_ALLOC|SHF_EXECINSTR,2
	0x430ba498		$t
	0x430ba499		__toread_needs_stdio_exit
.text.__towrite	0x430ba49c	0x38	C:\Users\nikol\projects\quectel\development\customer\threadx\tools\LLVM\4.0.3\armv7m-none-eabi\libc\lib/libc.a(__towrite.o)	#SHT_PROGBITS,SHF_ALLOC|SHF_EXECINSTR,2
	0x430ba49c		$t
	0x430ba49d		__towrite
.text.__towrite_needs_stdio_exit	0x430ba4d4	0x4	C:\Users\nikol\projects\quectel\development\customer\threadx\tools\LLVM\4.0.3\armv7m-none-eabi\libc\lib/libc.a(__towrite.o)	#SHT_PROGBITS,SHF_ALLOC|SHF_EXECINSTR,2
	0x430ba4d4		$t
	0x430ba4d5		__towrite_needs_stdio_exit
.text.__uflow	0x430ba4d8	0x2a	C:\Users\nikol\projects\quectel\development\customer\threadx\tools\LLVM\4.0.3\armv7m-none-eabi\libc\lib/libc.a(__uflow.o)	#SHT_PROGBITS,SHF_ALLOC|SHF_EXECINSTR,2
	0x430ba4d8		$t
	0x430ba4d9		__uflow
PADDING_ALIGNMENT	0x430ba502	0x2	0x0
.text.__fdopen	0x430ba504	0xb4	C:\Users\nikol\projects\quectel\development\customer\threadx\tools\LLVM\4.0.3\armv7m-none-eabi\libc\lib/libc.a(__fdopen.o)	#SHT_PROGBITS,SHF_ALLOC|SHF_EXECINSTR,4
	0x430ba504		$t
	0x430ba505		__fdopen
	0x430ba505		fdopen
	0x430ba5a0		$d
.text.__fmodeflags	0x430ba5b8	0x38	C:\Users\nikol\projects\quectel\development\customer\threadx\tools\LLVM\4.0.3\armv7m-none-eabi\libc\lib/libc.a(__fmodeflags.o)	#SHT_PROGBITS,SHF_ALLOC|SHF_EXECINSTR,2
	0x430ba5b8		$t
	0x430ba5b9		__fmodeflags
.text.__lockfile	0x430ba5f0	0x4	C:\Users\nikol\projects\quectel\development\customer\threadx\tools\LLVM\4.0.3\armv7m-none-eabi\libc\lib/libc.a(__lockfile.o)	#SHT_PROGBITS,SHF_ALLOC|SHF_EXECINSTR,2
	0x430ba5f0		$t
	0x430ba5f1		__lockfile
.text.__unlockfile	0x430ba5f4	0x2	C:\Users\nikol\projects\quectel\development\customer\threadx\tools\LLVM\4.0.3\armv7m-none-eabi\libc\lib/libc.a(__lockfile.o)	#SHT_PROGBITS,SHF_ALLOC|SHF_EXECINSTR,2
	0x430ba5f4		$t
	0x430ba5f5		__unlockfile
.text.dummy	0x430ba5f6	0x2	C:\Users\nikol\projects\quectel\development\customer\threadx\tools\LLVM\4.0.3\armv7m-none-eabi\libc\lib/libc.a(__stdio_close.o)	#SHT_PROGBITS,SHF_ALLOC|SHF_EXECINSTR,2
	0x430ba5f6		$t
	0x430ba5f7		dummy
	0x430ba5f7		__aio_close
.text.__stdio_close	0x430ba5f8	0x14	C:\Users\nikol\projects\quectel\development\customer\threadx\tools\LLVM\4.0.3\armv7m-none-eabi\libc\lib/libc.a(__stdio_close.o)	#SHT_PROGBITS,SHF_ALLOC|SHF_EXECINSTR,2
	0x430ba5f8		$t
	0x430ba5f9		__stdio_close
.text.__stdio_read	0x430ba60c	0xc0	C:\Users\nikol\projects\quectel\development\customer\threadx\tools\LLVM\4.0.3\armv7m-none-eabi\libc\lib/libc.a(__stdio_read.o)	#SHT_PROGBITS,SHF_ALLOC|SHF_EXECINSTR,2
	0x430ba60c		$t
	0x430ba60d		__stdio_read
.text.__stdio_seek	0x430ba6cc	0x72	C:\Users\nikol\projects\quectel\development\customer\threadx\tools\LLVM\4.0.3\armv7m-none-eabi\libc\lib/libc.a(__stdio_seek.o)	#SHT_PROGBITS,SHF_ALLOC|SHF_EXECINSTR,2
	0x430ba6cc		$t
	0x430ba6cd		__stdio_seek
.text.__stdio_write	0x430ba73e	0xfe	C:\Users\nikol\projects\quectel\development\customer\threadx\tools\LLVM\4.0.3\armv7m-none-eabi\libc\lib/libc.a(__stdio_write.o)	#SHT_PROGBITS,SHF_ALLOC|SHF_EXECINSTR,2
	0x430ba73e		$t
	0x430ba73f		__stdio_write
.text.__ofl_lock	0x430ba83c	0x8	C:\Users\nikol\projects\quectel\development\customer\threadx\tools\LLVM\4.0.3\armv7m-none-eabi\libc\lib/libc.a(ofl.o)	#SHT_PROGBITS,SHF_ALLOC|SHF_EXECINSTR,4
	0x430ba83c		$t
	0x430ba83d		__ofl_lock
	0x430ba840		$d
.text.__ofl_unlock	0x430ba844	0x2	C:\Users\nikol\projects\quectel\development\customer\threadx\tools\LLVM\4.0.3\armv7m-none-eabi\libc\lib/libc.a(ofl.o)	#SHT_PROGBITS,SHF_ALLOC|SHF_EXECINSTR,2
	0x430ba844		$t
	0x430ba845		__ofl_unlock
.text.__ofl_add	0x430ba846	0x1c	C:\Users\nikol\projects\quectel\development\customer\threadx\tools\LLVM\4.0.3\armv7m-none-eabi\libc\lib/libc.a(ofl_add.o)	#SHT_PROGBITS,SHF_ALLOC|SHF_EXECINSTR,2
	0x430ba846		$t
	0x430ba847		__ofl_add
.text.__stpncpy	0x430ba862	0x68	C:\Users\nikol\projects\quectel\development\customer\threadx\tools\LLVM\4.0.3\armv7m-none-eabi\libc\lib/libc.a(stpncpy.o)	#SHT_PROGBITS,SHF_ALLOC|SHF_EXECINSTR,2
	0x430ba862		$t
	0x430ba863		__stpncpy
	0x430ba863		stpncpy
.text.copysign	0x430ba8ca	0x8	C:\Users\nikol\projects\quectel\development\customer\threadx\tools\LLVM\4.0.3\armv7m-none-eabi\libc\lib/libc.a(copysign.o)	#SHT_PROGBITS,SHF_ALLOC|SHF_EXECINSTR,2
	0x430ba8ca		$t
	0x430ba8cb		copysign
.text.wcrtomb	0x430ba8d2	0xb0	C:\Users\nikol\projects\quectel\development\customer\threadx\tools\LLVM\4.0.3\armv7m-none-eabi\libc\lib/libc.a(wcrtomb.o)	#SHT_PROGBITS,SHF_ALLOC|SHF_EXECINSTR,2
	0x430ba8d2		$t
	0x430ba8d3		wcrtomb
PADDING_ALIGNMENT	0x430ba982	0x2	0x0
.text.__stdio_exit	0x430ba984	0x30	C:\Users\nikol\projects\quectel\development\customer\threadx\tools\LLVM\4.0.3\armv7m-none-eabi\libc\lib/libc.a(__stdio_exit.o)	#SHT_PROGBITS,SHF_ALLOC|SHF_EXECINSTR,4
	0x430ba984		$t
	0x430ba985		__stdio_exit
	0x430ba985		__stdio_exit_needed
	0x430ba9ac		$d
.text.close_file	0x430ba9b4	0x3c	C:\Users\nikol\projects\quectel\development\customer\threadx\tools\LLVM\4.0.3\armv7m-none-eabi\libc\lib/libc.a(__stdio_exit.o)	#SHT_PROGBITS,SHF_ALLOC|SHF_EXECINSTR,2
	0x430ba9b4		$t
	0x430ba9b5		close_file
.text	0x430ba9f0	0x62	C:\Users\nikol\projects\quectel\development\customer\threadx\tools\LLVM\4.0.3\lib\clang\4.0.3\lib\baremetal/libclang_rt.builtins-armv7m.a(aeabi_dcmp.S.obj)	#SHT_PROGBITS,SHF_ALLOC|SHF_EXECINSTR,4
	0x430ba9f0		$t.0
	0x430ba9f1		__aeabi_dcmpeq
	0x430baa05		__aeabi_dcmplt
	0x430baa19		__aeabi_dcmple
	0x430baa2d		__aeabi_dcmpge
	0x430baa41		__aeabi_dcmpgt
PADDING_ALIGNMENT	0x430baa52	0x2	0x0
.text	0x430baa54	0x62	C:\Users\nikol\projects\quectel\development\customer\threadx\tools\LLVM\4.0.3\lib\clang\4.0.3\lib\baremetal/libclang_rt.builtins-armv7m.a(aeabi_fcmp.S.obj)	#SHT_PROGBITS,SHF_ALLOC|SHF_EXECINSTR,4
	0x430baa54		$t.0
	0x430baa55		__aeabi_fcmpeq
	0x430baa69		__aeabi_fcmplt
	0x430baa7d		__aeabi_fcmple
	0x430baa91		__aeabi_fcmpge
	0x430baaa5		__aeabi_fcmpgt
PADDING_ALIGNMENT	0x430baab6	0x2	0x0
.text	0x430baab8	0x10	C:\Users\nikol\projects\quectel\development\customer\threadx\tools\LLVM\4.0.3\lib\clang\4.0.3\lib\baremetal/libclang_rt.builtins-armv7m.a(aeabi_idivmod.S.obj)	#SHT_PROGBITS,SHF_ALLOC|SHF_EXECINSTR,4
	0x430baab8		$t.0
	0x430baab9		__aeabi_idivmod
.text	0x430baac8	0x14	C:\Users\nikol\projects\quectel\development\customer\threadx\tools\LLVM\4.0.3\lib\clang\4.0.3\lib\baremetal/libclang_rt.builtins-armv7m.a(aeabi_ldivmod.S.obj)	#SHT_PROGBITS,SHF_ALLOC|SHF_EXECINSTR,4
	0x430baac8		$t.0
	0x430baac9		__aeabi_ldivmod
.text	0x430baadc	0x10	C:\Users\nikol\projects\quectel\development\customer\threadx\tools\LLVM\4.0.3\lib\clang\4.0.3\lib\baremetal/libclang_rt.builtins-armv7m.a(aeabi_uidivmod.S.obj)	#SHT_PROGBITS,SHF_ALLOC|SHF_EXECINSTR,4
	0x430baadc		$t.0
	0x430baadd		__aeabi_uidivmod
.text	0x430baaec	0x14	C:\Users\nikol\projects\quectel\development\customer\threadx\tools\LLVM\4.0.3\lib\clang\4.0.3\lib\baremetal/libclang_rt.builtins-armv7m.a(aeabi_uldivmod.S.obj)	#SHT_PROGBITS,SHF_ALLOC|SHF_EXECINSTR,4
	0x430baaec		$t.0
	0x430baaed		__aeabi_uldivmod
.text.__adddf3	0x430bab00	0x340	C:\Users\nikol\projects\quectel\development\customer\threadx\tools\LLVM\4.0.3\lib\clang\4.0.3\lib\baremetal/libclang_rt.builtins-armv7m.a(adddf3.c.obj)	#SHT_PROGBITS,SHF_ALLOC|SHF_EXECINSTR,4
	0x430bab00		$t.0
	0x430bab01		__adddf3
	0x430bab01		__aeabi_dadd
	0x430bae30		$d.1
.text.fromRep	0x430bae40	0x2	C:\Users\nikol\projects\quectel\development\customer\threadx\tools\LLVM\4.0.3\lib\clang\4.0.3\lib\baremetal/libclang_rt.builtins-armv7m.a(adddf3.c.obj)	#SHT_PROGBITS,SHF_ALLOC|SHF_EXECINSTR,2
	0x430bae40		$t.2
	0x430bae41		fromRep
.text.normalize	0x430bae42	0x44	C:\Users\nikol\projects\quectel\development\customer\threadx\tools\LLVM\4.0.3\lib\clang\4.0.3\lib\baremetal/libclang_rt.builtins-armv7m.a(adddf3.c.obj)	#SHT_PROGBITS,SHF_ALLOC|SHF_EXECINSTR,2
	0x430bae42		$t.3
	0x430bae43		normalize
.text.rep_clz	0x430bae86	0x10	C:\Users\nikol\projects\quectel\development\customer\threadx\tools\LLVM\4.0.3\lib\clang\4.0.3\lib\baremetal/libclang_rt.builtins-armv7m.a(adddf3.c.obj)	#SHT_PROGBITS,SHF_ALLOC|SHF_EXECINSTR,2
	0x430bae86		$t.4
	0x430bae87		rep_clz
.text.__addsf3	0x430bae98	0x180	C:\Users\nikol\projects\quectel\development\customer\threadx\tools\LLVM\4.0.3\lib\clang\4.0.3\lib\baremetal/libclang_rt.builtins-armv7m.a(addsf3.c.obj)	#SHT_PROGBITS,SHF_ALLOC|SHF_EXECINSTR,4
	0x430bae98		$t.0
	0x430bae99		__addsf3
	0x430bae99		__aeabi_fadd
	0x430bb00c		$d.1
.text.fromRep	0x430bb018	0x2	C:\Users\nikol\projects\quectel\development\customer\threadx\tools\LLVM\4.0.3\lib\clang\4.0.3\lib\baremetal/libclang_rt.builtins-armv7m.a(addsf3.c.obj)	#SHT_PROGBITS,SHF_ALLOC|SHF_EXECINSTR,2
	0x430bb018		$t.2
	0x430bb019		fromRep
.text.normalize	0x430bb01a	0x14	C:\Users\nikol\projects\quectel\development\customer\threadx\tools\LLVM\4.0.3\lib\clang\4.0.3\lib\baremetal/libclang_rt.builtins-armv7m.a(addsf3.c.obj)	#SHT_PROGBITS,SHF_ALLOC|SHF_EXECINSTR,2
	0x430bb01a		$t.3
	0x430bb01b		normalize
.text.__ledf2	0x430bb030	0x74	C:\Users\nikol\projects\quectel\development\customer\threadx\tools\LLVM\4.0.3\lib\clang\4.0.3\lib\baremetal/libclang_rt.builtins-armv7m.a(comparedf2.c.obj)	#SHT_PROGBITS,SHF_ALLOC|SHF_EXECINSTR,4
	0x430bb030		$t.0
	0x430bb031		__cmpdf2
	0x430bb031		__ledf2
	0x430bb0a0		$d.1
.text.__gedf2	0x430bb0a4	0x7c	C:\Users\nikol\projects\quectel\development\customer\threadx\tools\LLVM\4.0.3\lib\clang\4.0.3\lib\baremetal/libclang_rt.builtins-armv7m.a(comparedf2.c.obj)	#SHT_PROGBITS,SHF_ALLOC|SHF_EXECINSTR,4
	0x430bb0a4		$t.2
	0x430bb0a5		__gedf2
	0x430bb11c		$d.3
.text.__unorddf2	0x430bb120	0x44	C:\Users\nikol\projects\quectel\development\customer\threadx\tools\LLVM\4.0.3\lib\clang\4.0.3\lib\baremetal/libclang_rt.builtins-armv7m.a(comparedf2.c.obj)	#SHT_PROGBITS,SHF_ALLOC|SHF_EXECINSTR,4
	0x430bb120		$t.4
	0x430bb121		__aeabi_dcmpun
	0x430bb121		__unorddf2
	0x430bb15c		$d.5
.text.__eqdf2	0x430bb164	0x8	C:\Users\nikol\projects\quectel\development\customer\threadx\tools\LLVM\4.0.3\lib\clang\4.0.3\lib\baremetal/libclang_rt.builtins-armv7m.a(comparedf2.c.obj)	#SHT_PROGBITS,SHF_ALLOC|SHF_EXECINSTR,2
	0x430bb164		$t.6
	0x430bb165		__eqdf2
.text.__ltdf2	0x430bb16c	0x8	C:\Users\nikol\projects\quectel\development\customer\threadx\tools\LLVM\4.0.3\lib\clang\4.0.3\lib\baremetal/libclang_rt.builtins-armv7m.a(comparedf2.c.obj)	#SHT_PROGBITS,SHF_ALLOC|SHF_EXECINSTR,2
	0x430bb16c		$t.7
	0x430bb16d		__ltdf2
.text.__nedf2	0x430bb174	0x8	C:\Users\nikol\projects\quectel\development\customer\threadx\tools\LLVM\4.0.3\lib\clang\4.0.3\lib\baremetal/libclang_rt.builtins-armv7m.a(comparedf2.c.obj)	#SHT_PROGBITS,SHF_ALLOC|SHF_EXECINSTR,2
	0x430bb174		$t.8
	0x430bb175		__nedf2
.text.__gtdf2	0x430bb17c	0x8	C:\Users\nikol\projects\quectel\development\customer\threadx\tools\LLVM\4.0.3\lib\clang\4.0.3\lib\baremetal/libclang_rt.builtins-armv7m.a(comparedf2.c.obj)	#SHT_PROGBITS,SHF_ALLOC|SHF_EXECINSTR,2
	0x430bb17c		$t.9
	0x430bb17d		__gtdf2
.text.__lesf2	0x430bb184	0x40	C:\Users\nikol\projects\quectel\development\customer\threadx\tools\LLVM\4.0.3\lib\clang\4.0.3\lib\baremetal/libclang_rt.builtins-armv7m.a(comparesf2.c.obj)	#SHT_PROGBITS,SHF_ALLOC|SHF_EXECINSTR,2
	0x430bb184		$t.0
	0x430bb185		__cmpsf2
	0x430bb185		__lesf2
.text.__gesf2	0x430bb1c4	0x42	C:\Users\nikol\projects\quectel\development\customer\threadx\tools\LLVM\4.0.3\lib\clang\4.0.3\lib\baremetal/libclang_rt.builtins-armv7m.a(comparesf2.c.obj)	#SHT_PROGBITS,SHF_ALLOC|SHF_EXECINSTR,2
	0x430bb1c4		$t.1
	0x430bb1c5		__gesf2
.text.__unordsf2	0x430bb206	0x24	C:\Users\nikol\projects\quectel\development\customer\threadx\tools\LLVM\4.0.3\lib\clang\4.0.3\lib\baremetal/libclang_rt.builtins-armv7m.a(comparesf2.c.obj)	#SHT_PROGBITS,SHF_ALLOC|SHF_EXECINSTR,2
	0x430bb206		$t.2
	0x430bb207		__aeabi_fcmpun
	0x430bb207		__unordsf2
.text.__eqsf2	0x430bb22a	0x8	C:\Users\nikol\projects\quectel\development\customer\threadx\tools\LLVM\4.0.3\lib\clang\4.0.3\lib\baremetal/libclang_rt.builtins-armv7m.a(comparesf2.c.obj)	#SHT_PROGBITS,SHF_ALLOC|SHF_EXECINSTR,2
	0x430bb22a		$t.3
	0x430bb22b		__eqsf2
.text.__ltsf2	0x430bb232	0x8	C:\Users\nikol\projects\quectel\development\customer\threadx\tools\LLVM\4.0.3\lib\clang\4.0.3\lib\baremetal/libclang_rt.builtins-armv7m.a(comparesf2.c.obj)	#SHT_PROGBITS,SHF_ALLOC|SHF_EXECINSTR,2
	0x430bb232		$t.4
	0x430bb233		__ltsf2
.text.__nesf2	0x430bb23a	0x8	C:\Users\nikol\projects\quectel\development\customer\threadx\tools\LLVM\4.0.3\lib\clang\4.0.3\lib\baremetal/libclang_rt.builtins-armv7m.a(comparesf2.c.obj)	#SHT_PROGBITS,SHF_ALLOC|SHF_EXECINSTR,2
	0x430bb23a		$t.5
	0x430bb23b		__nesf2
.text.__gtsf2	0x430bb242	0x8	C:\Users\nikol\projects\quectel\development\customer\threadx\tools\LLVM\4.0.3\lib\clang\4.0.3\lib\baremetal/libclang_rt.builtins-armv7m.a(comparesf2.c.obj)	#SHT_PROGBITS,SHF_ALLOC|SHF_EXECINSTR,2
	0x430bb242		$t.6
	0x430bb243		__gtsf2
.text.__divdf3	0x430bb24c	0x3b8	C:\Users\nikol\projects\quectel\development\customer\threadx\tools\LLVM\4.0.3\lib\clang\4.0.3\lib\baremetal/libclang_rt.builtins-armv7m.a(divdf3.c.obj)	#SHT_PROGBITS,SHF_ALLOC|SHF_EXECINSTR,4
	0x430bb24c		$t.0
	0x430bb24d		__aeabi_ddiv
	0x430bb24d		__divdf3
	0x430bb5ec		$d.1
.text.fromRep	0x430bb604	0x2	C:\Users\nikol\projects\quectel\development\customer\threadx\tools\LLVM\4.0.3\lib\clang\4.0.3\lib\baremetal/libclang_rt.builtins-armv7m.a(divdf3.c.obj)	#SHT_PROGBITS,SHF_ALLOC|SHF_EXECINSTR,2
	0x430bb604		$t.2
	0x430bb605		fromRep
.text.normalize	0x430bb606	0x46	C:\Users\nikol\projects\quectel\development\customer\threadx\tools\LLVM\4.0.3\lib\clang\4.0.3\lib\baremetal/libclang_rt.builtins-armv7m.a(divdf3.c.obj)	#SHT_PROGBITS,SHF_ALLOC|SHF_EXECINSTR,2
	0x430bb606		$t.3
	0x430bb607		normalize
.text.__divmoddi4	0x430bb64c	0x2c	C:\Users\nikol\projects\quectel\development\customer\threadx\tools\LLVM\4.0.3\lib\clang\4.0.3\lib\baremetal/libclang_rt.builtins-armv7m.a(divmoddi4.c.obj)	#SHT_PROGBITS,SHF_ALLOC|SHF_EXECINSTR,2
	0x430bb64c		$t.0
	0x430bb64d		__divmoddi4
.text.__divmodsi4	0x430bb678	0x14	C:\Users\nikol\projects\quectel\development\customer\threadx\tools\LLVM\4.0.3\lib\clang\4.0.3\lib\baremetal/libclang_rt.builtins-armv7m.a(divmodsi4.c.obj)	#SHT_PROGBITS,SHF_ALLOC|SHF_EXECINSTR,2
	0x430bb678		$t.0
	0x430bb679		__divmodsi4
.text.__divsf3	0x430bb68c	0x16c	C:\Users\nikol\projects\quectel\development\customer\threadx\tools\LLVM\4.0.3\lib\clang\4.0.3\lib\baremetal/libclang_rt.builtins-armv7m.a(divsf3.c.obj)	#SHT_PROGBITS,SHF_ALLOC|SHF_EXECINSTR,4
	0x430bb68c		$t.0
	0x430bb68d		__aeabi_fdiv
	0x430bb68d		__divsf3
	0x430bb7ec		$d.1
.text.normalize	0x430bb7f8	0x14	C:\Users\nikol\projects\quectel\development\customer\threadx\tools\LLVM\4.0.3\lib\clang\4.0.3\lib\baremetal/libclang_rt.builtins-armv7m.a(divsf3.c.obj)	#SHT_PROGBITS,SHF_ALLOC|SHF_EXECINSTR,2
	0x430bb7f8		$t.2
	0x430bb7f9		normalize
.text.__divsi3	0x430bb80c	0x20	C:\Users\nikol\projects\quectel\development\customer\threadx\tools\LLVM\4.0.3\lib\clang\4.0.3\lib\baremetal/libclang_rt.builtins-armv7m.a(divsi3.c.obj)	#SHT_PROGBITS,SHF_ALLOC|SHF_EXECINSTR,2
	0x430bb80c		$t.0
	0x430bb80d		__aeabi_idiv
	0x430bb80d		__divsi3
.text.__extendsfdf2	0x430bb82c	0x78	C:\Users\nikol\projects\quectel\development\customer\threadx\tools\LLVM\4.0.3\lib\clang\4.0.3\lib\baremetal/libclang_rt.builtins-armv7m.a(extendsfdf2.c.obj)	#SHT_PROGBITS,SHF_ALLOC|SHF_EXECINSTR,4
	0x430bb82c		$t.0
	0x430bb82d		__aeabi_f2d
	0x430bb82d		__extendsfdf2
	0x430bb8a0		$d.1
.text.__fixdfdi	0x430bb8a4	0x2e	C:\Users\nikol\projects\quectel\development\customer\threadx\tools\LLVM\4.0.3\lib\clang\4.0.3\lib\baremetal/libclang_rt.builtins-armv7m.a(fixdfdi.c.obj)	#SHT_PROGBITS,SHF_ALLOC|SHF_EXECINSTR,2
	0x430bb8a4		$t.0
	0x430bb8a5		__aeabi_d2lz
	0x430bb8a5		__fixdfdi
.text.__fixdfsi	0x430bb8d4	0x68	C:\Users\nikol\projects\quectel\development\customer\threadx\tools\LLVM\4.0.3\lib\clang\4.0.3\lib\baremetal/libclang_rt.builtins-armv7m.a(fixdfsi.c.obj)	#SHT_PROGBITS,SHF_ALLOC|SHF_EXECINSTR,4
	0x430bb8d4		$t.0
	0x430bb8d5		__aeabi_d2iz
	0x430bb8d5		__fixdfsi
	0x430bb934		$d.1
.text.__fixsfdi	0x430bb93c	0x26	C:\Users\nikol\projects\quectel\development\customer\threadx\tools\LLVM\4.0.3\lib\clang\4.0.3\lib\baremetal/libclang_rt.builtins-armv7m.a(fixsfdi.c.obj)	#SHT_PROGBITS,SHF_ALLOC|SHF_EXECINSTR,2
	0x430bb93c		$t.0
	0x430bb93d		__aeabi_f2lz
	0x430bb93d		__fixsfdi
.text.__fixsfsi	0x430bb964	0x54	C:\Users\nikol\projects\quectel\development\customer\threadx\tools\LLVM\4.0.3\lib\clang\4.0.3\lib\baremetal/libclang_rt.builtins-armv7m.a(fixsfsi.c.obj)	#SHT_PROGBITS,SHF_ALLOC|SHF_EXECINSTR,4
	0x430bb964		$t.0
	0x430bb965		__aeabi_f2iz
	0x430bb965		__fixsfsi
	0x430bb9b4		$d.1
.text.__fixunsdfdi	0x430bb9b8	0x58	C:\Users\nikol\projects\quectel\development\customer\threadx\tools\LLVM\4.0.3\lib\clang\4.0.3\lib\baremetal/libclang_rt.builtins-armv7m.a(fixunsdfdi.c.obj)	#SHT_PROGBITS,SHF_ALLOC|SHF_EXECINSTR,4
	0x430bb9b8		$t.0
	0x430bb9b9		__aeabi_d2ulz
	0x430bb9b9		__fixunsdfdi
	0x430bba08		$d.1
.text.__fixunsdfsi	0x430bba10	0x58	C:\Users\nikol\projects\quectel\development\customer\threadx\tools\LLVM\4.0.3\lib\clang\4.0.3\lib\baremetal/libclang_rt.builtins-armv7m.a(fixunsdfsi.c.obj)	#SHT_PROGBITS,SHF_ALLOC|SHF_EXECINSTR,4
	0x430bba10		$t.0
	0x430bba11		__aeabi_d2uiz
	0x430bba11		__fixunsdfsi
	0x430bba64		$d.1
.text.__fixunssfdi	0x430bba68	0x58	C:\Users\nikol\projects\quectel\development\customer\threadx\tools\LLVM\4.0.3\lib\clang\4.0.3\lib\baremetal/libclang_rt.builtins-armv7m.a(fixunssfdi.c.obj)	#SHT_PROGBITS,SHF_ALLOC|SHF_EXECINSTR,4
	0x430bba68		$t.0
	0x430bba69		__aeabi_f2ulz
	0x430bba69		__fixunssfdi
	0x430bbab8		$d.1
.text.__fixunssfsi	0x430bbac0	0x40	C:\Users\nikol\projects\quectel\development\customer\threadx\tools\LLVM\4.0.3\lib\clang\4.0.3\lib\baremetal/libclang_rt.builtins-armv7m.a(fixunssfsi.c.obj)	#SHT_PROGBITS,SHF_ALLOC|SHF_EXECINSTR,4
	0x430bbac0		$t.0
	0x430bbac1		__aeabi_f2uiz
	0x430bbac1		__fixunssfsi
	0x430bbafc		$d.1
.text.__floatdidf	0x430bbb00	0x30	C:\Users\nikol\projects\quectel\development\customer\threadx\tools\LLVM\4.0.3\lib\clang\4.0.3\lib\baremetal/libclang_rt.builtins-armv7m.a(floatdidf.c.obj)	#SHT_PROGBITS,SHF_ALLOC|SHF_EXECINSTR,4
	0x430bbb00		$t.0
	0x430bbb01		__aeabi_l2d
	0x430bbb01		__floatdidf
	0x430bbb24		$d.1
.text.__floatdisf	0x430bbb30	0x104	C:\Users\nikol\projects\quectel\development\customer\threadx\tools\LLVM\4.0.3\lib\clang\4.0.3\lib\baremetal/libclang_rt.builtins-armv7m.a(floatdisf.c.obj)	#SHT_PROGBITS,SHF_ALLOC|SHF_EXECINSTR,2
	0x430bbb30		$t.0
	0x430bbb31		__aeabi_l2f
	0x430bbb31		__floatdisf
.text.__floatsidf	0x430bbc34	0x68	C:\Users\nikol\projects\quectel\development\customer\threadx\tools\LLVM\4.0.3\lib\clang\4.0.3\lib\baremetal/libclang_rt.builtins-armv7m.a(floatsidf.c.obj)	#SHT_PROGBITS,SHF_ALLOC|SHF_EXECINSTR,4
	0x430bbc34		$t.0
	0x430bbc35		__aeabi_i2d
	0x430bbc35		__floatsidf
	0x430bbc98		$d.1
.text.__floatsisf	0x430bbc9c	0x62	C:\Users\nikol\projects\quectel\development\customer\threadx\tools\LLVM\4.0.3\lib\clang\4.0.3\lib\baremetal/libclang_rt.builtins-armv7m.a(floatsisf.c.obj)	#SHT_PROGBITS,SHF_ALLOC|SHF_EXECINSTR,2
	0x430bbc9c		$t.0
	0x430bbc9d		__aeabi_i2f
	0x430bbc9d		__floatsisf
.text.__floatundidf	0x430bbd00	0x2c	C:\Users\nikol\projects\quectel\development\customer\threadx\tools\LLVM\4.0.3\lib\clang\4.0.3\lib\baremetal/libclang_rt.builtins-armv7m.a(floatundidf.c.obj)	#SHT_PROGBITS,SHF_ALLOC|SHF_EXECINSTR,4
	0x430bbd00		$t.0
	0x430bbd01		__aeabi_ul2d
	0x430bbd01		__floatundidf
	0x430bbd20		$d.1
.text.__floatundisf	0x430bbd2c	0xd8	C:\Users\nikol\projects\quectel\development\customer\threadx\tools\LLVM\4.0.3\lib\clang\4.0.3\lib\baremetal/libclang_rt.builtins-armv7m.a(floatundisf.c.obj)	#SHT_PROGBITS,SHF_ALLOC|SHF_EXECINSTR,2
	0x430bbd2c		$t.0
	0x430bbd2d		__aeabi_ul2f
	0x430bbd2d		__floatundisf
.text.__floatunsidf	0x430bbe04	0x46	C:\Users\nikol\projects\quectel\development\customer\threadx\tools\LLVM\4.0.3\lib\clang\4.0.3\lib\baremetal/libclang_rt.builtins-armv7m.a(floatunsidf.c.obj)	#SHT_PROGBITS,SHF_ALLOC|SHF_EXECINSTR,2
	0x430bbe04		$t.0
	0x430bbe05		__aeabi_ui2d
	0x430bbe05		__floatunsidf
.text.__floatunsisf	0x430bbe4c	0x4e	C:\Users\nikol\projects\quectel\development\customer\threadx\tools\LLVM\4.0.3\lib\clang\4.0.3\lib\baremetal/libclang_rt.builtins-armv7m.a(floatunsisf.c.obj)	#SHT_PROGBITS,SHF_ALLOC|SHF_EXECINSTR,2
	0x430bbe4c		$t.0
	0x430bbe4d		__aeabi_ui2f
	0x430bbe4d		__floatunsisf
.text.__muldf3	0x430bbe9c	0x32c	C:\Users\nikol\projects\quectel\development\customer\threadx\tools\LLVM\4.0.3\lib\clang\4.0.3\lib\baremetal/libclang_rt.builtins-armv7m.a(muldf3.c.obj)	#SHT_PROGBITS,SHF_ALLOC|SHF_EXECINSTR,4
	0x430bbe9c		$t.0
	0x430bbe9d		__aeabi_dmul
	0x430bbe9d		__muldf3
	0x430bc1b4		$d.1
.text.normalize	0x430bc1c8	0x46	C:\Users\nikol\projects\quectel\development\customer\threadx\tools\LLVM\4.0.3\lib\clang\4.0.3\lib\baremetal/libclang_rt.builtins-armv7m.a(muldf3.c.obj)	#SHT_PROGBITS,SHF_ALLOC|SHF_EXECINSTR,2
	0x430bc1c8		$t.2
	0x430bc1c9		normalize
.text.__mulsf3	0x430bc210	0x13c	C:\Users\nikol\projects\quectel\development\customer\threadx\tools\LLVM\4.0.3\lib\clang\4.0.3\lib\baremetal/libclang_rt.builtins-armv7m.a(mulsf3.c.obj)	#SHT_PROGBITS,SHF_ALLOC|SHF_EXECINSTR,4
	0x430bc210		$t.0
	0x430bc211		__aeabi_fmul
	0x430bc211		__mulsf3
	0x430bc344		$d.1
.text.normalize	0x430bc34c	0x14	C:\Users\nikol\projects\quectel\development\customer\threadx\tools\LLVM\4.0.3\lib\clang\4.0.3\lib\baremetal/libclang_rt.builtins-armv7m.a(mulsf3.c.obj)	#SHT_PROGBITS,SHF_ALLOC|SHF_EXECINSTR,2
	0x430bc34c		$t.2
	0x430bc34d		normalize
.text.__subdf3	0x430bc360	0xc	C:\Users\nikol\projects\quectel\development\customer\threadx\tools\LLVM\4.0.3\lib\clang\4.0.3\lib\baremetal/libclang_rt.builtins-armv7m.a(subdf3.c.obj)	#SHT_PROGBITS,SHF_ALLOC|SHF_EXECINSTR,2
	0x430bc360		$t.0
	0x430bc361		__aeabi_dsub
	0x430bc361		__subdf3
.text.__subsf3	0x430bc36c	0xc	C:\Users\nikol\projects\quectel\development\customer\threadx\tools\LLVM\4.0.3\lib\clang\4.0.3\lib\baremetal/libclang_rt.builtins-armv7m.a(subsf3.c.obj)	#SHT_PROGBITS,SHF_ALLOC|SHF_EXECINSTR,2
	0x430bc36c		$t.0
	0x430bc36d		__aeabi_fsub
	0x430bc36d		__subsf3
.text.__truncdfsf2	0x430bc378	0x130	C:\Users\nikol\projects\quectel\development\customer\threadx\tools\LLVM\4.0.3\lib\clang\4.0.3\lib\baremetal/libclang_rt.builtins-armv7m.a(truncdfsf2.c.obj)	#SHT_PROGBITS,SHF_ALLOC|SHF_EXECINSTR,4
	0x430bc378		$t.0
	0x430bc379		__aeabi_d2f
	0x430bc379		__truncdfsf2
	0x430bc488		$d.1
.text.__udivmoddi4	0x430bc4a8	0x1d4	C:\Users\nikol\projects\quectel\development\customer\threadx\tools\LLVM\4.0.3\lib\clang\4.0.3\lib\baremetal/libclang_rt.builtins-armv7m.a(udivmoddi4.c.obj)	#SHT_PROGBITS,SHF_ALLOC|SHF_EXECINSTR,2
	0x430bc4a8		$t.0
	0x430bc4a9		__udivmoddi4
.text.__udivmodsi4	0x430bc67c	0x14	C:\Users\nikol\projects\quectel\development\customer\threadx\tools\LLVM\4.0.3\lib\clang\4.0.3\lib\baremetal/libclang_rt.builtins-armv7m.a(udivmodsi4.c.obj)	#SHT_PROGBITS,SHF_ALLOC|SHF_EXECINSTR,2
	0x430bc67c		$t.0
	0x430bc67d		__udivmodsi4
.text.__udivsi3	0x430bc690	0x54	C:\Users\nikol\projects\quectel\development\customer\threadx\tools\LLVM\4.0.3\lib\clang\4.0.3\lib\baremetal/libclang_rt.builtins-armv7m.a(udivsi3.c.obj)	#SHT_PROGBITS,SHF_ALLOC|SHF_EXECINSTR,2
	0x430bc690		$t.0
	0x430bc691		__aeabi_uidiv
	0x430bc691		__udivsi3
.text.__divdi3	0x430bc6e4	0x46	C:\Users\nikol\projects\quectel\development\customer\threadx\tools\LLVM\4.0.3\lib\clang\4.0.3\lib\baremetal/libclang_rt.builtins-armv7m.a(divdi3.c.obj)	#SHT_PROGBITS,SHF_ALLOC|SHF_EXECINSTR,2
	0x430bc6e4		$t.0
	0x430bc6e5		__divdi3
*(Init )
*(.rodata .rodata.* )
.rodata.str1.1	0x430bc72a	0xb	out/common/src/retarget.o	#SHT_PROGBITS,SHF_ALLOC|SHF_MERGE|SHF_STRINGS,1
	0x430bc72a		.L.str
.rodata.str1.1	0x430bc735	0xa	out/common/src/retarget.o	#SHT_PROGBITS,SHF_ALLOC|SHF_MERGE|SHF_STRINGS,1
	0x430bc735		.L.str.1
.rodata.str1.1	0x430bc73f	0xd	out/common/src/retarget.o	#SHT_PROGBITS,SHF_ALLOC|SHF_MERGE|SHF_STRINGS,1
	0x430bc73f		.L.str.2
.rodata.str1.1	0x430bc74c	0xf	out/common/src/retarget.o	#SHT_PROGBITS,SHF_ALLOC|SHF_MERGE|SHF_STRINGS,1
	0x430bc74c		.L.str.3
.rodata.str1.1	0x430bc75b	0x11	out/common/src/retarget.o	#SHT_PROGBITS,SHF_ALLOC|SHF_MERGE|SHF_STRINGS,1
	0x430bc75b		.L.str.4
.rodata.str1.1	0x430bc76c	0xe	out/common/src/retarget.o	#SHT_PROGBITS,SHF_ALLOC|SHF_MERGE|SHF_STRINGS,1
	0x430bc76c		.L.str.5
.rodata.str1.1	0x430bc77a	0xb	out/common/src/malloc.o	#SHT_PROGBITS,SHF_ALLOC|SHF_MERGE|SHF_STRINGS,1
	0x430bc77a		.L.str.1
.rodata.str1.1	0x430bc785	0x29	out/common/src/malloc.o	#SHT_PROGBITS,SHF_ALLOC|SHF_MERGE|SHF_STRINGS,1
	0x430bc785		.L.str.3
PADDING_ALIGNMENT	0x430bc7ae	0x2	0x0
.rodata.str1.16	0x430bc7b0	0x83	out/common/src/malloc.o	#SHT_PROGBITS,SHF_ALLOC|SHF_MERGE|SHF_STRINGS,16
	0x430bc7b0		.Lstr
	0x430bc7e0		.Lstr.5
	0x430bc810		.Lstr.6
.rodata.str1.1	0x430bc833	0x5	out/src/main.o	#SHT_PROGBITS,SHF_ALLOC|SHF_MERGE|SHF_STRINGS,1
	0x430bc833		.L.str
.rodata.str1.1	0x430bc838	0x4	out/src/main.o	#SHT_PROGBITS,SHF_ALLOC|SHF_MERGE|SHF_STRINGS,1
	0x430bc838		.L.str.1
.rodata.str1.1	0x430bc83c	0x7	out/src/main.o	#SHT_PROGBITS,SHF_ALLOC|SHF_MERGE|SHF_STRINGS,1
	0x430bc83c		.L.str.2
.rodata.str1.1	0x430bc843	0x11	out/src/main.o	#SHT_PROGBITS,SHF_ALLOC|SHF_MERGE|SHF_STRINGS,1
	0x430bc843		.L.str.3
.rodata.str1.1	0x430bc854	0x2	out/src/main.o	#SHT_PROGBITS,SHF_ALLOC|SHF_MERGE|SHF_STRINGS,1
	0x430bc854		.L.str.4
.rodata.str1.1	0x430bc856	0x6	out/src/main.o	#SHT_PROGBITS,SHF_ALLOC|SHF_MERGE|SHF_STRINGS,1
	0x430bc856		.L.str.5
.rodata.str1.1	0x430bc85c	0x4	out/src/main.o	#SHT_PROGBITS,SHF_ALLOC|SHF_MERGE|SHF_STRINGS,1
	0x430bc85c		.L.str.6
.rodata.str1.1	0x430bc860	0x15	out/src/main.o	#SHT_PROGBITS,SHF_ALLOC|SHF_MERGE|SHF_STRINGS,1
	0x430bc860		.L.str.7
.rodata.str1.1	0x430bc875	0x17	out/src/main.o	#SHT_PROGBITS,SHF_ALLOC|SHF_MERGE|SHF_STRINGS,1
	0x430bc875		.L.str.8
.rodata	0x430bc88c	0x7398	out/src/main.o	#SHT_PROGBITS,SHF_ALLOC,4
	0x430bc88c		mnist_onnx
	0x430c2fe4		input_3
.rodata.str1.1	0x430c3c24	0x12	../../../Quectel_BG96_QuecOpen_SDK_Package_V3.0.1-AUS/SDK/libs/llvm\timer_dam_lib.lib(qapi_timer_user.o)	#SHT_PROGBITS,SHF_ALLOC|SHF_MERGE|SHF_STRINGS,1
	0x430c3c24		.L.str
.rodata.str1.1	0x430c3c36	0xd	C:\Users\nikol\projects\quectel\development\customer\threadx\workspace\apps\ml/libonnx.a(onnx.o)	#SHT_PROGBITS,SHF_ALLOC|SHF_MERGE|SHF_STRINGS,1
	0x430c3c36		.L.str
.rodata.str1.1	0x430c3c43	0x1e	C:\Users\nikol\projects\quectel\development\customer\threadx\workspace\apps\ml/libonnx.a(onnx.o)	#SHT_PROGBITS,SHF_ALLOC|SHF_MERGE|SHF_STRINGS,1
	0x430c3c43		.L.str.1
.rodata.str1.1	0x430c3c61	0x24	C:\Users\nikol\projects\quectel\development\customer\threadx\workspace\apps\ml/libonnx.a(onnx.o)	#SHT_PROGBITS,SHF_ALLOC|SHF_MERGE|SHF_STRINGS,1
	0x430c3c61		.L.str.2
.rodata.str1.1	0x430c3c85	0x2c	C:\Users\nikol\projects\quectel\development\customer\threadx\workspace\apps\ml/libonnx.a(onnx.o)	#SHT_PROGBITS,SHF_ALLOC|SHF_MERGE|SHF_STRINGS,1
	0x430c3c85		.L.str.3
.rodata.str1.1	0x430c3cb1	0x40	C:\Users\nikol\projects\quectel\development\customer\threadx\workspace\apps\ml/libonnx.a(onnx.o)	#SHT_PROGBITS,SHF_ALLOC|SHF_MERGE|SHF_STRINGS,1
	0x430c3cb1		.L.str.4
.rodata.str1.1	0x430c3cf1	0x22	C:\Users\nikol\projects\quectel\development\customer\threadx\workspace\apps\ml/libonnx.a(onnx.o)	#SHT_PROGBITS,SHF_ALLOC|SHF_MERGE|SHF_STRINGS,1
	0x430c3cf1		.L.str.5
.rodata.str1.1	0x430c3d13	0x1f	C:\Users\nikol\projects\quectel\development\customer\threadx\workspace\apps\ml/libonnx.a(onnx.o)	#SHT_PROGBITS,SHF_ALLOC|SHF_MERGE|SHF_STRINGS,1
	0x430c3d13		.L.str.6
.rodata.str1.1	0x430c3d32	0x23	C:\Users\nikol\projects\quectel\development\customer\threadx\workspace\apps\ml/libonnx.a(onnx.o)	#SHT_PROGBITS,SHF_ALLOC|SHF_MERGE|SHF_STRINGS,1
	0x430c3d32		.L.str.7
.rodata.str1.1	0x430c3d55	0x1d	C:\Users\nikol\projects\quectel\development\customer\threadx\workspace\apps\ml/libonnx.a(onnx.o)	#SHT_PROGBITS,SHF_ALLOC|SHF_MERGE|SHF_STRINGS,1
	0x430c3d55		.L.str.8
.rodata.str1.1	0x430c3d72	0x1f	C:\Users\nikol\projects\quectel\development\customer\threadx\workspace\apps\ml/libonnx.a(onnx.o)	#SHT_PROGBITS,SHF_ALLOC|SHF_MERGE|SHF_STRINGS,1
	0x430c3d72		.L.str.9
.rodata.str1.1	0x430c3d91	0xd	C:\Users\nikol\projects\quectel\development\customer\threadx\workspace\apps\ml/libonnx.a(onnx.o)	#SHT_PROGBITS,SHF_ALLOC|SHF_MERGE|SHF_STRINGS,1
	0x430c3d91		.L.str.10
.rodata.str1.1	0x430c3d9e	0xf	C:\Users\nikol\projects\quectel\development\customer\threadx\workspace\apps\ml/libonnx.a(onnx.o)	#SHT_PROGBITS,SHF_ALLOC|SHF_MERGE|SHF_STRINGS,1
	0x430c3d9e		.L.str.11
.rodata.str1.1	0x430c3dad	0x8	C:\Users\nikol\projects\quectel\development\customer\threadx\workspace\apps\ml/libonnx.a(onnx.o)	#SHT_PROGBITS,SHF_ALLOC|SHF_MERGE|SHF_STRINGS,1
	0x430c3dad		.L.str.12
.rodata.str1.1	0x430c3db5	0x3	C:\Users\nikol\projects\quectel\development\customer\threadx\workspace\apps\ml/libonnx.a(onnx.o)	#SHT_PROGBITS,SHF_ALLOC|SHF_MERGE|SHF_STRINGS,1
	0x430c3db5		.L.str.13
.rodata.str1.1	0x430c3db8	0xa	C:\Users\nikol\projects\quectel\development\customer\threadx\workspace\apps\ml/libonnx.a(onnx.o)	#SHT_PROGBITS,SHF_ALLOC|SHF_MERGE|SHF_STRINGS,1
	0x430c3db8		.L.str.14
.rodata.str1.1	0x430c3dc2	0x8	C:\Users\nikol\projects\quectel\development\customer\threadx\workspace\apps\ml/libonnx.a(onnx.o)	#SHT_PROGBITS,SHF_ALLOC|SHF_MERGE|SHF_STRINGS,1
	0x430c3dc2		.L.str.15
.rodata.str1.1	0x430c3dca	0x6	C:\Users\nikol\projects\quectel\development\customer\threadx\workspace\apps\ml/libonnx.a(onnx.o)	#SHT_PROGBITS,SHF_ALLOC|SHF_MERGE|SHF_STRINGS,1
	0x430c3dca		.L.str.16
.rodata.str1.1	0x430c3dd0	0x5	C:\Users\nikol\projects\quectel\development\customer\threadx\workspace\apps\ml/libonnx.a(onnx.o)	#SHT_PROGBITS,SHF_ALLOC|SHF_MERGE|SHF_STRINGS,1
	0x430c3dd0		.L.str.17
.rodata.str1.1	0x430c3dd5	0x7	C:\Users\nikol\projects\quectel\development\customer\threadx\workspace\apps\ml/libonnx.a(onnx.o)	#SHT_PROGBITS,SHF_ALLOC|SHF_MERGE|SHF_STRINGS,1
	0x430c3dd5		.L.str.18
.rodata.str1.1	0x430c3ddc	0x6	C:\Users\nikol\projects\quectel\development\customer\threadx\workspace\apps\ml/libonnx.a(onnx.o)	#SHT_PROGBITS,SHF_ALLOC|SHF_MERGE|SHF_STRINGS,1
	0x430c3ddc		.L.str.19
.rodata.str1.1	0x430c3de2	0x6	C:\Users\nikol\projects\quectel\development\customer\threadx\workspace\apps\ml/libonnx.a(onnx.o)	#SHT_PROGBITS,SHF_ALLOC|SHF_MERGE|SHF_STRINGS,1
	0x430c3de2		.L.str.20
.rodata.str1.1	0x430c3de8	0x6	C:\Users\nikol\projects\quectel\development\customer\threadx\workspace\apps\ml/libonnx.a(onnx.o)	#SHT_PROGBITS,SHF_ALLOC|SHF_MERGE|SHF_STRINGS,1
	0x430c3de8		.L.str.21
.rodata.str1.1	0x430c3dee	0x7	C:\Users\nikol\projects\quectel\development\customer\threadx\workspace\apps\ml/libonnx.a(onnx.o)	#SHT_PROGBITS,SHF_ALLOC|SHF_MERGE|SHF_STRINGS,1
	0x430c3dee		.L.str.22
.rodata.str1.1	0x430c3df5	0x5	C:\Users\nikol\projects\quectel\development\customer\threadx\workspace\apps\ml/libonnx.a(onnx.o)	#SHT_PROGBITS,SHF_ALLOC|SHF_MERGE|SHF_STRINGS,1
	0x430c3df5		.L.str.23
.rodata.str1.1	0x430c3dfa	0x8	C:\Users\nikol\projects\quectel\development\customer\threadx\workspace\apps\ml/libonnx.a(onnx.o)	#SHT_PROGBITS,SHF_ALLOC|SHF_MERGE|SHF_STRINGS,1
	0x430c3dfa		.L.str.24
.rodata.str1.1	0x430c3e02	0x8	C:\Users\nikol\projects\quectel\development\customer\threadx\workspace\apps\ml/libonnx.a(onnx.o)	#SHT_PROGBITS,SHF_ALLOC|SHF_MERGE|SHF_STRINGS,1
	0x430c3e02		.L.str.25
.rodata.str1.1	0x430c3e0a	0x7	C:\Users\nikol\projects\quectel\development\customer\threadx\workspace\apps\ml/libonnx.a(onnx.o)	#SHT_PROGBITS,SHF_ALLOC|SHF_MERGE|SHF_STRINGS,1
	0x430c3e0a		.L.str.26
.rodata.str1.1	0x430c3e11	0x7	C:\Users\nikol\projects\quectel\development\customer\threadx\workspace\apps\ml/libonnx.a(onnx.o)	#SHT_PROGBITS,SHF_ALLOC|SHF_MERGE|SHF_STRINGS,1
	0x430c3e11		.L.str.27
.rodata.str1.1	0x430c3e18	0xa	C:\Users\nikol\projects\quectel\development\customer\threadx\workspace\apps\ml/libonnx.a(onnx.o)	#SHT_PROGBITS,SHF_ALLOC|SHF_MERGE|SHF_STRINGS,1
	0x430c3e18		.L.str.28
.rodata.str1.1	0x430c3e22	0xb	C:\Users\nikol\projects\quectel\development\customer\threadx\workspace\apps\ml/libonnx.a(onnx.o)	#SHT_PROGBITS,SHF_ALLOC|SHF_MERGE|SHF_STRINGS,1
	0x430c3e22		.L.str.29
.rodata.str1.1	0x430c3e2d	0x9	C:\Users\nikol\projects\quectel\development\customer\threadx\workspace\apps\ml/libonnx.a(onnx.o)	#SHT_PROGBITS,SHF_ALLOC|SHF_MERGE|SHF_STRINGS,1
	0x430c3e2d		.L.str.30
.rodata.str1.1	0x430c3e36	0x2c	C:\Users\nikol\projects\quectel\development\customer\threadx\workspace\apps\ml/libonnx.a(onnx.o)	#SHT_PROGBITS,SHF_ALLOC|SHF_MERGE|SHF_STRINGS,1
	0x430c3e36		.L.str.31
.rodata.str1.1	0x430c3e62	0x1a	C:\Users\nikol\projects\quectel\development\customer\threadx\workspace\apps\ml/libonnx.a(onnx.o)	#SHT_PROGBITS,SHF_ALLOC|SHF_MERGE|SHF_STRINGS,1
	0x430c3e62		.L.str.32
.rodata.str1.1	0x430c3e7c	0x2b	C:\Users\nikol\projects\quectel\development\customer\threadx\workspace\apps\ml/libonnx.a(onnx.o)	#SHT_PROGBITS,SHF_ALLOC|SHF_MERGE|SHF_STRINGS,1
	0x430c3e7c		.L.str.33
.rodata.str1.1	0x430c3ea7	0x1d	C:\Users\nikol\projects\quectel\development\customer\threadx\workspace\apps\ml/libonnx.a(onnx.o)	#SHT_PROGBITS,SHF_ALLOC|SHF_MERGE|SHF_STRINGS,1
	0x430c3ea7		.L.str.34
.rodata.str1.1	0x430c3ec4	0x24	C:\Users\nikol\projects\quectel\development\customer\threadx\workspace\apps\ml/libonnx.a(onnx.o)	#SHT_PROGBITS,SHF_ALLOC|SHF_MERGE|SHF_STRINGS,1
	0x430c3ec4		.L.str.35
.rodata.str1.1	0x430c3ee8	0xf	C:\Users\nikol\projects\quectel\development\customer\threadx\workspace\apps\ml/libonnx.a(onnx.o)	#SHT_PROGBITS,SHF_ALLOC|SHF_MERGE|SHF_STRINGS,1
	0x430c3ee8		.L.str.36
.rodata.str1.1	0x430c3ef7	0xb	C:\Users\nikol\projects\quectel\development\customer\threadx\workspace\apps\ml/libonnx.a(onnx.o)	#SHT_PROGBITS,SHF_ALLOC|SHF_MERGE|SHF_STRINGS,1
	0x430c3ef7		.L.str.37
.rodata.str1.1	0x430c3f02	0x7	C:\Users\nikol\projects\quectel\development\customer\threadx\workspace\apps\ml/libonnx.a(onnx.o)	#SHT_PROGBITS,SHF_ALLOC|SHF_MERGE|SHF_STRINGS,1
	0x430c3f02		.L.str.38
.rodata.str1.1	0x430c3f09	0x3	C:\Users\nikol\projects\quectel\development\customer\threadx\workspace\apps\ml/libonnx.a(onnx.o)	#SHT_PROGBITS,SHF_ALLOC|SHF_MERGE|SHF_STRINGS,1
	0x430c3f09		.L.str.40
.rodata.str1.1	0x430c3f0c	0x4	C:\Users\nikol\projects\quectel\development\customer\threadx\workspace\apps\ml/libonnx.a(onnx.o)	#SHT_PROGBITS,SHF_ALLOC|SHF_MERGE|SHF_STRINGS,1
	0x430c3f0c		.L.str.41
.rodata.str1.1	0x430c3f10	0x3	C:\Users\nikol\projects\quectel\development\customer\threadx\workspace\apps\ml/libonnx.a(onnx.o)	#SHT_PROGBITS,SHF_ALLOC|SHF_MERGE|SHF_STRINGS,1
	0x430c3f10		.L.str.44
.rodata.str1.1	0x430c3f13	0x4	C:\Users\nikol\projects\quectel\development\customer\threadx\workspace\apps\ml/libonnx.a(onnx.o)	#SHT_PROGBITS,SHF_ALLOC|SHF_MERGE|SHF_STRINGS,1
	0x430c3f13		.L.str.47
.rodata.str1.1	0x430c3f17	0x5	C:\Users\nikol\projects\quectel\development\customer\threadx\workspace\apps\ml/libonnx.a(onnx.o)	#SHT_PROGBITS,SHF_ALLOC|SHF_MERGE|SHF_STRINGS,1
	0x430c3f17		.L.str.48
.rodata.str1.1	0x430c3f1c	0x6	C:\Users\nikol\projects\quectel\development\customer\threadx\workspace\apps\ml/libonnx.a(onnx.o)	#SHT_PROGBITS,SHF_ALLOC|SHF_MERGE|SHF_STRINGS,1
	0x430c3f1c		.L.str.49
.rodata.str1.1	0x430c3f22	0x4	C:\Users\nikol\projects\quectel\development\customer\threadx\workspace\apps\ml/libonnx.a(onnx.o)	#SHT_PROGBITS,SHF_ALLOC|SHF_MERGE|SHF_STRINGS,1
	0x430c3f22		.L.str.50
.rodata.str1.1	0x430c3f26	0x5	C:\Users\nikol\projects\quectel\development\customer\threadx\workspace\apps\ml/libonnx.a(onnx.o)	#SHT_PROGBITS,SHF_ALLOC|SHF_MERGE|SHF_STRINGS,1
	0x430c3f26		.L.str.51
.rodata.str1.1	0x430c3f2b	0x4	C:\Users\nikol\projects\quectel\development\customer\threadx\workspace\apps\ml/libonnx.a(onnx.o)	#SHT_PROGBITS,SHF_ALLOC|SHF_MERGE|SHF_STRINGS,1
	0x430c3f2b		.L.str.52
.rodata.str1.1	0x430c3f2f	0x5	C:\Users\nikol\projects\quectel\development\customer\threadx\workspace\apps\ml/libonnx.a(onnx.o)	#SHT_PROGBITS,SHF_ALLOC|SHF_MERGE|SHF_STRINGS,1
	0x430c3f2f		.L.str.53
.rodata.str1.1	0x430c3f34	0x4	C:\Users\nikol\projects\quectel\development\customer\threadx\workspace\apps\ml/libonnx.a(onnx.o)	#SHT_PROGBITS,SHF_ALLOC|SHF_MERGE|SHF_STRINGS,1
	0x430c3f34		.L.str.54
.rodata.str1.1	0x430c3f38	0xa	C:\Users\nikol\projects\quectel\development\customer\threadx\workspace\apps\ml/libonnx.a(onnx.o)	#SHT_PROGBITS,SHF_ALLOC|SHF_MERGE|SHF_STRINGS,1
	0x430c3f38		.L.str.55
.rodata.str1.1	0x430c3f42	0x3	C:\Users\nikol\projects\quectel\development\customer\threadx\workspace\apps\ml/libonnx.a(onnx.o)	#SHT_PROGBITS,SHF_ALLOC|SHF_MERGE|SHF_STRINGS,1
	0x430c3f42		.L.str.56
.rodata.str1.1	0x430c3f45	0x4	C:\Users\nikol\projects\quectel\development\customer\threadx\workspace\apps\ml/libonnx.a(onnx.o)	#SHT_PROGBITS,SHF_ALLOC|SHF_MERGE|SHF_STRINGS,1
	0x430c3f45		.L.str.57
.rodata.str1.1	0x430c3f49	0x6	C:\Users\nikol\projects\quectel\development\customer\threadx\workspace\apps\ml/libonnx.a(onnx.o)	#SHT_PROGBITS,SHF_ALLOC|SHF_MERGE|SHF_STRINGS,1
	0x430c3f49		.L.str.58
.rodata.str1.1	0x430c3f4f	0x4	C:\Users\nikol\projects\quectel\development\customer\threadx\workspace\apps\ml/libonnx.a(onnx.o)	#SHT_PROGBITS,SHF_ALLOC|SHF_MERGE|SHF_STRINGS,1
	0x430c3f4f		.L.str.59
.rodata.str1.1	0x430c3f53	0x3	C:\Users\nikol\projects\quectel\development\customer\threadx\workspace\apps\ml/libonnx.a(onnx.o)	#SHT_PROGBITS,SHF_ALLOC|SHF_MERGE|SHF_STRINGS,1
	0x430c3f53		.L.str.60
.rodata.str1.1	0x430c3f56	0x4	C:\Users\nikol\projects\quectel\development\customer\threadx\workspace\apps\ml/libonnx.a(onnx.o)	#SHT_PROGBITS,SHF_ALLOC|SHF_MERGE|SHF_STRINGS,1
	0x430c3f56		.L.str.61
.rodata.str1.1	0x430c3f5a	0x3	C:\Users\nikol\projects\quectel\development\customer\threadx\workspace\apps\ml/libonnx.a(onnx.o)	#SHT_PROGBITS,SHF_ALLOC|SHF_MERGE|SHF_STRINGS,1
	0x430c3f5a		.L.str.62
.rodata.str1.1	0x430c3f5d	0x9	C:\Users\nikol\projects\quectel\development\customer\threadx\workspace\apps\ml/libonnx.a(onnx.o)	#SHT_PROGBITS,SHF_ALLOC|SHF_MERGE|SHF_STRINGS,1
	0x430c3f5d		.L.str.63
.rodata.str1.1	0x430c3f66	0x5	C:\Users\nikol\projects\quectel\development\customer\threadx\workspace\apps\ml/libonnx.a(onnx.o)	#SHT_PROGBITS,SHF_ALLOC|SHF_MERGE|SHF_STRINGS,1
	0x430c3f66		.L.str.65
.rodata.str1.1	0x430c3f6b	0x11	C:\Users\nikol\projects\quectel\development\customer\threadx\workspace\apps\ml/libonnx.a(onnx.o)	#SHT_PROGBITS,SHF_ALLOC|SHF_MERGE|SHF_STRINGS,1
	0x430c3f6b		.L.str.66
.rodata.str1.1	0x430c3f7c	0x3	C:\Users\nikol\projects\quectel\development\customer\threadx\workspace\apps\ml/libonnx.a(onnx.o)	#SHT_PROGBITS,SHF_ALLOC|SHF_MERGE|SHF_STRINGS,1
	0x430c3f7c		.L.str.68
.rodata.str1.1	0x430c3f7f	0x13	C:\Users\nikol\projects\quectel\development\customer\threadx\workspace\apps\ml/libonnx.a(onnx.o)	#SHT_PROGBITS,SHF_ALLOC|SHF_MERGE|SHF_STRINGS,1
	0x430c3f7f		.L.str.70
.rodata.str1.1	0x430c3f92	0x12	C:\Users\nikol\projects\quectel\development\customer\threadx\workspace\apps\ml/libonnx.a(onnx.o)	#SHT_PROGBITS,SHF_ALLOC|SHF_MERGE|SHF_STRINGS,1
	0x430c3f92		.L.str.71
.rodata.str1.1	0x430c3fa4	0xd	C:\Users\nikol\projects\quectel\development\customer\threadx\workspace\apps\ml/libonnx.a(onnx.o)	#SHT_PROGBITS,SHF_ALLOC|SHF_MERGE|SHF_STRINGS,1
	0x430c3fa4		.L.str.72
.rodata.str1.1	0x430c3fb1	0xb	C:\Users\nikol\projects\quectel\development\customer\threadx\workspace\apps\ml/libonnx.a(onnx.o)	#SHT_PROGBITS,SHF_ALLOC|SHF_MERGE|SHF_STRINGS,1
	0x430c3fb1		.L.str.74
.rodata.str1.1	0x430c3fbc	0x1e	C:\Users\nikol\projects\quectel\development\customer\threadx\workspace\apps\ml/libonnx.a(onnx.o)	#SHT_PROGBITS,SHF_ALLOC|SHF_MERGE|SHF_STRINGS,1
	0x430c3fbc		.L.str.76
.rodata.str1.1	0x430c3fda	0x34	C:\Users\nikol\projects\quectel\development\customer\threadx\workspace\apps\ml/libonnx.a(onnx.o)	#SHT_PROGBITS,SHF_ALLOC|SHF_MERGE|SHF_STRINGS,1
	0x430c3fda		.L.str.77
.rodata.str1.1	0x430c400e	0x8	C:\Users\nikol\projects\quectel\development\customer\threadx\workspace\apps\ml/libonnx.a(onnx.o)	#SHT_PROGBITS,SHF_ALLOC|SHF_MERGE|SHF_STRINGS,1
	0x430c400e		.L.str.78
.rodata.str1.1	0x430c4016	0x2e	C:\Users\nikol\projects\quectel\development\customer\threadx\workspace\apps\ml/libonnx.a(onnx.o)	#SHT_PROGBITS,SHF_ALLOC|SHF_MERGE|SHF_STRINGS,1
	0x430c4016		.L.str.79
.rodata.str1.1	0x430c4044	0x5	C:\Users\nikol\projects\quectel\development\customer\threadx\workspace\apps\ml/libonnx.a(onnx.o)	#SHT_PROGBITS,SHF_ALLOC|SHF_MERGE|SHF_STRINGS,1
	0x430c4044		.Lstr.82
.rodata.str1.1	0x430c4049	0x2	C:\Users\nikol\projects\quectel\development\customer\threadx\workspace\apps\ml/libonnx.a(onnx.o)	#SHT_PROGBITS,SHF_ALLOC|SHF_MERGE|SHF_STRINGS,1
	0x430c4049		.Lstr.84
.rodata.str1.1	0x430c404b	0xb	C:\Users\nikol\projects\quectel\development\customer\threadx\workspace\apps\ml/libonnx.a(onnx.o)	#SHT_PROGBITS,SHF_ALLOC|SHF_MERGE|SHF_STRINGS,1
	0x430c404b		.Lstr.85
.rodata.str1.1	0x430c4056	0xa	C:\Users\nikol\projects\quectel\development\customer\threadx\workspace\apps\ml/libonnx.a(onnx.o)	#SHT_PROGBITS,SHF_ALLOC|SHF_MERGE|SHF_STRINGS,1
	0x430c4056		.Lstr.86
.rodata.str1.1	0x430c4060	0x8	C:\Users\nikol\projects\quectel\development\customer\threadx\workspace\apps\ml/libonnx.a(onnx.o)	#SHT_PROGBITS,SHF_ALLOC|SHF_MERGE|SHF_STRINGS,1
	0x430c4060		.Lstr.87
.rodata.str1.1	0x430c4068	0xa	C:\Users\nikol\projects\quectel\development\customer\threadx\workspace\apps\ml/libonnx.a(onnx.o)	#SHT_PROGBITS,SHF_ALLOC|SHF_MERGE|SHF_STRINGS,1
	0x430c4068		.Lstr.88
PADDING_ALIGNMENT	0x430c4072	0x2	0x0
.rodata	0x430c4074	0x88	C:\Users\nikol\projects\quectel\development\customer\threadx\workspace\apps\ml/libonnx.a(onnx.o)	#SHT_PROGBITS,SHF_ALLOC,4
	0x430c4074		onnx_tensor_type_tostring.typestr
	0x430c40b8		onnx_tensor_type_sizeof.typesz
PADDING_ALIGNMENT	0x430c40fc	0x4	0x0
.rodata	0x430c4100	0x1e78	C:\Users\nikol\projects\quectel\development\customer\threadx\workspace\apps\ml/libonnx.a(onnx.proto3.pb-c.o)	#SHT_PROGBITS,SHF_ALLOC,8
	0x430c4100		onnx__attribute_proto__init.init_value
	0x430c4170		onnx__attribute_proto__descriptor
	0x430c41ac		onnx__value_info_proto__init.init_value
	0x430c41c4		onnx__value_info_proto__descriptor
	0x430c4200		onnx__node_proto__init.init_value
	0x430c4234		onnx__node_proto__descriptor
	0x430c4270		onnx__training_info_proto__init.init_value
	0x430c4294		onnx__training_info_proto__descriptor
	0x430c42d0		onnx__model_proto__init.init_value
	0x430c4320		onnx__model_proto__descriptor
	0x430c435c		onnx__string_string_entry_proto__init.init_value
	0x430c4370		onnx__string_string_entry_proto__descriptor
	0x430c43ac		onnx__tensor_annotation__init.init_value
	0x430c43c4		onnx__tensor_annotation__descriptor
	0x430c4400		onnx__graph_proto__init.init_value
	0x430c444c		onnx__graph_proto__descriptor
	0x430c4488		onnx__tensor_proto__segment__init.init_value
	0x430c44a8		onnx__tensor_proto__segment__descriptor
	0x430c44e4		onnx__tensor_proto__init.init_value
	0x430c454c		onnx__tensor_proto__descriptor
	0x430c4588		onnx__sparse_tensor_proto__init.init_value
	0x430c45a4		onnx__sparse_tensor_proto__descriptor
	0x430c45e0		onnx__tensor_shape_proto__dimension__init.init_value
	0x430c4600		onnx__tensor_shape_proto__dimension__descriptor
	0x430c463c		onnx__tensor_shape_proto__init.init_value
	0x430c4650		onnx__tensor_shape_proto__descriptor
	0x430c468c		onnx__type_proto__tensor__init.init_value
	0x430c46a0		onnx__type_proto__tensor__descriptor
	0x430c46dc		onnx__type_proto__sequence__init.init_value
	0x430c46ec		onnx__type_proto__sequence__descriptor
	0x430c4728		onnx__type_proto__map__init.init_value
	0x430c473c		onnx__type_proto__map__descriptor
	0x430c4778		onnx__type_proto__init.init_value
	0x430c4790		onnx__type_proto__descriptor
	0x430c47d0		onnx__operator_set_id_proto__init.init_value
	0x430c47e8		onnx__operator_set_id_proto__descriptor
	0x430c4824		onnx__attribute_proto__attribute_type__enum_values_by_number
	0x430c48c0		onnx__attribute_proto__attribute_type__enum_values_by_name
	0x430c4928		onnx__attribute_proto__attribute_type__value_ranges
	0x430c4938		onnx__attribute_proto__attribute_type__descriptor
	0x430c4974		onnx__attribute_proto__field_descriptors
	0x430c4c74		onnx__attribute_proto__field_indices_by_name
	0x430c4cb4		onnx__attribute_proto__number_ranges
	0x430c4cd4		onnx__value_info_proto__field_descriptors
	0x430c4d64		onnx__value_info_proto__field_indices_by_name
	0x430c4d70		onnx__value_info_proto__number_ranges
	0x430c4d80		onnx__node_proto__field_descriptors
	0x430c4ed0		onnx__node_proto__field_indices_by_name
	0x430c4eec		onnx__node_proto__number_ranges
	0x430c4efc		onnx__training_info_proto__field_descriptors
	0x430c4fbc		onnx__training_info_proto__field_indices_by_name
	0x430c4fcc		onnx__training_info_proto__number_ranges
	0x430c4fdc		onnx__model_proto__field_descriptors
	0x430c51bc		onnx__model_proto__field_indices_by_name
	0x430c51e4		onnx__model_proto__number_ranges
	0x430c5204		onnx__string_string_entry_proto__field_descriptors
	0x430c5264		onnx__string_string_entry_proto__field_indices_by_name
	0x430c526c		onnx__string_string_entry_proto__number_ranges
	0x430c527c		onnx__tensor_annotation__field_descriptors
	0x430c52dc		onnx__tensor_annotation__field_indices_by_name
	0x430c52e4		onnx__tensor_annotation__number_ranges
	0x430c52f4		onnx__graph_proto__field_descriptors
	0x430c54a4		onnx__graph_proto__field_indices_by_name
	0x430c54c8		onnx__graph_proto__number_ranges
	0x430c54e8		onnx__tensor_proto__segment__field_descriptors
	0x430c5548		onnx__tensor_proto__segment__field_indices_by_name
	0x430c5550		onnx__tensor_proto__segment__number_ranges
	0x430c5560		onnx__tensor_proto__data_type__enum_values_by_number
	0x430c562c		onnx__tensor_proto__data_type__enum_values_by_name
	0x430c56b4		onnx__tensor_proto__data_type__value_ranges
	0x430c56c4		onnx__tensor_proto__data_type__descriptor
	0x430c5700		onnx__tensor_proto__data_location__enum_values_by_number
	0x430c5718		onnx__tensor_proto__data_location__enum_values_by_name
	0x430c5728		onnx__tensor_proto__data_location__value_ranges
	0x430c5738		onnx__tensor_proto__data_location__descriptor
	0x430c5774		onnx__tensor_proto__field_descriptors
	0x430c5a14		onnx__tensor_proto__field_indices_by_name
	0x430c5a4c		onnx__tensor_proto__number_ranges
	0x430c5a5c		onnx__sparse_tensor_proto__field_descriptors
	0x430c5aec		onnx__sparse_tensor_proto__field_indices_by_name
	0x430c5af8		onnx__sparse_tensor_proto__number_ranges
	0x430c5b08		onnx__tensor_shape_proto__dimension__field_descriptors
	0x430c5b98		onnx__tensor_shape_proto__dimension__field_indices_by_name
	0x430c5ba4		onnx__tensor_shape_proto__dimension__number_ranges
	0x430c5bb4		onnx__tensor_shape_proto__field_descriptors
	0x430c5be4		onnx__tensor_shape_proto__field_indices_by_name
	0x430c5be8		onnx__tensor_shape_proto__number_ranges
	0x430c5bf8		onnx__type_proto__tensor__field_descriptors
	0x430c5c58		onnx__type_proto__tensor__field_indices_by_name
	0x430c5c60		onnx__type_proto__tensor__number_ranges
	0x430c5c70		onnx__type_proto__sequence__field_descriptors
	0x430c5ca0		onnx__type_proto__sequence__field_indices_by_name
	0x430c5ca4		onnx__type_proto__sequence__number_ranges
	0x430c5cb4		onnx__type_proto__map__field_descriptors
	0x430c5d14		onnx__type_proto__map__field_indices_by_name
	0x430c5d1c		onnx__type_proto__map__number_ranges
	0x430c5d2c		onnx__type_proto__field_descriptors
	0x430c5dec		onnx__type_proto__field_indices_by_name
	0x430c5dfc		onnx__type_proto__number_ranges
	0x430c5e14		onnx__operator_set_id_proto__field_descriptors
	0x430c5e74		onnx__operator_set_id_proto__field_indices_by_name
	0x430c5e7c		onnx__operator_set_id_proto__number_ranges
	0x430c5e8c		onnx__version__enum_values_by_number
	0x430c5eec		onnx__version__enum_values_by_name
	0x430c5f2c		onnx__version__value_ranges
	0x430c5f3c		onnx__version__descriptor
.rodata.str1.1	0x430c5f78	0x3f	C:\Users\nikol\projects\quectel\development\customer\threadx\workspace\apps\ml/libonnx.a(onnx.proto3.pb-c.o)	#SHT_PROGBITS,SHF_ALLOC|SHF_MERGE|SHF_STRINGS,1
	0x430c5f78		.L.str
.rodata.str1.1	0x430c5fb7	0x13	C:\Users\nikol\projects\quectel\development\customer\threadx\workspace\apps\ml/libonnx.a(onnx.proto3.pb-c.o)	#SHT_PROGBITS,SHF_ALLOC|SHF_MERGE|SHF_STRINGS,1
	0x430c5fb7		.L.str.1
.rodata.str1.1	0x430c5fca	0x27	C:\Users\nikol\projects\quectel\development\customer\threadx\workspace\apps\ml/libonnx.a(onnx.proto3.pb-c.o)	#SHT_PROGBITS,SHF_ALLOC|SHF_MERGE|SHF_STRINGS,1
	0x430c5fca		.L__func__.onnx__attribute_proto__get_packed_size
.rodata.str1.1	0x430c5ff1	0x1c	C:\Users\nikol\projects\quectel\development\customer\threadx\workspace\apps\ml/libonnx.a(onnx.proto3.pb-c.o)	#SHT_PROGBITS,SHF_ALLOC|SHF_MERGE|SHF_STRINGS,1
	0x430c5ff1		.L__func__.onnx__attribute_proto__pack
.rodata.str1.1	0x430c600d	0x26	C:\Users\nikol\projects\quectel\development\customer\threadx\workspace\apps\ml/libonnx.a(onnx.proto3.pb-c.o)	#SHT_PROGBITS,SHF_ALLOC|SHF_MERGE|SHF_STRINGS,1
	0x430c600d		.L__func__.onnx__attribute_proto__pack_to_buffer
.rodata.str1.1	0x430c6033	0x25	C:\Users\nikol\projects\quectel\development\customer\threadx\workspace\apps\ml/libonnx.a(onnx.proto3.pb-c.o)	#SHT_PROGBITS,SHF_ALLOC|SHF_MERGE|SHF_STRINGS,1
	0x430c6033		.L__func__.onnx__attribute_proto__free_unpacked
.rodata.str1.1	0x430c6058	0x40	C:\Users\nikol\projects\quectel\development\customer\threadx\workspace\apps\ml/libonnx.a(onnx.proto3.pb-c.o)	#SHT_PROGBITS,SHF_ALLOC|SHF_MERGE|SHF_STRINGS,1
	0x430c6058		.L.str.2
.rodata.str1.1	0x430c6098	0x28	C:\Users\nikol\projects\quectel\development\customer\threadx\workspace\apps\ml/libonnx.a(onnx.proto3.pb-c.o)	#SHT_PROGBITS,SHF_ALLOC|SHF_MERGE|SHF_STRINGS,1
	0x430c6098		.L__func__.onnx__value_info_proto__get_packed_size
.rodata.str1.1	0x430c60c0	0x1d	C:\Users\nikol\projects\quectel\development\customer\threadx\workspace\apps\ml/libonnx.a(onnx.proto3.pb-c.o)	#SHT_PROGBITS,SHF_ALLOC|SHF_MERGE|SHF_STRINGS,1
	0x430c60c0		.L__func__.onnx__value_info_proto__pack
.rodata.str1.1	0x430c60dd	0x27	C:\Users\nikol\projects\quectel\development\customer\threadx\workspace\apps\ml/libonnx.a(onnx.proto3.pb-c.o)	#SHT_PROGBITS,SHF_ALLOC|SHF_MERGE|SHF_STRINGS,1
	0x430c60dd		.L__func__.onnx__value_info_proto__pack_to_buffer
.rodata.str1.1	0x430c6104	0x26	C:\Users\nikol\projects\quectel\development\customer\threadx\workspace\apps\ml/libonnx.a(onnx.proto3.pb-c.o)	#SHT_PROGBITS,SHF_ALLOC|SHF_MERGE|SHF_STRINGS,1
	0x430c6104		.L__func__.onnx__value_info_proto__free_unpacked
.rodata.str1.1	0x430c612a	0x3a	C:\Users\nikol\projects\quectel\development\customer\threadx\workspace\apps\ml/libonnx.a(onnx.proto3.pb-c.o)	#SHT_PROGBITS,SHF_ALLOC|SHF_MERGE|SHF_STRINGS,1
	0x430c612a		.L.str.3
.rodata.str1.1	0x430c6164	0x22	C:\Users\nikol\projects\quectel\development\customer\threadx\workspace\apps\ml/libonnx.a(onnx.proto3.pb-c.o)	#SHT_PROGBITS,SHF_ALLOC|SHF_MERGE|SHF_STRINGS,1
	0x430c6164		.L__func__.onnx__node_proto__get_packed_size
.rodata.str1.1	0x430c6186	0x17	C:\Users\nikol\projects\quectel\development\customer\threadx\workspace\apps\ml/libonnx.a(onnx.proto3.pb-c.o)	#SHT_PROGBITS,SHF_ALLOC|SHF_MERGE|SHF_STRINGS,1
	0x430c6186		.L__func__.onnx__node_proto__pack
.rodata.str1.1	0x430c619d	0x21	C:\Users\nikol\projects\quectel\development\customer\threadx\workspace\apps\ml/libonnx.a(onnx.proto3.pb-c.o)	#SHT_PROGBITS,SHF_ALLOC|SHF_MERGE|SHF_STRINGS,1
	0x430c619d		.L__func__.onnx__node_proto__pack_to_buffer
.rodata.str1.1	0x430c61be	0x20	C:\Users\nikol\projects\quectel\development\customer\threadx\workspace\apps\ml/libonnx.a(onnx.proto3.pb-c.o)	#SHT_PROGBITS,SHF_ALLOC|SHF_MERGE|SHF_STRINGS,1
	0x430c61be		.L__func__.onnx__node_proto__free_unpacked
.rodata.str1.1	0x430c61de	0x43	C:\Users\nikol\projects\quectel\development\customer\threadx\workspace\apps\ml/libonnx.a(onnx.proto3.pb-c.o)	#SHT_PROGBITS,SHF_ALLOC|SHF_MERGE|SHF_STRINGS,1
	0x430c61de		.L.str.4
.rodata.str1.1	0x430c6221	0x2b	C:\Users\nikol\projects\quectel\development\customer\threadx\workspace\apps\ml/libonnx.a(onnx.proto3.pb-c.o)	#SHT_PROGBITS,SHF_ALLOC|SHF_MERGE|SHF_STRINGS,1
	0x430c6221		.L__func__.onnx__training_info_proto__get_packed_size
.rodata.str1.1	0x430c624c	0x20	C:\Users\nikol\projects\quectel\development\customer\threadx\workspace\apps\ml/libonnx.a(onnx.proto3.pb-c.o)	#SHT_PROGBITS,SHF_ALLOC|SHF_MERGE|SHF_STRINGS,1
	0x430c624c		.L__func__.onnx__training_info_proto__pack
.rodata.str1.1	0x430c626c	0x2a	C:\Users\nikol\projects\quectel\development\customer\threadx\workspace\apps\ml/libonnx.a(onnx.proto3.pb-c.o)	#SHT_PROGBITS,SHF_ALLOC|SHF_MERGE|SHF_STRINGS,1
	0x430c626c		.L__func__.onnx__training_info_proto__pack_to_buffer
.rodata.str1.1	0x430c6296	0x29	C:\Users\nikol\projects\quectel\development\customer\threadx\workspace\apps\ml/libonnx.a(onnx.proto3.pb-c.o)	#SHT_PROGBITS,SHF_ALLOC|SHF_MERGE|SHF_STRINGS,1
	0x430c6296		.L__func__.onnx__training_info_proto__free_unpacked
.rodata.str1.1	0x430c62bf	0x3b	C:\Users\nikol\projects\quectel\development\customer\threadx\workspace\apps\ml/libonnx.a(onnx.proto3.pb-c.o)	#SHT_PROGBITS,SHF_ALLOC|SHF_MERGE|SHF_STRINGS,1
	0x430c62bf		.L.str.5
.rodata.str1.1	0x430c62fa	0x23	C:\Users\nikol\projects\quectel\development\customer\threadx\workspace\apps\ml/libonnx.a(onnx.proto3.pb-c.o)	#SHT_PROGBITS,SHF_ALLOC|SHF_MERGE|SHF_STRINGS,1
	0x430c62fa		.L__func__.onnx__model_proto__get_packed_size
.rodata.str1.1	0x430c631d	0x18	C:\Users\nikol\projects\quectel\development\customer\threadx\workspace\apps\ml/libonnx.a(onnx.proto3.pb-c.o)	#SHT_PROGBITS,SHF_ALLOC|SHF_MERGE|SHF_STRINGS,1
	0x430c631d		.L__func__.onnx__model_proto__pack
.rodata.str1.1	0x430c6335	0x22	C:\Users\nikol\projects\quectel\development\customer\threadx\workspace\apps\ml/libonnx.a(onnx.proto3.pb-c.o)	#SHT_PROGBITS,SHF_ALLOC|SHF_MERGE|SHF_STRINGS,1
	0x430c6335		.L__func__.onnx__model_proto__pack_to_buffer
.rodata.str1.1	0x430c6357	0x21	C:\Users\nikol\projects\quectel\development\customer\threadx\workspace\apps\ml/libonnx.a(onnx.proto3.pb-c.o)	#SHT_PROGBITS,SHF_ALLOC|SHF_MERGE|SHF_STRINGS,1
	0x430c6357		.L__func__.onnx__model_proto__free_unpacked
.rodata.str1.1	0x430c6378	0x49	C:\Users\nikol\projects\quectel\development\customer\threadx\workspace\apps\ml/libonnx.a(onnx.proto3.pb-c.o)	#SHT_PROGBITS,SHF_ALLOC|SHF_MERGE|SHF_STRINGS,1
	0x430c6378		.L.str.6
.rodata.str1.1	0x430c63c1	0x31	C:\Users\nikol\projects\quectel\development\customer\threadx\workspace\apps\ml/libonnx.a(onnx.proto3.pb-c.o)	#SHT_PROGBITS,SHF_ALLOC|SHF_MERGE|SHF_STRINGS,1
	0x430c63c1		.L__func__.onnx__string_string_entry_proto__get_packed_size
.rodata.str1.1	0x430c63f2	0x26	C:\Users\nikol\projects\quectel\development\customer\threadx\workspace\apps\ml/libonnx.a(onnx.proto3.pb-c.o)	#SHT_PROGBITS,SHF_ALLOC|SHF_MERGE|SHF_STRINGS,1
	0x430c63f2		.L__func__.onnx__string_string_entry_proto__pack
.rodata.str1.1	0x430c6418	0x30	C:\Users\nikol\projects\quectel\development\customer\threadx\workspace\apps\ml/libonnx.a(onnx.proto3.pb-c.o)	#SHT_PROGBITS,SHF_ALLOC|SHF_MERGE|SHF_STRINGS,1
	0x430c6418		.L__func__.onnx__string_string_entry_proto__pack_to_buffer
.rodata.str1.1	0x430c6448	0x2f	C:\Users\nikol\projects\quectel\development\customer\threadx\workspace\apps\ml/libonnx.a(onnx.proto3.pb-c.o)	#SHT_PROGBITS,SHF_ALLOC|SHF_MERGE|SHF_STRINGS,1
	0x430c6448		.L__func__.onnx__string_string_entry_proto__free_unpacked
.rodata.str1.1	0x430c6477	0x41	C:\Users\nikol\projects\quectel\development\customer\threadx\workspace\apps\ml/libonnx.a(onnx.proto3.pb-c.o)	#SHT_PROGBITS,SHF_ALLOC|SHF_MERGE|SHF_STRINGS,1
	0x430c6477		.L.str.7
.rodata.str1.1	0x430c64b8	0x29	C:\Users\nikol\projects\quectel\development\customer\threadx\workspace\apps\ml/libonnx.a(onnx.proto3.pb-c.o)	#SHT_PROGBITS,SHF_ALLOC|SHF_MERGE|SHF_STRINGS,1
	0x430c64b8		.L__func__.onnx__tensor_annotation__get_packed_size
.rodata.str1.1	0x430c64e1	0x1e	C:\Users\nikol\projects\quectel\development\customer\threadx\workspace\apps\ml/libonnx.a(onnx.proto3.pb-c.o)	#SHT_PROGBITS,SHF_ALLOC|SHF_MERGE|SHF_STRINGS,1
	0x430c64e1		.L__func__.onnx__tensor_annotation__pack
.rodata.str1.1	0x430c64ff	0x28	C:\Users\nikol\projects\quectel\development\customer\threadx\workspace\apps\ml/libonnx.a(onnx.proto3.pb-c.o)	#SHT_PROGBITS,SHF_ALLOC|SHF_MERGE|SHF_STRINGS,1
	0x430c64ff		.L__func__.onnx__tensor_annotation__pack_to_buffer
.rodata.str1.1	0x430c6527	0x27	C:\Users\nikol\projects\quectel\development\customer\threadx\workspace\apps\ml/libonnx.a(onnx.proto3.pb-c.o)	#SHT_PROGBITS,SHF_ALLOC|SHF_MERGE|SHF_STRINGS,1
	0x430c6527		.L__func__.onnx__tensor_annotation__free_unpacked
.rodata.str1.1	0x430c654e	0x3b	C:\Users\nikol\projects\quectel\development\customer\threadx\workspace\apps\ml/libonnx.a(onnx.proto3.pb-c.o)	#SHT_PROGBITS,SHF_ALLOC|SHF_MERGE|SHF_STRINGS,1
	0x430c654e		.L.str.8
.rodata.str1.1	0x430c6589	0x23	C:\Users\nikol\projects\quectel\development\customer\threadx\workspace\apps\ml/libonnx.a(onnx.proto3.pb-c.o)	#SHT_PROGBITS,SHF_ALLOC|SHF_MERGE|SHF_STRINGS,1
	0x430c6589		.L__func__.onnx__graph_proto__get_packed_size
.rodata.str1.1	0x430c65ac	0x18	C:\Users\nikol\projects\quectel\development\customer\threadx\workspace\apps\ml/libonnx.a(onnx.proto3.pb-c.o)	#SHT_PROGBITS,SHF_ALLOC|SHF_MERGE|SHF_STRINGS,1
	0x430c65ac		.L__func__.onnx__graph_proto__pack
.rodata.str1.1	0x430c65c4	0x22	C:\Users\nikol\projects\quectel\development\customer\threadx\workspace\apps\ml/libonnx.a(onnx.proto3.pb-c.o)	#SHT_PROGBITS,SHF_ALLOC|SHF_MERGE|SHF_STRINGS,1
	0x430c65c4		.L__func__.onnx__graph_proto__pack_to_buffer
.rodata.str1.1	0x430c65e6	0x21	C:\Users\nikol\projects\quectel\development\customer\threadx\workspace\apps\ml/libonnx.a(onnx.proto3.pb-c.o)	#SHT_PROGBITS,SHF_ALLOC|SHF_MERGE|SHF_STRINGS,1
	0x430c65e6		.L__func__.onnx__graph_proto__free_unpacked
.rodata.str1.1	0x430c6607	0x3c	C:\Users\nikol\projects\quectel\development\customer\threadx\workspace\apps\ml/libonnx.a(onnx.proto3.pb-c.o)	#SHT_PROGBITS,SHF_ALLOC|SHF_MERGE|SHF_STRINGS,1
	0x430c6607		.L.str.9
.rodata.str1.1	0x430c6643	0x24	C:\Users\nikol\projects\quectel\development\customer\threadx\workspace\apps\ml/libonnx.a(onnx.proto3.pb-c.o)	#SHT_PROGBITS,SHF_ALLOC|SHF_MERGE|SHF_STRINGS,1
	0x430c6643		.L__func__.onnx__tensor_proto__get_packed_size
.rodata.str1.1	0x430c6667	0x19	C:\Users\nikol\projects\quectel\development\customer\threadx\workspace\apps\ml/libonnx.a(onnx.proto3.pb-c.o)	#SHT_PROGBITS,SHF_ALLOC|SHF_MERGE|SHF_STRINGS,1
	0x430c6667		.L__func__.onnx__tensor_proto__pack
.rodata.str1.1	0x430c6680	0x23	C:\Users\nikol\projects\quectel\development\customer\threadx\workspace\apps\ml/libonnx.a(onnx.proto3.pb-c.o)	#SHT_PROGBITS,SHF_ALLOC|SHF_MERGE|SHF_STRINGS,1
	0x430c6680		.L__func__.onnx__tensor_proto__pack_to_buffer
.rodata.str1.1	0x430c66a3	0x22	C:\Users\nikol\projects\quectel\development\customer\threadx\workspace\apps\ml/libonnx.a(onnx.proto3.pb-c.o)	#SHT_PROGBITS,SHF_ALLOC|SHF_MERGE|SHF_STRINGS,1
	0x430c66a3		.L__func__.onnx__tensor_proto__free_unpacked
.rodata.str1.1	0x430c66c5	0x43	C:\Users\nikol\projects\quectel\development\customer\threadx\workspace\apps\ml/libonnx.a(onnx.proto3.pb-c.o)	#SHT_PROGBITS,SHF_ALLOC|SHF_MERGE|SHF_STRINGS,1
	0x430c66c5		.L.str.10
.rodata.str1.1	0x430c6708	0x2b	C:\Users\nikol\projects\quectel\development\customer\threadx\workspace\apps\ml/libonnx.a(onnx.proto3.pb-c.o)	#SHT_PROGBITS,SHF_ALLOC|SHF_MERGE|SHF_STRINGS,1
	0x430c6708		.L__func__.onnx__sparse_tensor_proto__get_packed_size
.rodata.str1.1	0x430c6733	0x20	C:\Users\nikol\projects\quectel\development\customer\threadx\workspace\apps\ml/libonnx.a(onnx.proto3.pb-c.o)	#SHT_PROGBITS,SHF_ALLOC|SHF_MERGE|SHF_STRINGS,1
	0x430c6733		.L__func__.onnx__sparse_tensor_proto__pack
.rodata.str1.1	0x430c6753	0x2a	C:\Users\nikol\projects\quectel\development\customer\threadx\workspace\apps\ml/libonnx.a(onnx.proto3.pb-c.o)	#SHT_PROGBITS,SHF_ALLOC|SHF_MERGE|SHF_STRINGS,1
	0x430c6753		.L__func__.onnx__sparse_tensor_proto__pack_to_buffer
.rodata.str1.1	0x430c677d	0x29	C:\Users\nikol\projects\quectel\development\customer\threadx\workspace\apps\ml/libonnx.a(onnx.proto3.pb-c.o)	#SHT_PROGBITS,SHF_ALLOC|SHF_MERGE|SHF_STRINGS,1
	0x430c677d		.L__func__.onnx__sparse_tensor_proto__free_unpacked
.rodata.str1.1	0x430c67a6	0x42	C:\Users\nikol\projects\quectel\development\customer\threadx\workspace\apps\ml/libonnx.a(onnx.proto3.pb-c.o)	#SHT_PROGBITS,SHF_ALLOC|SHF_MERGE|SHF_STRINGS,1
	0x430c67a6		.L.str.11
.rodata.str1.1	0x430c67e8	0x2a	C:\Users\nikol\projects\quectel\development\customer\threadx\workspace\apps\ml/libonnx.a(onnx.proto3.pb-c.o)	#SHT_PROGBITS,SHF_ALLOC|SHF_MERGE|SHF_STRINGS,1
	0x430c67e8		.L__func__.onnx__tensor_shape_proto__get_packed_size
.rodata.str1.1	0x430c6812	0x1f	C:\Users\nikol\projects\quectel\development\customer\threadx\workspace\apps\ml/libonnx.a(onnx.proto3.pb-c.o)	#SHT_PROGBITS,SHF_ALLOC|SHF_MERGE|SHF_STRINGS,1
	0x430c6812		.L__func__.onnx__tensor_shape_proto__pack
.rodata.str1.1	0x430c6831	0x29	C:\Users\nikol\projects\quectel\development\customer\threadx\workspace\apps\ml/libonnx.a(onnx.proto3.pb-c.o)	#SHT_PROGBITS,SHF_ALLOC|SHF_MERGE|SHF_STRINGS,1
	0x430c6831		.L__func__.onnx__tensor_shape_proto__pack_to_buffer
.rodata.str1.1	0x430c685a	0x28	C:\Users\nikol\projects\quectel\development\customer\threadx\workspace\apps\ml/libonnx.a(onnx.proto3.pb-c.o)	#SHT_PROGBITS,SHF_ALLOC|SHF_MERGE|SHF_STRINGS,1
	0x430c685a		.L__func__.onnx__tensor_shape_proto__free_unpacked
.rodata.str1.1	0x430c6882	0x3a	C:\Users\nikol\projects\quectel\development\customer\threadx\workspace\apps\ml/libonnx.a(onnx.proto3.pb-c.o)	#SHT_PROGBITS,SHF_ALLOC|SHF_MERGE|SHF_STRINGS,1
	0x430c6882		.L.str.12
.rodata.str1.1	0x430c68bc	0x22	C:\Users\nikol\projects\quectel\development\customer\threadx\workspace\apps\ml/libonnx.a(onnx.proto3.pb-c.o)	#SHT_PROGBITS,SHF_ALLOC|SHF_MERGE|SHF_STRINGS,1
	0x430c68bc		.L__func__.onnx__type_proto__get_packed_size
.rodata.str1.1	0x430c68de	0x17	C:\Users\nikol\projects\quectel\development\customer\threadx\workspace\apps\ml/libonnx.a(onnx.proto3.pb-c.o)	#SHT_PROGBITS,SHF_ALLOC|SHF_MERGE|SHF_STRINGS,1
	0x430c68de		.L__func__.onnx__type_proto__pack
.rodata.str1.1	0x430c68f5	0x21	C:\Users\nikol\projects\quectel\development\customer\threadx\workspace\apps\ml/libonnx.a(onnx.proto3.pb-c.o)	#SHT_PROGBITS,SHF_ALLOC|SHF_MERGE|SHF_STRINGS,1
	0x430c68f5		.L__func__.onnx__type_proto__pack_to_buffer
.rodata.str1.1	0x430c6916	0x20	C:\Users\nikol\projects\quectel\development\customer\threadx\workspace\apps\ml/libonnx.a(onnx.proto3.pb-c.o)	#SHT_PROGBITS,SHF_ALLOC|SHF_MERGE|SHF_STRINGS,1
	0x430c6916		.L__func__.onnx__type_proto__free_unpacked
.rodata.str1.1	0x430c6936	0x45	C:\Users\nikol\projects\quectel\development\customer\threadx\workspace\apps\ml/libonnx.a(onnx.proto3.pb-c.o)	#SHT_PROGBITS,SHF_ALLOC|SHF_MERGE|SHF_STRINGS,1
	0x430c6936		.L.str.13
.rodata.str1.1	0x430c697b	0x2d	C:\Users\nikol\projects\quectel\development\customer\threadx\workspace\apps\ml/libonnx.a(onnx.proto3.pb-c.o)	#SHT_PROGBITS,SHF_ALLOC|SHF_MERGE|SHF_STRINGS,1
	0x430c697b		.L__func__.onnx__operator_set_id_proto__get_packed_size
.rodata.str1.1	0x430c69a8	0x22	C:\Users\nikol\projects\quectel\development\customer\threadx\workspace\apps\ml/libonnx.a(onnx.proto3.pb-c.o)	#SHT_PROGBITS,SHF_ALLOC|SHF_MERGE|SHF_STRINGS,1
	0x430c69a8		.L__func__.onnx__operator_set_id_proto__pack
.rodata.str1.1	0x430c69ca	0x2c	C:\Users\nikol\projects\quectel\development\customer\threadx\workspace\apps\ml/libonnx.a(onnx.proto3.pb-c.o)	#SHT_PROGBITS,SHF_ALLOC|SHF_MERGE|SHF_STRINGS,1
	0x430c69ca		.L__func__.onnx__operator_set_id_proto__pack_to_buffer
.rodata.str1.1	0x430c69f6	0x2b	C:\Users\nikol\projects\quectel\development\customer\threadx\workspace\apps\ml/libonnx.a(onnx.proto3.pb-c.o)	#SHT_PROGBITS,SHF_ALLOC|SHF_MERGE|SHF_STRINGS,1
	0x430c69f6		.L__func__.onnx__operator_set_id_proto__free_unpacked
.rodata.str1.1	0x430c6a21	0x22	C:\Users\nikol\projects\quectel\development\customer\threadx\workspace\apps\ml/libonnx.a(onnx.proto3.pb-c.o)	#SHT_PROGBITS,SHF_ALLOC|SHF_MERGE|SHF_STRINGS,1
	0x430c6a21		.L.str.14
.rodata.str1.1	0x430c6a43	0xe	C:\Users\nikol\projects\quectel\development\customer\threadx\workspace\apps\ml/libonnx.a(onnx.proto3.pb-c.o)	#SHT_PROGBITS,SHF_ALLOC|SHF_MERGE|SHF_STRINGS,1
	0x430c6a43		.L.str.15
.rodata.str1.1	0x430c6a51	0x24	C:\Users\nikol\projects\quectel\development\customer\threadx\workspace\apps\ml/libonnx.a(onnx.proto3.pb-c.o)	#SHT_PROGBITS,SHF_ALLOC|SHF_MERGE|SHF_STRINGS,1
	0x430c6a51		.L.str.16
.rodata.str1.1	0x430c6a75	0x5	C:\Users\nikol\projects\quectel\development\customer\threadx\workspace\apps\ml/libonnx.a(onnx.proto3.pb-c.o)	#SHT_PROGBITS,SHF_ALLOC|SHF_MERGE|SHF_STRINGS,1
	0x430c6a75		.L.str.17
.rodata.str1.1	0x430c6a7a	0x14	C:\Users\nikol\projects\quectel\development\customer\threadx\workspace\apps\ml/libonnx.a(onnx.proto3.pb-c.o)	#SHT_PROGBITS,SHF_ALLOC|SHF_MERGE|SHF_STRINGS,1
	0x430c6a7a		.L.str.18
.rodata.str1.1	0x430c6a8e	0xf	C:\Users\nikol\projects\quectel\development\customer\threadx\workspace\apps\ml/libonnx.a(onnx.proto3.pb-c.o)	#SHT_PROGBITS,SHF_ALLOC|SHF_MERGE|SHF_STRINGS,1
	0x430c6a8e		.L.str.19
.rodata.str1.1	0x430c6a9d	0x15	C:\Users\nikol\projects\quectel\development\customer\threadx\workspace\apps\ml/libonnx.a(onnx.proto3.pb-c.o)	#SHT_PROGBITS,SHF_ALLOC|SHF_MERGE|SHF_STRINGS,1
	0x430c6a9d		.L.str.20
.rodata.str1.1	0x430c6ab2	0x14	C:\Users\nikol\projects\quectel\development\customer\threadx\workspace\apps\ml/libonnx.a(onnx.proto3.pb-c.o)	#SHT_PROGBITS,SHF_ALLOC|SHF_MERGE|SHF_STRINGS,1
	0x430c6ab2		.L.str.21
.rodata.str1.1	0x430c6ac6	0xf	C:\Users\nikol\projects\quectel\development\customer\threadx\workspace\apps\ml/libonnx.a(onnx.proto3.pb-c.o)	#SHT_PROGBITS,SHF_ALLOC|SHF_MERGE|SHF_STRINGS,1
	0x430c6ac6		.L.str.22
.rodata.str1.1	0x430c6ad5	0x15	C:\Users\nikol\projects\quectel\development\customer\threadx\workspace\apps\ml/libonnx.a(onnx.proto3.pb-c.o)	#SHT_PROGBITS,SHF_ALLOC|SHF_MERGE|SHF_STRINGS,1
	0x430c6ad5		.L.str.23
.rodata.str1.1	0x430c6aea	0xf	C:\Users\nikol\projects\quectel\development\customer\threadx\workspace\apps\ml/libonnx.a(onnx.proto3.pb-c.o)	#SHT_PROGBITS,SHF_ALLOC|SHF_MERGE|SHF_STRINGS,1
	0x430c6aea		.L.str.24
.rodata.str1.1	0x430c6af9	0xa	C:\Users\nikol\projects\quectel\development\customer\threadx\workspace\apps\ml/libonnx.a(onnx.proto3.pb-c.o)	#SHT_PROGBITS,SHF_ALLOC|SHF_MERGE|SHF_STRINGS,1
	0x430c6af9		.L.str.25
.rodata.str1.1	0x430c6b03	0x10	C:\Users\nikol\projects\quectel\development\customer\threadx\workspace\apps\ml/libonnx.a(onnx.proto3.pb-c.o)	#SHT_PROGBITS,SHF_ALLOC|SHF_MERGE|SHF_STRINGS,1
	0x430c6b03		.L.str.26
.rodata.str1.1	0x430c6b13	0x17	C:\Users\nikol\projects\quectel\development\customer\threadx\workspace\apps\ml/libonnx.a(onnx.proto3.pb-c.o)	#SHT_PROGBITS,SHF_ALLOC|SHF_MERGE|SHF_STRINGS,1
	0x430c6b13		.L.str.27
.rodata.str1.1	0x430c6b2a	0x12	C:\Users\nikol\projects\quectel\development\customer\threadx\workspace\apps\ml/libonnx.a(onnx.proto3.pb-c.o)	#SHT_PROGBITS,SHF_ALLOC|SHF_MERGE|SHF_STRINGS,1
	0x430c6b2a		.L.str.28
.rodata.str1.1	0x430c6b3c	0x18	C:\Users\nikol\projects\quectel\development\customer\threadx\workspace\apps\ml/libonnx.a(onnx.proto3.pb-c.o)	#SHT_PROGBITS,SHF_ALLOC|SHF_MERGE|SHF_STRINGS,1
	0x430c6b3c		.L.str.29
.rodata.str1.1	0x430c6b54	0x10	C:\Users\nikol\projects\quectel\development\customer\threadx\workspace\apps\ml/libonnx.a(onnx.proto3.pb-c.o)	#SHT_PROGBITS,SHF_ALLOC|SHF_MERGE|SHF_STRINGS,1
	0x430c6b54		.L.str.30
.rodata.str1.1	0x430c6b64	0xb	C:\Users\nikol\projects\quectel\development\customer\threadx\workspace\apps\ml/libonnx.a(onnx.proto3.pb-c.o)	#SHT_PROGBITS,SHF_ALLOC|SHF_MERGE|SHF_STRINGS,1
	0x430c6b64		.L.str.31
.rodata.str1.1	0x430c6b6f	0x11	C:\Users\nikol\projects\quectel\development\customer\threadx\workspace\apps\ml/libonnx.a(onnx.proto3.pb-c.o)	#SHT_PROGBITS,SHF_ALLOC|SHF_MERGE|SHF_STRINGS,1
	0x430c6b6f		.L.str.32
.rodata.str1.1	0x430c6b80	0x1c	C:\Users\nikol\projects\quectel\development\customer\threadx\workspace\apps\ml/libonnx.a(onnx.proto3.pb-c.o)	#SHT_PROGBITS,SHF_ALLOC|SHF_MERGE|SHF_STRINGS,1
	0x430c6b80		.L.str.33
.rodata.str1.1	0x430c6b9c	0x17	C:\Users\nikol\projects\quectel\development\customer\threadx\workspace\apps\ml/libonnx.a(onnx.proto3.pb-c.o)	#SHT_PROGBITS,SHF_ALLOC|SHF_MERGE|SHF_STRINGS,1
	0x430c6b9c		.L.str.34
.rodata.str1.1	0x430c6bb3	0x1d	C:\Users\nikol\projects\quectel\development\customer\threadx\workspace\apps\ml/libonnx.a(onnx.proto3.pb-c.o)	#SHT_PROGBITS,SHF_ALLOC|SHF_MERGE|SHF_STRINGS,1
	0x430c6bb3		.L.str.35
.rodata.str1.1	0x430c6bd0	0x16	C:\Users\nikol\projects\quectel\development\customer\threadx\workspace\apps\ml/libonnx.a(onnx.proto3.pb-c.o)	#SHT_PROGBITS,SHF_ALLOC|SHF_MERGE|SHF_STRINGS,1
	0x430c6bd0		.L.str.36
.rodata.str1.1	0x430c6be6	0x11	C:\Users\nikol\projects\quectel\development\customer\threadx\workspace\apps\ml/libonnx.a(onnx.proto3.pb-c.o)	#SHT_PROGBITS,SHF_ALLOC|SHF_MERGE|SHF_STRINGS,1
	0x430c6be6		.L.str.37
.rodata.str1.1	0x430c6bf7	0x17	C:\Users\nikol\projects\quectel\development\customer\threadx\workspace\apps\ml/libonnx.a(onnx.proto3.pb-c.o)	#SHT_PROGBITS,SHF_ALLOC|SHF_MERGE|SHF_STRINGS,1
	0x430c6bf7		.L.str.38
.rodata.str1.1	0x430c6c0e	0x10	C:\Users\nikol\projects\quectel\development\customer\threadx\workspace\apps\ml/libonnx.a(onnx.proto3.pb-c.o)	#SHT_PROGBITS,SHF_ALLOC|SHF_MERGE|SHF_STRINGS,1
	0x430c6c0e		.L.str.39
.rodata.str1.1	0x430c6c1e	0xb	C:\Users\nikol\projects\quectel\development\customer\threadx\workspace\apps\ml/libonnx.a(onnx.proto3.pb-c.o)	#SHT_PROGBITS,SHF_ALLOC|SHF_MERGE|SHF_STRINGS,1
	0x430c6c1e		.L.str.40
.rodata.str1.1	0x430c6c29	0x11	C:\Users\nikol\projects\quectel\development\customer\threadx\workspace\apps\ml/libonnx.a(onnx.proto3.pb-c.o)	#SHT_PROGBITS,SHF_ALLOC|SHF_MERGE|SHF_STRINGS,1
	0x430c6c29		.L.str.41
.rodata.str1.1	0x430c6c3a	0x19	C:\Users\nikol\projects\quectel\development\customer\threadx\workspace\apps\ml/libonnx.a(onnx.proto3.pb-c.o)	#SHT_PROGBITS,SHF_ALLOC|SHF_MERGE|SHF_STRINGS,1
	0x430c6c3a		.L.str.42
.rodata.str1.1	0x430c6c53	0x8	C:\Users\nikol\projects\quectel\development\customer\threadx\workspace\apps\ml/libonnx.a(onnx.proto3.pb-c.o)	#SHT_PROGBITS,SHF_ALLOC|SHF_MERGE|SHF_STRINGS,1
	0x430c6c53		.L.str.43
.rodata.str1.1	0x430c6c5b	0x1b	C:\Users\nikol\projects\quectel\development\customer\threadx\workspace\apps\ml/libonnx.a(onnx.proto3.pb-c.o)	#SHT_PROGBITS,SHF_ALLOC|SHF_MERGE|SHF_STRINGS,1
	0x430c6c5b		.L.str.44
.rodata.str1.1	0x430c6c76	0x1a	C:\Users\nikol\projects\quectel\development\customer\threadx\workspace\apps\ml/libonnx.a(onnx.proto3.pb-c.o)	#SHT_PROGBITS,SHF_ALLOC|SHF_MERGE|SHF_STRINGS,1
	0x430c6c76		.L.str.45
.rodata.str1.1	0x430c6c90	0x9	C:\Users\nikol\projects\quectel\development\customer\threadx\workspace\apps\ml/libonnx.a(onnx.proto3.pb-c.o)	#SHT_PROGBITS,SHF_ALLOC|SHF_MERGE|SHF_STRINGS,1
	0x430c6c90		.L.str.46
.rodata.str1.1	0x430c6c99	0x1c	C:\Users\nikol\projects\quectel\development\customer\threadx\workspace\apps\ml/libonnx.a(onnx.proto3.pb-c.o)	#SHT_PROGBITS,SHF_ALLOC|SHF_MERGE|SHF_STRINGS,1
	0x430c6c99		.L.str.47
.rodata.str1.1	0x430c6cb5	0x1e	C:\Users\nikol\projects\quectel\development\customer\threadx\workspace\apps\ml/libonnx.a(onnx.proto3.pb-c.o)	#SHT_PROGBITS,SHF_ALLOC|SHF_MERGE|SHF_STRINGS,1
	0x430c6cb5		.L.str.48
.rodata.str1.1	0x430c6cd3	0xd	C:\Users\nikol\projects\quectel\development\customer\threadx\workspace\apps\ml/libonnx.a(onnx.proto3.pb-c.o)	#SHT_PROGBITS,SHF_ALLOC|SHF_MERGE|SHF_STRINGS,1
	0x430c6cd3		.L.str.49
.rodata.str1.1	0x430c6ce0	0x20	C:\Users\nikol\projects\quectel\development\customer\threadx\workspace\apps\ml/libonnx.a(onnx.proto3.pb-c.o)	#SHT_PROGBITS,SHF_ALLOC|SHF_MERGE|SHF_STRINGS,1
	0x430c6ce0		.L.str.50
.rodata.str1.1	0x430c6d00	0x11	C:\Users\nikol\projects\quectel\development\customer\threadx\workspace\apps\ml/libonnx.a(onnx.proto3.pb-c.o)	#SHT_PROGBITS,SHF_ALLOC|SHF_MERGE|SHF_STRINGS,1
	0x430c6d00		.L.str.51
.rodata.str1.1	0x430c6d11	0xc	C:\Users\nikol\projects\quectel\development\customer\threadx\workspace\apps\ml/libonnx.a(onnx.proto3.pb-c.o)	#SHT_PROGBITS,SHF_ALLOC|SHF_MERGE|SHF_STRINGS,1
	0x430c6d11		.L.str.52
.rodata.str1.1	0x430c6d1d	0x12	C:\Users\nikol\projects\quectel\development\customer\threadx\workspace\apps\ml/libonnx.a(onnx.proto3.pb-c.o)	#SHT_PROGBITS,SHF_ALLOC|SHF_MERGE|SHF_STRINGS,1
	0x430c6d1d		.L.str.53
.rodata.str1.1	0x430c6d2f	0x17	C:\Users\nikol\projects\quectel\development\customer\threadx\workspace\apps\ml/libonnx.a(onnx.proto3.pb-c.o)	#SHT_PROGBITS,SHF_ALLOC|SHF_MERGE|SHF_STRINGS,1
	0x430c6d2f		.L.str.54
.rodata.str1.1	0x430c6d46	0x12	C:\Users\nikol\projects\quectel\development\customer\threadx\workspace\apps\ml/libonnx.a(onnx.proto3.pb-c.o)	#SHT_PROGBITS,SHF_ALLOC|SHF_MERGE|SHF_STRINGS,1
	0x430c6d46		.L.str.55
.rodata.str1.1	0x430c6d58	0x18	C:\Users\nikol\projects\quectel\development\customer\threadx\workspace\apps\ml/libonnx.a(onnx.proto3.pb-c.o)	#SHT_PROGBITS,SHF_ALLOC|SHF_MERGE|SHF_STRINGS,1
	0x430c6d58		.L.str.56
.rodata.str1.1	0x430c6d70	0x20	C:\Users\nikol\projects\quectel\development\customer\threadx\workspace\apps\ml/libonnx.a(onnx.proto3.pb-c.o)	#SHT_PROGBITS,SHF_ALLOC|SHF_MERGE|SHF_STRINGS,1
	0x430c6d70		.L.str.57
.rodata.str1.1	0x430c6d90	0xa	C:\Users\nikol\projects\quectel\development\customer\threadx\workspace\apps\ml/libonnx.a(onnx.proto3.pb-c.o)	#SHT_PROGBITS,SHF_ALLOC|SHF_MERGE|SHF_STRINGS,1
	0x430c6d90		.L.str.58
.rodata.str1.1	0x430c6d9a	0x22	C:\Users\nikol\projects\quectel\development\customer\threadx\workspace\apps\ml/libonnx.a(onnx.proto3.pb-c.o)	#SHT_PROGBITS,SHF_ALLOC|SHF_MERGE|SHF_STRINGS,1
	0x430c6d9a		.L.str.59
.rodata.str1.1	0x430c6dbc	0x16	C:\Users\nikol\projects\quectel\development\customer\threadx\workspace\apps\ml/libonnx.a(onnx.proto3.pb-c.o)	#SHT_PROGBITS,SHF_ALLOC|SHF_MERGE|SHF_STRINGS,1
	0x430c6dbc		.L.str.60
.rodata.str1.1	0x430c6dd2	0x11	C:\Users\nikol\projects\quectel\development\customer\threadx\workspace\apps\ml/libonnx.a(onnx.proto3.pb-c.o)	#SHT_PROGBITS,SHF_ALLOC|SHF_MERGE|SHF_STRINGS,1
	0x430c6dd2		.L.str.61
.rodata.str1.1	0x430c6de3	0x17	C:\Users\nikol\projects\quectel\development\customer\threadx\workspace\apps\ml/libonnx.a(onnx.proto3.pb-c.o)	#SHT_PROGBITS,SHF_ALLOC|SHF_MERGE|SHF_STRINGS,1
	0x430c6de3		.L.str.62
.rodata.str1.1	0x430c6dfa	0x16	C:\Users\nikol\projects\quectel\development\customer\threadx\workspace\apps\ml/libonnx.a(onnx.proto3.pb-c.o)	#SHT_PROGBITS,SHF_ALLOC|SHF_MERGE|SHF_STRINGS,1
	0x430c6dfa		.L.str.63
.rodata.str1.1	0x430c6e10	0x7	C:\Users\nikol\projects\quectel\development\customer\threadx\workspace\apps\ml/libonnx.a(onnx.proto3.pb-c.o)	#SHT_PROGBITS,SHF_ALLOC|SHF_MERGE|SHF_STRINGS,1
	0x430c6e10		.L.str.64
.rodata.str1.1	0x430c6e17	0x18	C:\Users\nikol\projects\quectel\development\customer\threadx\workspace\apps\ml/libonnx.a(onnx.proto3.pb-c.o)	#SHT_PROGBITS,SHF_ALLOC|SHF_MERGE|SHF_STRINGS,1
	0x430c6e17		.L.str.65
.rodata.str1.1	0x430c6e2f	0x18	C:\Users\nikol\projects\quectel\development\customer\threadx\workspace\apps\ml/libonnx.a(onnx.proto3.pb-c.o)	#SHT_PROGBITS,SHF_ALLOC|SHF_MERGE|SHF_STRINGS,1
	0x430c6e2f		.L.str.66
.rodata.str1.1	0x430c6e47	0x9	C:\Users\nikol\projects\quectel\development\customer\threadx\workspace\apps\ml/libonnx.a(onnx.proto3.pb-c.o)	#SHT_PROGBITS,SHF_ALLOC|SHF_MERGE|SHF_STRINGS,1
	0x430c6e47		.L.str.67
.rodata.str1.1	0x430c6e50	0x1a	C:\Users\nikol\projects\quectel\development\customer\threadx\workspace\apps\ml/libonnx.a(onnx.proto3.pb-c.o)	#SHT_PROGBITS,SHF_ALLOC|SHF_MERGE|SHF_STRINGS,1
	0x430c6e50		.L.str.68
.rodata.str1.1	0x430c6e6a	0x13	C:\Users\nikol\projects\quectel\development\customer\threadx\workspace\apps\ml/libonnx.a(onnx.proto3.pb-c.o)	#SHT_PROGBITS,SHF_ALLOC|SHF_MERGE|SHF_STRINGS,1
	0x430c6e6a		.L.str.69
.rodata.str1.1	0x430c6e7d	0x4	C:\Users\nikol\projects\quectel\development\customer\threadx\workspace\apps\ml/libonnx.a(onnx.proto3.pb-c.o)	#SHT_PROGBITS,SHF_ALLOC|SHF_MERGE|SHF_STRINGS,1
	0x430c6e7d		.L.str.70
.rodata.str1.1	0x430c6e81	0x15	C:\Users\nikol\projects\quectel\development\customer\threadx\workspace\apps\ml/libonnx.a(onnx.proto3.pb-c.o)	#SHT_PROGBITS,SHF_ALLOC|SHF_MERGE|SHF_STRINGS,1
	0x430c6e81		.L.str.71
.rodata.str1.1	0x430c6e96	0xf	C:\Users\nikol\projects\quectel\development\customer\threadx\workspace\apps\ml/libonnx.a(onnx.proto3.pb-c.o)	#SHT_PROGBITS,SHF_ALLOC|SHF_MERGE|SHF_STRINGS,1
	0x430c6e96		.L.str.72
.rodata.str1.1	0x430c6ea5	0xa	C:\Users\nikol\projects\quectel\development\customer\threadx\workspace\apps\ml/libonnx.a(onnx.proto3.pb-c.o)	#SHT_PROGBITS,SHF_ALLOC|SHF_MERGE|SHF_STRINGS,1
	0x430c6ea5		.L.str.73
.rodata.str1.1	0x430c6eaf	0x10	C:\Users\nikol\projects\quectel\development\customer\threadx\workspace\apps\ml/libonnx.a(onnx.proto3.pb-c.o)	#SHT_PROGBITS,SHF_ALLOC|SHF_MERGE|SHF_STRINGS,1
	0x430c6eaf		.L.str.74
.rodata.str1.1	0x430c6ebf	0x18	C:\Users\nikol\projects\quectel\development\customer\threadx\workspace\apps\ml/libonnx.a(onnx.proto3.pb-c.o)	#SHT_PROGBITS,SHF_ALLOC|SHF_MERGE|SHF_STRINGS,1
	0x430c6ebf		.L.str.75
.rodata.str1.1	0x430c6ed7	0x13	C:\Users\nikol\projects\quectel\development\customer\threadx\workspace\apps\ml/libonnx.a(onnx.proto3.pb-c.o)	#SHT_PROGBITS,SHF_ALLOC|SHF_MERGE|SHF_STRINGS,1
	0x430c6ed7		.L.str.76
.rodata.str1.1	0x430c6eea	0x19	C:\Users\nikol\projects\quectel\development\customer\threadx\workspace\apps\ml/libonnx.a(onnx.proto3.pb-c.o)	#SHT_PROGBITS,SHF_ALLOC|SHF_MERGE|SHF_STRINGS,1
	0x430c6eea		.L.str.77
.rodata.str1.1	0x430c6f03	0xd	C:\Users\nikol\projects\quectel\development\customer\threadx\workspace\apps\ml/libonnx.a(onnx.proto3.pb-c.o)	#SHT_PROGBITS,SHF_ALLOC|SHF_MERGE|SHF_STRINGS,1
	0x430c6f03		.L.str.78
.rodata.str1.1	0x430c6f10	0x8	C:\Users\nikol\projects\quectel\development\customer\threadx\workspace\apps\ml/libonnx.a(onnx.proto3.pb-c.o)	#SHT_PROGBITS,SHF_ALLOC|SHF_MERGE|SHF_STRINGS,1
	0x430c6f10		.L.str.79
.rodata.str1.1	0x430c6f18	0xe	C:\Users\nikol\projects\quectel\development\customer\threadx\workspace\apps\ml/libonnx.a(onnx.proto3.pb-c.o)	#SHT_PROGBITS,SHF_ALLOC|SHF_MERGE|SHF_STRINGS,1
	0x430c6f18		.L.str.80
.rodata.str1.1	0x430c6f26	0xa	C:\Users\nikol\projects\quectel\development\customer\threadx\workspace\apps\ml/libonnx.a(onnx.proto3.pb-c.o)	#SHT_PROGBITS,SHF_ALLOC|SHF_MERGE|SHF_STRINGS,1
	0x430c6f26		.L.str.81
.rodata.str1.1	0x430c6f30	0x31	C:\Users\nikol\projects\quectel\development\customer\threadx\workspace\apps\ml/libonnx.a(onnx.proto3.pb-c.o)	#SHT_PROGBITS,SHF_ALLOC|SHF_MERGE|SHF_STRINGS,1
	0x430c6f30		.L.str.82
.rodata.str1.1	0x430c6f61	0x6	C:\Users\nikol\projects\quectel\development\customer\threadx\workspace\apps\ml/libonnx.a(onnx.proto3.pb-c.o)	#SHT_PROGBITS,SHF_ALLOC|SHF_MERGE|SHF_STRINGS,1
	0x430c6f61		.L.str.83
.rodata.str1.1	0x430c6f67	0x2d	C:\Users\nikol\projects\quectel\development\customer\threadx\workspace\apps\ml/libonnx.a(onnx.proto3.pb-c.o)	#SHT_PROGBITS,SHF_ALLOC|SHF_MERGE|SHF_STRINGS,1
	0x430c6f67		.L.str.84
.rodata.str1.1	0x430c6f94	0x4	C:\Users\nikol\projects\quectel\development\customer\threadx\workspace\apps\ml/libonnx.a(onnx.proto3.pb-c.o)	#SHT_PROGBITS,SHF_ALLOC|SHF_MERGE|SHF_STRINGS,1
	0x430c6f94		.L.str.85
.rodata.str1.1	0x430c6f98	0x2b	C:\Users\nikol\projects\quectel\development\customer\threadx\workspace\apps\ml/libonnx.a(onnx.proto3.pb-c.o)	#SHT_PROGBITS,SHF_ALLOC|SHF_MERGE|SHF_STRINGS,1
	0x430c6f98		.L.str.86
.rodata.str1.1	0x430c6fc3	0x7	C:\Users\nikol\projects\quectel\development\customer\threadx\workspace\apps\ml/libonnx.a(onnx.proto3.pb-c.o)	#SHT_PROGBITS,SHF_ALLOC|SHF_MERGE|SHF_STRINGS,1
	0x430c6fc3		.L.str.87
.rodata.str1.1	0x430c6fca	0x2e	C:\Users\nikol\projects\quectel\development\customer\threadx\workspace\apps\ml/libonnx.a(onnx.proto3.pb-c.o)	#SHT_PROGBITS,SHF_ALLOC|SHF_MERGE|SHF_STRINGS,1
	0x430c6fca		.L.str.88
.rodata.str1.1	0x430c6ff8	0x7	C:\Users\nikol\projects\quectel\development\customer\threadx\workspace\apps\ml/libonnx.a(onnx.proto3.pb-c.o)	#SHT_PROGBITS,SHF_ALLOC|SHF_MERGE|SHF_STRINGS,1
	0x430c6ff8		.L.str.89
.rodata.str1.1	0x430c6fff	0x2e	C:\Users\nikol\projects\quectel\development\customer\threadx\workspace\apps\ml/libonnx.a(onnx.proto3.pb-c.o)	#SHT_PROGBITS,SHF_ALLOC|SHF_MERGE|SHF_STRINGS,1
	0x430c6fff		.L.str.90
.rodata.str1.1	0x430c702d	0x6	C:\Users\nikol\projects\quectel\development\customer\threadx\workspace\apps\ml/libonnx.a(onnx.proto3.pb-c.o)	#SHT_PROGBITS,SHF_ALLOC|SHF_MERGE|SHF_STRINGS,1
	0x430c702d		.L.str.91
.rodata.str1.1	0x430c7033	0x2d	C:\Users\nikol\projects\quectel\development\customer\threadx\workspace\apps\ml/libonnx.a(onnx.proto3.pb-c.o)	#SHT_PROGBITS,SHF_ALLOC|SHF_MERGE|SHF_STRINGS,1
	0x430c7033		.L.str.92
.rodata.str1.1	0x430c7060	0x7	C:\Users\nikol\projects\quectel\development\customer\threadx\workspace\apps\ml/libonnx.a(onnx.proto3.pb-c.o)	#SHT_PROGBITS,SHF_ALLOC|SHF_MERGE|SHF_STRINGS,1
	0x430c7060		.L.str.93
.rodata.str1.1	0x430c7067	0x2e	C:\Users\nikol\projects\quectel\development\customer\threadx\workspace\apps\ml/libonnx.a(onnx.proto3.pb-c.o)	#SHT_PROGBITS,SHF_ALLOC|SHF_MERGE|SHF_STRINGS,1
	0x430c7067		.L.str.94
.rodata.str1.1	0x430c7095	0x5	C:\Users\nikol\projects\quectel\development\customer\threadx\workspace\apps\ml/libonnx.a(onnx.proto3.pb-c.o)	#SHT_PROGBITS,SHF_ALLOC|SHF_MERGE|SHF_STRINGS,1
	0x430c7095		.L.str.95
.rodata.str1.1	0x430c709a	0x2c	C:\Users\nikol\projects\quectel\development\customer\threadx\workspace\apps\ml/libonnx.a(onnx.proto3.pb-c.o)	#SHT_PROGBITS,SHF_ALLOC|SHF_MERGE|SHF_STRINGS,1
	0x430c709a		.L.str.96
.rodata.str1.1	0x430c70c6	0x8	C:\Users\nikol\projects\quectel\development\customer\threadx\workspace\apps\ml/libonnx.a(onnx.proto3.pb-c.o)	#SHT_PROGBITS,SHF_ALLOC|SHF_MERGE|SHF_STRINGS,1
	0x430c70c6		.L.str.97
.rodata.str1.1	0x430c70ce	0x2f	C:\Users\nikol\projects\quectel\development\customer\threadx\workspace\apps\ml/libonnx.a(onnx.proto3.pb-c.o)	#SHT_PROGBITS,SHF_ALLOC|SHF_MERGE|SHF_STRINGS,1
	0x430c70ce		.L.str.98
.rodata.str1.1	0x430c70fd	0x8	C:\Users\nikol\projects\quectel\development\customer\threadx\workspace\apps\ml/libonnx.a(onnx.proto3.pb-c.o)	#SHT_PROGBITS,SHF_ALLOC|SHF_MERGE|SHF_STRINGS,1
	0x430c70fd		.L.str.99
.rodata.str1.1	0x430c7105	0x2f	C:\Users\nikol\projects\quectel\development\customer\threadx\workspace\apps\ml/libonnx.a(onnx.proto3.pb-c.o)	#SHT_PROGBITS,SHF_ALLOC|SHF_MERGE|SHF_STRINGS,1
	0x430c7105		.L.str.100
.rodata.str1.1	0x430c7134	0x7	C:\Users\nikol\projects\quectel\development\customer\threadx\workspace\apps\ml/libonnx.a(onnx.proto3.pb-c.o)	#SHT_PROGBITS,SHF_ALLOC|SHF_MERGE|SHF_STRINGS,1
	0x430c7134		.L.str.101
.rodata.str1.1	0x430c713b	0x2e	C:\Users\nikol\projects\quectel\development\customer\threadx\workspace\apps\ml/libonnx.a(onnx.proto3.pb-c.o)	#SHT_PROGBITS,SHF_ALLOC|SHF_MERGE|SHF_STRINGS,1
	0x430c713b		.L.str.102
.rodata.str1.1	0x430c7169	0xe	C:\Users\nikol\projects\quectel\development\customer\threadx\workspace\apps\ml/libonnx.a(onnx.proto3.pb-c.o)	#SHT_PROGBITS,SHF_ALLOC|SHF_MERGE|SHF_STRINGS,1
	0x430c7169		.L.str.103
.rodata.str1.1	0x430c7177	0x35	C:\Users\nikol\projects\quectel\development\customer\threadx\workspace\apps\ml/libonnx.a(onnx.proto3.pb-c.o)	#SHT_PROGBITS,SHF_ALLOC|SHF_MERGE|SHF_STRINGS,1
	0x430c7177		.L.str.104
.rodata.str1.1	0x430c71ac	0xf	C:\Users\nikol\projects\quectel\development\customer\threadx\workspace\apps\ml/libonnx.a(onnx.proto3.pb-c.o)	#SHT_PROGBITS,SHF_ALLOC|SHF_MERGE|SHF_STRINGS,1
	0x430c71ac		.L.str.105
.rodata.str1.1	0x430c71bb	0x36	C:\Users\nikol\projects\quectel\development\customer\threadx\workspace\apps\ml/libonnx.a(onnx.proto3.pb-c.o)	#SHT_PROGBITS,SHF_ALLOC|SHF_MERGE|SHF_STRINGS,1
	0x430c71bb		.L.str.106
.rodata.str1.1	0x430c71f1	0x5	C:\Users\nikol\projects\quectel\development\customer\threadx\workspace\apps\ml/libonnx.a(onnx.proto3.pb-c.o)	#SHT_PROGBITS,SHF_ALLOC|SHF_MERGE|SHF_STRINGS,1
	0x430c71f1		.L.str.107
.rodata.str1.1	0x430c71f6	0x2	C:\Users\nikol\projects\quectel\development\customer\threadx\workspace\apps\ml/libonnx.a(onnx.proto3.pb-c.o)	#SHT_PROGBITS,SHF_ALLOC|SHF_MERGE|SHF_STRINGS,1
	0x430c71f6		.L.str.108
.rodata.str1.1	0x430c71f8	0x2	C:\Users\nikol\projects\quectel\development\customer\threadx\workspace\apps\ml/libonnx.a(onnx.proto3.pb-c.o)	#SHT_PROGBITS,SHF_ALLOC|SHF_MERGE|SHF_STRINGS,1
	0x430c71f8		.L.str.109
.rodata.str1.1	0x430c71fa	0x2	C:\Users\nikol\projects\quectel\development\customer\threadx\workspace\apps\ml/libonnx.a(onnx.proto3.pb-c.o)	#SHT_PROGBITS,SHF_ALLOC|SHF_MERGE|SHF_STRINGS,1
	0x430c71fa		.L.str.110
.rodata.str1.1	0x430c71fc	0x2	C:\Users\nikol\projects\quectel\development\customer\threadx\workspace\apps\ml/libonnx.a(onnx.proto3.pb-c.o)	#SHT_PROGBITS,SHF_ALLOC|SHF_MERGE|SHF_STRINGS,1
	0x430c71fc		.L.str.111
.rodata.str1.1	0x430c71fe	0x2	C:\Users\nikol\projects\quectel\development\customer\threadx\workspace\apps\ml/libonnx.a(onnx.proto3.pb-c.o)	#SHT_PROGBITS,SHF_ALLOC|SHF_MERGE|SHF_STRINGS,1
	0x430c71fe		.L.str.112
.rodata.str1.1	0x430c7200	0x7	C:\Users\nikol\projects\quectel\development\customer\threadx\workspace\apps\ml/libonnx.a(onnx.proto3.pb-c.o)	#SHT_PROGBITS,SHF_ALLOC|SHF_MERGE|SHF_STRINGS,1
	0x430c7200		.L.str.113
.rodata.str1.1	0x430c7207	0x5	C:\Users\nikol\projects\quectel\development\customer\threadx\workspace\apps\ml/libonnx.a(onnx.proto3.pb-c.o)	#SHT_PROGBITS,SHF_ALLOC|SHF_MERGE|SHF_STRINGS,1
	0x430c7207		.L.str.114
.rodata.str1.1	0x430c720c	0x8	C:\Users\nikol\projects\quectel\development\customer\threadx\workspace\apps\ml/libonnx.a(onnx.proto3.pb-c.o)	#SHT_PROGBITS,SHF_ALLOC|SHF_MERGE|SHF_STRINGS,1
	0x430c720c		.L.str.115
.rodata.str1.1	0x430c7214	0x8	C:\Users\nikol\projects\quectel\development\customer\threadx\workspace\apps\ml/libonnx.a(onnx.proto3.pb-c.o)	#SHT_PROGBITS,SHF_ALLOC|SHF_MERGE|SHF_STRINGS,1
	0x430c7214		.L.str.116
.rodata.str1.1	0x430c721c	0x7	C:\Users\nikol\projects\quectel\development\customer\threadx\workspace\apps\ml/libonnx.a(onnx.proto3.pb-c.o)	#SHT_PROGBITS,SHF_ALLOC|SHF_MERGE|SHF_STRINGS,1
	0x430c721c		.L.str.117
.rodata.str1.1	0x430c7223	0xb	C:\Users\nikol\projects\quectel\development\customer\threadx\workspace\apps\ml/libonnx.a(onnx.proto3.pb-c.o)	#SHT_PROGBITS,SHF_ALLOC|SHF_MERGE|SHF_STRINGS,1
	0x430c7223		.L.str.118
.rodata.str1.1	0x430c722e	0x5	C:\Users\nikol\projects\quectel\development\customer\threadx\workspace\apps\ml/libonnx.a(onnx.proto3.pb-c.o)	#SHT_PROGBITS,SHF_ALLOC|SHF_MERGE|SHF_STRINGS,1
	0x430c722e		.L.str.119
.rodata.str1.1	0x430c7233	0xe	C:\Users\nikol\projects\quectel\development\customer\threadx\workspace\apps\ml/libonnx.a(onnx.proto3.pb-c.o)	#SHT_PROGBITS,SHF_ALLOC|SHF_MERGE|SHF_STRINGS,1
	0x430c7233		.L.str.120
.rodata.str1.1	0x430c7241	0xe	C:\Users\nikol\projects\quectel\development\customer\threadx\workspace\apps\ml/libonnx.a(onnx.proto3.pb-c.o)	#SHT_PROGBITS,SHF_ALLOC|SHF_MERGE|SHF_STRINGS,1
	0x430c7241		.L.str.121
.rodata.str1.1	0x430c724f	0xf	C:\Users\nikol\projects\quectel\development\customer\threadx\workspace\apps\ml/libonnx.a(onnx.proto3.pb-c.o)	#SHT_PROGBITS,SHF_ALLOC|SHF_MERGE|SHF_STRINGS,1
	0x430c724f		.L.str.122
.rodata.str1.1	0x430c725e	0x6	C:\Users\nikol\projects\quectel\development\customer\threadx\workspace\apps\ml/libonnx.a(onnx.proto3.pb-c.o)	#SHT_PROGBITS,SHF_ALLOC|SHF_MERGE|SHF_STRINGS,1
	0x430c725e		.L.str.123
.rodata.str1.1	0x430c7264	0x7	C:\Users\nikol\projects\quectel\development\customer\threadx\workspace\apps\ml/libonnx.a(onnx.proto3.pb-c.o)	#SHT_PROGBITS,SHF_ALLOC|SHF_MERGE|SHF_STRINGS,1
	0x430c7264		.L.str.124
.rodata.str1.1	0x430c726b	0x8	C:\Users\nikol\projects\quectel\development\customer\threadx\workspace\apps\ml/libonnx.a(onnx.proto3.pb-c.o)	#SHT_PROGBITS,SHF_ALLOC|SHF_MERGE|SHF_STRINGS,1
	0x430c726b		.L.str.125
.rodata.str1.1	0x430c7273	0xa	C:\Users\nikol\projects\quectel\development\customer\threadx\workspace\apps\ml/libonnx.a(onnx.proto3.pb-c.o)	#SHT_PROGBITS,SHF_ALLOC|SHF_MERGE|SHF_STRINGS,1
	0x430c7273		.L.str.126
.rodata.str1.1	0x430c727d	0x7	C:\Users\nikol\projects\quectel\development\customer\threadx\workspace\apps\ml/libonnx.a(onnx.proto3.pb-c.o)	#SHT_PROGBITS,SHF_ALLOC|SHF_MERGE|SHF_STRINGS,1
	0x430c727d		.L.str.127
.rodata.str1.1	0x430c7284	0xf	C:\Users\nikol\projects\quectel\development\customer\threadx\workspace\apps\ml/libonnx.a(onnx.proto3.pb-c.o)	#SHT_PROGBITS,SHF_ALLOC|SHF_MERGE|SHF_STRINGS,1
	0x430c7284		.L.str.128
.rodata.str1.1	0x430c7293	0xa	C:\Users\nikol\projects\quectel\development\customer\threadx\workspace\apps\ml/libonnx.a(onnx.proto3.pb-c.o)	#SHT_PROGBITS,SHF_ALLOC|SHF_MERGE|SHF_STRINGS,1
	0x430c7293		.L.str.129
.rodata.str1.1	0x430c729d	0x17	C:\Users\nikol\projects\quectel\development\customer\threadx\workspace\apps\ml/libonnx.a(onnx.proto3.pb-c.o)	#SHT_PROGBITS,SHF_ALLOC|SHF_MERGE|SHF_STRINGS,1
	0x430c729d		.L.str.130
.rodata.str1.1	0x430c72b4	0xf	C:\Users\nikol\projects\quectel\development\customer\threadx\workspace\apps\ml/libonnx.a(onnx.proto3.pb-c.o)	#SHT_PROGBITS,SHF_ALLOC|SHF_MERGE|SHF_STRINGS,1
	0x430c72b4		.L.str.131
.rodata.str1.1	0x430c72c3	0xb	C:\Users\nikol\projects\quectel\development\customer\threadx\workspace\apps\ml/libonnx.a(onnx.proto3.pb-c.o)	#SHT_PROGBITS,SHF_ALLOC|SHF_MERGE|SHF_STRINGS,1
	0x430c72c3		.L.str.132
.rodata.str1.1	0x430c72ce	0xe	C:\Users\nikol\projects\quectel\development\customer\threadx\workspace\apps\ml/libonnx.a(onnx.proto3.pb-c.o)	#SHT_PROGBITS,SHF_ALLOC|SHF_MERGE|SHF_STRINGS,1
	0x430c72ce		.L.str.133
.rodata.str1.1	0x430c72dc	0x11	C:\Users\nikol\projects\quectel\development\customer\threadx\workspace\apps\ml/libonnx.a(onnx.proto3.pb-c.o)	#SHT_PROGBITS,SHF_ALLOC|SHF_MERGE|SHF_STRINGS,1
	0x430c72dc		.L.str.134
.rodata.str1.1	0x430c72ed	0xe	C:\Users\nikol\projects\quectel\development\customer\threadx\workspace\apps\ml/libonnx.a(onnx.proto3.pb-c.o)	#SHT_PROGBITS,SHF_ALLOC|SHF_MERGE|SHF_STRINGS,1
	0x430c72ed		.L.str.135
.rodata.str1.1	0x430c72fb	0x6	C:\Users\nikol\projects\quectel\development\customer\threadx\workspace\apps\ml/libonnx.a(onnx.proto3.pb-c.o)	#SHT_PROGBITS,SHF_ALLOC|SHF_MERGE|SHF_STRINGS,1
	0x430c72fb		.L.str.136
.rodata.str1.1	0x430c7301	0xd	C:\Users\nikol\projects\quectel\development\customer\threadx\workspace\apps\ml/libonnx.a(onnx.proto3.pb-c.o)	#SHT_PROGBITS,SHF_ALLOC|SHF_MERGE|SHF_STRINGS,1
	0x430c7301		.L.str.137
.rodata.str1.1	0x430c730e	0xf	C:\Users\nikol\projects\quectel\development\customer\threadx\workspace\apps\ml/libonnx.a(onnx.proto3.pb-c.o)	#SHT_PROGBITS,SHF_ALLOC|SHF_MERGE|SHF_STRINGS,1
	0x430c730e		.L.str.138
.rodata.str1.1	0x430c731d	0xe	C:\Users\nikol\projects\quectel\development\customer\threadx\workspace\apps\ml/libonnx.a(onnx.proto3.pb-c.o)	#SHT_PROGBITS,SHF_ALLOC|SHF_MERGE|SHF_STRINGS,1
	0x430c731d		.L.str.139
.rodata.str1.1	0x430c732b	0x4	C:\Users\nikol\projects\quectel\development\customer\threadx\workspace\apps\ml/libonnx.a(onnx.proto3.pb-c.o)	#SHT_PROGBITS,SHF_ALLOC|SHF_MERGE|SHF_STRINGS,1
	0x430c732b		.L.str.140
.rodata.str1.1	0x430c732f	0x6	C:\Users\nikol\projects\quectel\development\customer\threadx\workspace\apps\ml/libonnx.a(onnx.proto3.pb-c.o)	#SHT_PROGBITS,SHF_ALLOC|SHF_MERGE|SHF_STRINGS,1
	0x430c732f		.L.str.141
.rodata.str1.1	0x430c7335	0xc	C:\Users\nikol\projects\quectel\development\customer\threadx\workspace\apps\ml/libonnx.a(onnx.proto3.pb-c.o)	#SHT_PROGBITS,SHF_ALLOC|SHF_MERGE|SHF_STRINGS,1
	0x430c7335		.L.str.142
.rodata.str1.1	0x430c7341	0x1d	C:\Users\nikol\projects\quectel\development\customer\threadx\workspace\apps\ml/libonnx.a(onnx.proto3.pb-c.o)	#SHT_PROGBITS,SHF_ALLOC|SHF_MERGE|SHF_STRINGS,1
	0x430c7341		.L.str.143
.rodata.str1.1	0x430c735e	0x5	C:\Users\nikol\projects\quectel\development\customer\threadx\workspace\apps\ml/libonnx.a(onnx.proto3.pb-c.o)	#SHT_PROGBITS,SHF_ALLOC|SHF_MERGE|SHF_STRINGS,1
	0x430c735e		.L.str.144
.rodata.str1.1	0x430c7363	0xc	C:\Users\nikol\projects\quectel\development\customer\threadx\workspace\apps\ml/libonnx.a(onnx.proto3.pb-c.o)	#SHT_PROGBITS,SHF_ALLOC|SHF_MERGE|SHF_STRINGS,1
	0x430c7363		.L.str.145
.rodata.str1.1	0x430c736f	0xb	C:\Users\nikol\projects\quectel\development\customer\threadx\workspace\apps\ml/libonnx.a(onnx.proto3.pb-c.o)	#SHT_PROGBITS,SHF_ALLOC|SHF_MERGE|SHF_STRINGS,1
	0x430c736f		.L.str.146
.rodata.str1.1	0x430c737a	0x18	C:\Users\nikol\projects\quectel\development\customer\threadx\workspace\apps\ml/libonnx.a(onnx.proto3.pb-c.o)	#SHT_PROGBITS,SHF_ALLOC|SHF_MERGE|SHF_STRINGS,1
	0x430c737a		.L.str.147
.rodata.str1.1	0x430c7392	0x13	C:\Users\nikol\projects\quectel\development\customer\threadx\workspace\apps\ml/libonnx.a(onnx.proto3.pb-c.o)	#SHT_PROGBITS,SHF_ALLOC|SHF_MERGE|SHF_STRINGS,1
	0x430c7392		.L.str.148
.rodata.str1.1	0x430c73a5	0x6	C:\Users\nikol\projects\quectel\development\customer\threadx\workspace\apps\ml/libonnx.a(onnx.proto3.pb-c.o)	#SHT_PROGBITS,SHF_ALLOC|SHF_MERGE|SHF_STRINGS,1
	0x430c73a5		.L.str.149
.rodata.str1.1	0x430c73ab	0x4	C:\Users\nikol\projects\quectel\development\customer\threadx\workspace\apps\ml/libonnx.a(onnx.proto3.pb-c.o)	#SHT_PROGBITS,SHF_ALLOC|SHF_MERGE|SHF_STRINGS,1
	0x430c73ab		.L.str.150
.rodata.str1.1	0x430c73af	0x29	C:\Users\nikol\projects\quectel\development\customer\threadx\workspace\apps\ml/libonnx.a(onnx.proto3.pb-c.o)	#SHT_PROGBITS,SHF_ALLOC|SHF_MERGE|SHF_STRINGS,1
	0x430c73af		.L.str.151
.rodata.str1.1	0x430c73d8	0x25	C:\Users\nikol\projects\quectel\development\customer\threadx\workspace\apps\ml/libonnx.a(onnx.proto3.pb-c.o)	#SHT_PROGBITS,SHF_ALLOC|SHF_MERGE|SHF_STRINGS,1
	0x430c73d8		.L.str.152
.rodata.str1.1	0x430c73fd	0x6	C:\Users\nikol\projects\quectel\development\customer\threadx\workspace\apps\ml/libonnx.a(onnx.proto3.pb-c.o)	#SHT_PROGBITS,SHF_ALLOC|SHF_MERGE|SHF_STRINGS,1
	0x430c73fd		.L.str.153
.rodata.str1.1	0x430c7403	0x25	C:\Users\nikol\projects\quectel\development\customer\threadx\workspace\apps\ml/libonnx.a(onnx.proto3.pb-c.o)	#SHT_PROGBITS,SHF_ALLOC|SHF_MERGE|SHF_STRINGS,1
	0x430c7403		.L.str.154
.rodata.str1.1	0x430c7428	0x5	C:\Users\nikol\projects\quectel\development\customer\threadx\workspace\apps\ml/libonnx.a(onnx.proto3.pb-c.o)	#SHT_PROGBITS,SHF_ALLOC|SHF_MERGE|SHF_STRINGS,1
	0x430c7428		.L.str.155
.rodata.str1.1	0x430c742d	0x24	C:\Users\nikol\projects\quectel\development\customer\threadx\workspace\apps\ml/libonnx.a(onnx.proto3.pb-c.o)	#SHT_PROGBITS,SHF_ALLOC|SHF_MERGE|SHF_STRINGS,1
	0x430c742d		.L.str.156
.rodata.str1.1	0x430c7451	0x7	C:\Users\nikol\projects\quectel\development\customer\threadx\workspace\apps\ml/libonnx.a(onnx.proto3.pb-c.o)	#SHT_PROGBITS,SHF_ALLOC|SHF_MERGE|SHF_STRINGS,1
	0x430c7451		.L.str.157
.rodata.str1.1	0x430c7458	0x26	C:\Users\nikol\projects\quectel\development\customer\threadx\workspace\apps\ml/libonnx.a(onnx.proto3.pb-c.o)	#SHT_PROGBITS,SHF_ALLOC|SHF_MERGE|SHF_STRINGS,1
	0x430c7458		.L.str.158
.rodata.str1.1	0x430c747e	0x6	C:\Users\nikol\projects\quectel\development\customer\threadx\workspace\apps\ml/libonnx.a(onnx.proto3.pb-c.o)	#SHT_PROGBITS,SHF_ALLOC|SHF_MERGE|SHF_STRINGS,1
	0x430c747e		.L.str.159
.rodata.str1.1	0x430c7484	0x25	C:\Users\nikol\projects\quectel\development\customer\threadx\workspace\apps\ml/libonnx.a(onnx.proto3.pb-c.o)	#SHT_PROGBITS,SHF_ALLOC|SHF_MERGE|SHF_STRINGS,1
	0x430c7484		.L.str.160
.rodata.str1.1	0x430c74a9	0x6	C:\Users\nikol\projects\quectel\development\customer\threadx\workspace\apps\ml/libonnx.a(onnx.proto3.pb-c.o)	#SHT_PROGBITS,SHF_ALLOC|SHF_MERGE|SHF_STRINGS,1
	0x430c74a9		.L.str.161
.rodata.str1.1	0x430c74af	0x25	C:\Users\nikol\projects\quectel\development\customer\threadx\workspace\apps\ml/libonnx.a(onnx.proto3.pb-c.o)	#SHT_PROGBITS,SHF_ALLOC|SHF_MERGE|SHF_STRINGS,1
	0x430c74af		.L.str.162
.rodata.str1.1	0x430c74d4	0x6	C:\Users\nikol\projects\quectel\development\customer\threadx\workspace\apps\ml/libonnx.a(onnx.proto3.pb-c.o)	#SHT_PROGBITS,SHF_ALLOC|SHF_MERGE|SHF_STRINGS,1
	0x430c74d4		.L.str.163
.rodata.str1.1	0x430c74da	0x25	C:\Users\nikol\projects\quectel\development\customer\threadx\workspace\apps\ml/libonnx.a(onnx.proto3.pb-c.o)	#SHT_PROGBITS,SHF_ALLOC|SHF_MERGE|SHF_STRINGS,1
	0x430c74da		.L.str.164
.rodata.str1.1	0x430c74ff	0x26	C:\Users\nikol\projects\quectel\development\customer\threadx\workspace\apps\ml/libonnx.a(onnx.proto3.pb-c.o)	#SHT_PROGBITS,SHF_ALLOC|SHF_MERGE|SHF_STRINGS,1
	0x430c74ff		.L.str.165
.rodata.str1.1	0x430c7525	0x5	C:\Users\nikol\projects\quectel\development\customer\threadx\workspace\apps\ml/libonnx.a(onnx.proto3.pb-c.o)	#SHT_PROGBITS,SHF_ALLOC|SHF_MERGE|SHF_STRINGS,1
	0x430c7525		.L.str.166
.rodata.str1.1	0x430c752a	0x24	C:\Users\nikol\projects\quectel\development\customer\threadx\workspace\apps\ml/libonnx.a(onnx.proto3.pb-c.o)	#SHT_PROGBITS,SHF_ALLOC|SHF_MERGE|SHF_STRINGS,1
	0x430c752a		.L.str.167
.rodata.str1.1	0x430c754e	0x8	C:\Users\nikol\projects\quectel\development\customer\threadx\workspace\apps\ml/libonnx.a(onnx.proto3.pb-c.o)	#SHT_PROGBITS,SHF_ALLOC|SHF_MERGE|SHF_STRINGS,1
	0x430c754e		.L.str.168
.rodata.str1.1	0x430c7556	0x27	C:\Users\nikol\projects\quectel\development\customer\threadx\workspace\apps\ml/libonnx.a(onnx.proto3.pb-c.o)	#SHT_PROGBITS,SHF_ALLOC|SHF_MERGE|SHF_STRINGS,1
	0x430c7556		.L.str.169
.rodata.str1.1	0x430c757d	0x7	C:\Users\nikol\projects\quectel\development\customer\threadx\workspace\apps\ml/libonnx.a(onnx.proto3.pb-c.o)	#SHT_PROGBITS,SHF_ALLOC|SHF_MERGE|SHF_STRINGS,1
	0x430c757d		.L.str.170
.rodata.str1.1	0x430c7584	0x26	C:\Users\nikol\projects\quectel\development\customer\threadx\workspace\apps\ml/libonnx.a(onnx.proto3.pb-c.o)	#SHT_PROGBITS,SHF_ALLOC|SHF_MERGE|SHF_STRINGS,1
	0x430c7584		.L.str.171
.rodata.str1.1	0x430c75aa	0x7	C:\Users\nikol\projects\quectel\development\customer\threadx\workspace\apps\ml/libonnx.a(onnx.proto3.pb-c.o)	#SHT_PROGBITS,SHF_ALLOC|SHF_MERGE|SHF_STRINGS,1
	0x430c75aa		.L.str.172
.rodata.str1.1	0x430c75b1	0x26	C:\Users\nikol\projects\quectel\development\customer\threadx\workspace\apps\ml/libonnx.a(onnx.proto3.pb-c.o)	#SHT_PROGBITS,SHF_ALLOC|SHF_MERGE|SHF_STRINGS,1
	0x430c75b1		.L.str.173
.rodata.str1.1	0x430c75d7	0x7	C:\Users\nikol\projects\quectel\development\customer\threadx\workspace\apps\ml/libonnx.a(onnx.proto3.pb-c.o)	#SHT_PROGBITS,SHF_ALLOC|SHF_MERGE|SHF_STRINGS,1
	0x430c75d7		.L.str.174
.rodata.str1.1	0x430c75de	0x26	C:\Users\nikol\projects\quectel\development\customer\threadx\workspace\apps\ml/libonnx.a(onnx.proto3.pb-c.o)	#SHT_PROGBITS,SHF_ALLOC|SHF_MERGE|SHF_STRINGS,1
	0x430c75de		.L.str.175
.rodata.str1.1	0x430c7604	0xa	C:\Users\nikol\projects\quectel\development\customer\threadx\workspace\apps\ml/libonnx.a(onnx.proto3.pb-c.o)	#SHT_PROGBITS,SHF_ALLOC|SHF_MERGE|SHF_STRINGS,1
	0x430c7604		.L.str.176
.rodata.str1.1	0x430c760e	0x29	C:\Users\nikol\projects\quectel\development\customer\threadx\workspace\apps\ml/libonnx.a(onnx.proto3.pb-c.o)	#SHT_PROGBITS,SHF_ALLOC|SHF_MERGE|SHF_STRINGS,1
	0x430c760e		.L.str.177
.rodata.str1.1	0x430c7637	0xb	C:\Users\nikol\projects\quectel\development\customer\threadx\workspace\apps\ml/libonnx.a(onnx.proto3.pb-c.o)	#SHT_PROGBITS,SHF_ALLOC|SHF_MERGE|SHF_STRINGS,1
	0x430c7637		.L.str.178
.rodata.str1.1	0x430c7642	0x2a	C:\Users\nikol\projects\quectel\development\customer\threadx\workspace\apps\ml/libonnx.a(onnx.proto3.pb-c.o)	#SHT_PROGBITS,SHF_ALLOC|SHF_MERGE|SHF_STRINGS,1
	0x430c7642		.L.str.179
.rodata.str1.1	0x430c766c	0x9	C:\Users\nikol\projects\quectel\development\customer\threadx\workspace\apps\ml/libonnx.a(onnx.proto3.pb-c.o)	#SHT_PROGBITS,SHF_ALLOC|SHF_MERGE|SHF_STRINGS,1
	0x430c766c		.L.str.180
.rodata.str1.1	0x430c7675	0x28	C:\Users\nikol\projects\quectel\development\customer\threadx\workspace\apps\ml/libonnx.a(onnx.proto3.pb-c.o)	#SHT_PROGBITS,SHF_ALLOC|SHF_MERGE|SHF_STRINGS,1
	0x430c7675		.L.str.181
.rodata.str1.1	0x430c769d	0x8	C:\Users\nikol\projects\quectel\development\customer\threadx\workspace\apps\ml/libonnx.a(onnx.proto3.pb-c.o)	#SHT_PROGBITS,SHF_ALLOC|SHF_MERGE|SHF_STRINGS,1
	0x430c769d		.L.str.182
.rodata.str1.1	0x430c76a5	0x2b	C:\Users\nikol\projects\quectel\development\customer\threadx\workspace\apps\ml/libonnx.a(onnx.proto3.pb-c.o)	#SHT_PROGBITS,SHF_ALLOC|SHF_MERGE|SHF_STRINGS,1
	0x430c76a5		.L.str.183
.rodata.str1.1	0x430c76d0	0x9	C:\Users\nikol\projects\quectel\development\customer\threadx\workspace\apps\ml/libonnx.a(onnx.proto3.pb-c.o)	#SHT_PROGBITS,SHF_ALLOC|SHF_MERGE|SHF_STRINGS,1
	0x430c76d0		.L.str.184
.rodata.str1.1	0x430c76d9	0x2c	C:\Users\nikol\projects\quectel\development\customer\threadx\workspace\apps\ml/libonnx.a(onnx.proto3.pb-c.o)	#SHT_PROGBITS,SHF_ALLOC|SHF_MERGE|SHF_STRINGS,1
	0x430c76d9		.L.str.185
.rodata.str1.1	0x430c7705	0x5	C:\Users\nikol\projects\quectel\development\customer\threadx\workspace\apps\ml/libonnx.a(onnx.proto3.pb-c.o)	#SHT_PROGBITS,SHF_ALLOC|SHF_MERGE|SHF_STRINGS,1
	0x430c7705		.L.str.186
.rodata.str1.1	0x430c770a	0xa	C:\Users\nikol\projects\quectel\development\customer\threadx\workspace\apps\ml/libonnx.a(onnx.proto3.pb-c.o)	#SHT_PROGBITS,SHF_ALLOC|SHF_MERGE|SHF_STRINGS,1
	0x430c770a		.L.str.187
.rodata.str1.1	0x430c7714	0x8	C:\Users\nikol\projects\quectel\development\customer\threadx\workspace\apps\ml/libonnx.a(onnx.proto3.pb-c.o)	#SHT_PROGBITS,SHF_ALLOC|SHF_MERGE|SHF_STRINGS,1
	0x430c7714		.L.str.188
.rodata.str1.1	0x430c771c	0xb	C:\Users\nikol\projects\quectel\development\customer\threadx\workspace\apps\ml/libonnx.a(onnx.proto3.pb-c.o)	#SHT_PROGBITS,SHF_ALLOC|SHF_MERGE|SHF_STRINGS,1
	0x430c771c		.L.str.189
.rodata.str1.1	0x430c7727	0xb	C:\Users\nikol\projects\quectel\development\customer\threadx\workspace\apps\ml/libonnx.a(onnx.proto3.pb-c.o)	#SHT_PROGBITS,SHF_ALLOC|SHF_MERGE|SHF_STRINGS,1
	0x430c7727		.L.str.190
.rodata.str1.1	0x430c7732	0xc	C:\Users\nikol\projects\quectel\development\customer\threadx\workspace\apps\ml/libonnx.a(onnx.proto3.pb-c.o)	#SHT_PROGBITS,SHF_ALLOC|SHF_MERGE|SHF_STRINGS,1
	0x430c7732		.L.str.191
.rodata.str1.1	0x430c773e	0xb	C:\Users\nikol\projects\quectel\development\customer\threadx\workspace\apps\ml/libonnx.a(onnx.proto3.pb-c.o)	#SHT_PROGBITS,SHF_ALLOC|SHF_MERGE|SHF_STRINGS,1
	0x430c773e		.L.str.192
.rodata.str1.1	0x430c7749	0x9	C:\Users\nikol\projects\quectel\development\customer\threadx\workspace\apps\ml/libonnx.a(onnx.proto3.pb-c.o)	#SHT_PROGBITS,SHF_ALLOC|SHF_MERGE|SHF_STRINGS,1
	0x430c7749		.L.str.193
.rodata.str1.1	0x430c7752	0xc	C:\Users\nikol\projects\quectel\development\customer\threadx\workspace\apps\ml/libonnx.a(onnx.proto3.pb-c.o)	#SHT_PROGBITS,SHF_ALLOC|SHF_MERGE|SHF_STRINGS,1
	0x430c7752		.L.str.194
.rodata.str1.1	0x430c775e	0xc	C:\Users\nikol\projects\quectel\development\customer\threadx\workspace\apps\ml/libonnx.a(onnx.proto3.pb-c.o)	#SHT_PROGBITS,SHF_ALLOC|SHF_MERGE|SHF_STRINGS,1
	0x430c775e		.L.str.195
.rodata.str1.1	0x430c776a	0xe	C:\Users\nikol\projects\quectel\development\customer\threadx\workspace\apps\ml/libonnx.a(onnx.proto3.pb-c.o)	#SHT_PROGBITS,SHF_ALLOC|SHF_MERGE|SHF_STRINGS,1
	0x430c776a		.L.str.196
.rodata.str1.1	0x430c7778	0xe	C:\Users\nikol\projects\quectel\development\customer\threadx\workspace\apps\ml/libonnx.a(onnx.proto3.pb-c.o)	#SHT_PROGBITS,SHF_ALLOC|SHF_MERGE|SHF_STRINGS,1
	0x430c7778		.L.str.197
.rodata.str1.1	0x430c7786	0x7	C:\Users\nikol\projects\quectel\development\customer\threadx\workspace\apps\ml/libonnx.a(onnx.proto3.pb-c.o)	#SHT_PROGBITS,SHF_ALLOC|SHF_MERGE|SHF_STRINGS,1
	0x430c7786		.L.str.198
.rodata.str1.1	0x430c778d	0x8	C:\Users\nikol\projects\quectel\development\customer\threadx\workspace\apps\ml/libonnx.a(onnx.proto3.pb-c.o)	#SHT_PROGBITS,SHF_ALLOC|SHF_MERGE|SHF_STRINGS,1
	0x430c778d		.L.str.199
.rodata.str1.1	0x430c7795	0xa	C:\Users\nikol\projects\quectel\development\customer\threadx\workspace\apps\ml/libonnx.a(onnx.proto3.pb-c.o)	#SHT_PROGBITS,SHF_ALLOC|SHF_MERGE|SHF_STRINGS,1
	0x430c7795		.L.str.200
.rodata.str1.1	0x430c779f	0xa	C:\Users\nikol\projects\quectel\development\customer\threadx\workspace\apps\ml/libonnx.a(onnx.proto3.pb-c.o)	#SHT_PROGBITS,SHF_ALLOC|SHF_MERGE|SHF_STRINGS,1
	0x430c779f		.L.str.201
.rodata.str1.1	0x430c77a9	0xb	C:\Users\nikol\projects\quectel\development\customer\threadx\workspace\apps\ml/libonnx.a(onnx.proto3.pb-c.o)	#SHT_PROGBITS,SHF_ALLOC|SHF_MERGE|SHF_STRINGS,1
	0x430c77a9		.L.str.202
.rodata.str1.1	0x430c77b4	0x4	C:\Users\nikol\projects\quectel\development\customer\threadx\workspace\apps\ml/libonnx.a(onnx.proto3.pb-c.o)	#SHT_PROGBITS,SHF_ALLOC|SHF_MERGE|SHF_STRINGS,1
	0x430c77b4		.L.str.203
.rodata.str1.1	0x430c77b8	0xa	C:\Users\nikol\projects\quectel\development\customer\threadx\workspace\apps\ml/libonnx.a(onnx.proto3.pb-c.o)	#SHT_PROGBITS,SHF_ALLOC|SHF_MERGE|SHF_STRINGS,1
	0x430c77b8		.L.str.204
.rodata.str1.1	0x430c77c2	0x6	C:\Users\nikol\projects\quectel\development\customer\threadx\workspace\apps\ml/libonnx.a(onnx.proto3.pb-c.o)	#SHT_PROGBITS,SHF_ALLOC|SHF_MERGE|SHF_STRINGS,1
	0x430c77c2		.L.str.205
.rodata.str1.1	0x430c77c8	0x9	C:\Users\nikol\projects\quectel\development\customer\threadx\workspace\apps\ml/libonnx.a(onnx.proto3.pb-c.o)	#SHT_PROGBITS,SHF_ALLOC|SHF_MERGE|SHF_STRINGS,1
	0x430c77c8		.L.str.206
.rodata.str1.1	0x430c77d1	0xb	C:\Users\nikol\projects\quectel\development\customer\threadx\workspace\apps\ml/libonnx.a(onnx.proto3.pb-c.o)	#SHT_PROGBITS,SHF_ALLOC|SHF_MERGE|SHF_STRINGS,1
	0x430c77d1		.L.str.207
.rodata.str1.1	0x430c77dc	0xc	C:\Users\nikol\projects\quectel\development\customer\threadx\workspace\apps\ml/libonnx.a(onnx.proto3.pb-c.o)	#SHT_PROGBITS,SHF_ALLOC|SHF_MERGE|SHF_STRINGS,1
	0x430c77dc		.L.str.208
.rodata.str1.1	0x430c77e8	0xe	C:\Users\nikol\projects\quectel\development\customer\threadx\workspace\apps\ml/libonnx.a(onnx.proto3.pb-c.o)	#SHT_PROGBITS,SHF_ALLOC|SHF_MERGE|SHF_STRINGS,1
	0x430c77e8		.L.str.209
.rodata.str1.1	0x430c77f6	0x9	C:\Users\nikol\projects\quectel\development\customer\threadx\workspace\apps\ml/libonnx.a(onnx.proto3.pb-c.o)	#SHT_PROGBITS,SHF_ALLOC|SHF_MERGE|SHF_STRINGS,1
	0x430c77f6		.L.str.210
.rodata.str1.1	0x430c77ff	0x8	C:\Users\nikol\projects\quectel\development\customer\threadx\workspace\apps\ml/libonnx.a(onnx.proto3.pb-c.o)	#SHT_PROGBITS,SHF_ALLOC|SHF_MERGE|SHF_STRINGS,1
	0x430c77ff		.L.str.211
.rodata.str1.1	0x430c7807	0xf	C:\Users\nikol\projects\quectel\development\customer\threadx\workspace\apps\ml/libonnx.a(onnx.proto3.pb-c.o)	#SHT_PROGBITS,SHF_ALLOC|SHF_MERGE|SHF_STRINGS,1
	0x430c7807		.L.str.212
.rodata.str1.1	0x430c7816	0x1e	C:\Users\nikol\projects\quectel\development\customer\threadx\workspace\apps\ml/libonnx.a(onnx.proto3.pb-c.o)	#SHT_PROGBITS,SHF_ALLOC|SHF_MERGE|SHF_STRINGS,1
	0x430c7816		.L.str.213
.rodata.str1.1	0x430c7834	0x16	C:\Users\nikol\projects\quectel\development\customer\threadx\workspace\apps\ml/libonnx.a(onnx.proto3.pb-c.o)	#SHT_PROGBITS,SHF_ALLOC|SHF_MERGE|SHF_STRINGS,1
	0x430c7834		.L.str.214
.rodata.str1.1	0x430c784a	0x25	C:\Users\nikol\projects\quectel\development\customer\threadx\workspace\apps\ml/libonnx.a(onnx.proto3.pb-c.o)	#SHT_PROGBITS,SHF_ALLOC|SHF_MERGE|SHF_STRINGS,1
	0x430c784a		.L.str.215
.rodata.str1.1	0x430c786f	0x16	C:\Users\nikol\projects\quectel\development\customer\threadx\workspace\apps\ml/libonnx.a(onnx.proto3.pb-c.o)	#SHT_PROGBITS,SHF_ALLOC|SHF_MERGE|SHF_STRINGS,1
	0x430c786f		.L.str.216
.rodata.str1.1	0x430c7885	0x25	C:\Users\nikol\projects\quectel\development\customer\threadx\workspace\apps\ml/libonnx.a(onnx.proto3.pb-c.o)	#SHT_PROGBITS,SHF_ALLOC|SHF_MERGE|SHF_STRINGS,1
	0x430c7885		.L.str.217
.rodata.str1.1	0x430c78aa	0x15	C:\Users\nikol\projects\quectel\development\customer\threadx\workspace\apps\ml/libonnx.a(onnx.proto3.pb-c.o)	#SHT_PROGBITS,SHF_ALLOC|SHF_MERGE|SHF_STRINGS,1
	0x430c78aa		.L.str.218
.rodata.str1.1	0x430c78bf	0x24	C:\Users\nikol\projects\quectel\development\customer\threadx\workspace\apps\ml/libonnx.a(onnx.proto3.pb-c.o)	#SHT_PROGBITS,SHF_ALLOC|SHF_MERGE|SHF_STRINGS,1
	0x430c78bf		.L.str.219
.rodata.str1.1	0x430c78e3	0x15	C:\Users\nikol\projects\quectel\development\customer\threadx\workspace\apps\ml/libonnx.a(onnx.proto3.pb-c.o)	#SHT_PROGBITS,SHF_ALLOC|SHF_MERGE|SHF_STRINGS,1
	0x430c78e3		.L.str.220
.rodata.str1.1	0x430c78f8	0x24	C:\Users\nikol\projects\quectel\development\customer\threadx\workspace\apps\ml/libonnx.a(onnx.proto3.pb-c.o)	#SHT_PROGBITS,SHF_ALLOC|SHF_MERGE|SHF_STRINGS,1
	0x430c78f8		.L.str.221
.rodata.str1.1	0x430c791c	0x15	C:\Users\nikol\projects\quectel\development\customer\threadx\workspace\apps\ml/libonnx.a(onnx.proto3.pb-c.o)	#SHT_PROGBITS,SHF_ALLOC|SHF_MERGE|SHF_STRINGS,1
	0x430c791c		.L.str.222
.rodata.str1.1	0x430c7931	0x24	C:\Users\nikol\projects\quectel\development\customer\threadx\workspace\apps\ml/libonnx.a(onnx.proto3.pb-c.o)	#SHT_PROGBITS,SHF_ALLOC|SHF_MERGE|SHF_STRINGS,1
	0x430c7931		.L.str.223
.rodata.str1.1	0x430c7955	0x15	C:\Users\nikol\projects\quectel\development\customer\threadx\workspace\apps\ml/libonnx.a(onnx.proto3.pb-c.o)	#SHT_PROGBITS,SHF_ALLOC|SHF_MERGE|SHF_STRINGS,1
	0x430c7955		.L.str.224
.rodata.str1.1	0x430c796a	0x24	C:\Users\nikol\projects\quectel\development\customer\threadx\workspace\apps\ml/libonnx.a(onnx.proto3.pb-c.o)	#SHT_PROGBITS,SHF_ALLOC|SHF_MERGE|SHF_STRINGS,1
	0x430c796a		.L.str.225
.rodata.str1.1	0x430c798e	0xb	C:\Users\nikol\projects\quectel\development\customer\threadx\workspace\apps\ml/libonnx.a(onnx.proto3.pb-c.o)	#SHT_PROGBITS,SHF_ALLOC|SHF_MERGE|SHF_STRINGS,1
	0x430c798e		.L.str.226
.rodata.str1.1	0x430c7999	0x1a	C:\Users\nikol\projects\quectel\development\customer\threadx\workspace\apps\ml/libonnx.a(onnx.proto3.pb-c.o)	#SHT_PROGBITS,SHF_ALLOC|SHF_MERGE|SHF_STRINGS,1
	0x430c7999		.L.str.227
.rodata.str1.1	0x430c79b3	0x6	C:\Users\nikol\projects\quectel\development\customer\threadx\workspace\apps\ml/libonnx.a(LRN.o)	#SHT_PROGBITS,SHF_ALLOC|SHF_MERGE|SHF_STRINGS,1
	0x430c79b3		.L.str
.rodata.str1.1	0x430c79b9	0x5	C:\Users\nikol\projects\quectel\development\customer\threadx\workspace\apps\ml/libonnx.a(LRN.o)	#SHT_PROGBITS,SHF_ALLOC|SHF_MERGE|SHF_STRINGS,1
	0x430c79b9		.L.str.1
.rodata.str1.1	0x430c79be	0x5	C:\Users\nikol\projects\quectel\development\customer\threadx\workspace\apps\ml/libonnx.a(LRN.o)	#SHT_PROGBITS,SHF_ALLOC|SHF_MERGE|SHF_STRINGS,1
	0x430c79be		.L.str.2
.rodata.str1.1	0x430c79c3	0x5	C:\Users\nikol\projects\quectel\development\customer\threadx\workspace\apps\ml/libonnx.a(LRN.o)	#SHT_PROGBITS,SHF_ALLOC|SHF_MERGE|SHF_STRINGS,1
	0x430c79c3		.L.str.3
.rodata.str1.1	0x430c79c8	0x6	C:\Users\nikol\projects\quectel\development\customer\threadx\workspace\apps\ml/libonnx.a(Multinomial.o)	#SHT_PROGBITS,SHF_ALLOC|SHF_MERGE|SHF_STRINGS,1
	0x430c79c8		.L.str
.rodata.str1.1	0x430c79ce	0xc	C:\Users\nikol\projects\quectel\development\customer\threadx\workspace\apps\ml/libonnx.a(Multinomial.o)	#SHT_PROGBITS,SHF_ALLOC|SHF_MERGE|SHF_STRINGS,1
	0x430c79ce		.L.str.1
.rodata.str1.1	0x430c79da	0x5	C:\Users\nikol\projects\quectel\development\customer\threadx\workspace\apps\ml/libonnx.a(Multinomial.o)	#SHT_PROGBITS,SHF_ALLOC|SHF_MERGE|SHF_STRINGS,1
	0x430c79da		.L.str.2
.rodata.str1.1	0x430c79df	0x5	C:\Users\nikol\projects\quectel\development\customer\threadx\workspace\apps\ml/libonnx.a(ReduceL2.o)	#SHT_PROGBITS,SHF_ALLOC|SHF_MERGE|SHF_STRINGS,1
	0x430c79df		.L.str
.rodata.str1.1	0x430c79e4	0x9	C:\Users\nikol\projects\quectel\development\customer\threadx\workspace\apps\ml/libonnx.a(ReduceL2.o)	#SHT_PROGBITS,SHF_ALLOC|SHF_MERGE|SHF_STRINGS,1
	0x430c79e4		.L.str.1
.rodata.str1.1	0x430c79ed	0x2	C:\Users\nikol\projects\quectel\development\customer\threadx\workspace\apps\ml/libonnx.a(GlobalLpPool.o)	#SHT_PROGBITS,SHF_ALLOC|SHF_MERGE|SHF_STRINGS,1
	0x430c79ed		.L.str
.rodata.str1.1	0x430c79ef	0x9	C:\Users\nikol\projects\quectel\development\customer\threadx\workspace\apps\ml/libonnx.a(AveragePool.o)	#SHT_PROGBITS,SHF_ALLOC|SHF_MERGE|SHF_STRINGS,1
	0x430c79ef		.L.str
.rodata.str1.1	0x430c79f8	0x7	C:\Users\nikol\projects\quectel\development\customer\threadx\workspace\apps\ml/libonnx.a(AveragePool.o)	#SHT_PROGBITS,SHF_ALLOC|SHF_MERGE|SHF_STRINGS,1
	0x430c79f8		.L.str.1
.rodata.str1.1	0x430c79ff	0xa	C:\Users\nikol\projects\quectel\development\customer\threadx\workspace\apps\ml/libonnx.a(AveragePool.o)	#SHT_PROGBITS,SHF_ALLOC|SHF_MERGE|SHF_STRINGS,1
	0x430c79ff		.L.str.2
.rodata.str1.1	0x430c7a09	0x12	C:\Users\nikol\projects\quectel\development\customer\threadx\workspace\apps\ml/libonnx.a(AveragePool.o)	#SHT_PROGBITS,SHF_ALLOC|SHF_MERGE|SHF_STRINGS,1
	0x430c7a09		.L.str.3
.rodata.str1.1	0x430c7a1b	0xd	C:\Users\nikol\projects\quectel\development\customer\threadx\workspace\apps\ml/libonnx.a(AveragePool.o)	#SHT_PROGBITS,SHF_ALLOC|SHF_MERGE|SHF_STRINGS,1
	0x430c7a1b		.L.str.4
.rodata.str1.1	0x430c7a28	0x5	C:\Users\nikol\projects\quectel\development\customer\threadx\workspace\apps\ml/libonnx.a(AveragePool.o)	#SHT_PROGBITS,SHF_ALLOC|SHF_MERGE|SHF_STRINGS,1
	0x430c7a28		.L.str.5
.rodata.str1.1	0x430c7a2d	0x8	C:\Users\nikol\projects\quectel\development\customer\threadx\workspace\apps\ml/libonnx.a(AveragePool.o)	#SHT_PROGBITS,SHF_ALLOC|SHF_MERGE|SHF_STRINGS,1
	0x430c7a2d		.L.str.6
.rodata.str1.1	0x430c7a35	0x5	C:\Users\nikol\projects\quectel\development\customer\threadx\workspace\apps\ml/libonnx.a(RandomUniformLike.o)	#SHT_PROGBITS,SHF_ALLOC|SHF_MERGE|SHF_STRINGS,1
	0x430c7a35		.L.str.1
.rodata.str1.1	0x430c7a3a	0x4	C:\Users\nikol\projects\quectel\development\customer\threadx\workspace\apps\ml/libonnx.a(RandomUniformLike.o)	#SHT_PROGBITS,SHF_ALLOC|SHF_MERGE|SHF_STRINGS,1
	0x430c7a3a		.L.str.2
.rodata.str1.1	0x430c7a3e	0x5	C:\Users\nikol\projects\quectel\development\customer\threadx\workspace\apps\ml/libonnx.a(Concat.o)	#SHT_PROGBITS,SHF_ALLOC|SHF_MERGE|SHF_STRINGS,1
	0x430c7a3e		.L.str
.rodata.str1.1	0x430c7a43	0xc	C:\Users\nikol\projects\quectel\development\customer\threadx\workspace\apps\ml/libonnx.a(Constant.o)	#SHT_PROGBITS,SHF_ALLOC|SHF_MERGE|SHF_STRINGS,1
	0x430c7a43		.L.str
.rodata.str1.1	0x430c7a4f	0xa	C:\Users\nikol\projects\quectel\development\customer\threadx\workspace\apps\ml/libonnx.a(Constant.o)	#SHT_PROGBITS,SHF_ALLOC|SHF_MERGE|SHF_STRINGS,1
	0x430c7a4f		.L.str.1
.rodata.str1.1	0x430c7a59	0xd	C:\Users\nikol\projects\quectel\development\customer\threadx\workspace\apps\ml/libonnx.a(Constant.o)	#SHT_PROGBITS,SHF_ALLOC|SHF_MERGE|SHF_STRINGS,1
	0x430c7a59		.L.str.2
.rodata.str1.1	0x430c7a66	0xb	C:\Users\nikol\projects\quectel\development\customer\threadx\workspace\apps\ml/libonnx.a(Constant.o)	#SHT_PROGBITS,SHF_ALLOC|SHF_MERGE|SHF_STRINGS,1
	0x430c7a66		.L.str.3
.rodata.str1.1	0x430c7a71	0xe	C:\Users\nikol\projects\quectel\development\customer\threadx\workspace\apps\ml/libonnx.a(Constant.o)	#SHT_PROGBITS,SHF_ALLOC|SHF_MERGE|SHF_STRINGS,1
	0x430c7a71		.L.str.4
.rodata.str1.1	0x430c7a7f	0x4	C:\Users\nikol\projects\quectel\development\customer\threadx\workspace\apps\ml/libonnx.a(Clip.o)	#SHT_PROGBITS,SHF_ALLOC|SHF_MERGE|SHF_STRINGS,1
	0x430c7a7f		.L.str
.rodata.str1.1	0x430c7a83	0x4	C:\Users\nikol\projects\quectel\development\customer\threadx\workspace\apps\ml/libonnx.a(Clip.o)	#SHT_PROGBITS,SHF_ALLOC|SHF_MERGE|SHF_STRINGS,1
	0x430c7a83		.L.str.1
.rodata.str1.1	0x430c7a87	0x7	C:\Users\nikol\projects\quectel\development\customer\threadx\workspace\apps\ml/libonnx.a(Gemm.o)	#SHT_PROGBITS,SHF_ALLOC|SHF_MERGE|SHF_STRINGS,1
	0x430c7a87		.L.str.2
.rodata.str1.1	0x430c7a8e	0x7	C:\Users\nikol\projects\quectel\development\customer\threadx\workspace\apps\ml/libonnx.a(Gemm.o)	#SHT_PROGBITS,SHF_ALLOC|SHF_MERGE|SHF_STRINGS,1
	0x430c7a8e		.L.str.3
.rodata.str1.1	0x430c7a95	0x5	C:\Users\nikol\projects\quectel\development\customer\threadx\workspace\apps\ml/libonnx.a(RandomNormalLike.o)	#SHT_PROGBITS,SHF_ALLOC|SHF_MERGE|SHF_STRINGS,1
	0x430c7a95		.L.str.1
.rodata.str1.1	0x430c7a9a	0x6	C:\Users\nikol\projects\quectel\development\customer\threadx\workspace\apps\ml/libonnx.a(RandomNormalLike.o)	#SHT_PROGBITS,SHF_ALLOC|SHF_MERGE|SHF_STRINGS,1
	0x430c7a9a		.L.str.2
.rodata.str1.1	0x430c7aa0	0x12	C:\Users\nikol\projects\quectel\development\customer\threadx\workspace\apps\ml/libonnx.a(ArgMax.o)	#SHT_PROGBITS,SHF_ALLOC|SHF_MERGE|SHF_STRINGS,1
	0x430c7aa0		.L.str.2
.rodata.str1.1	0x430c7ab2	0x15	C:\Users\nikol\projects\quectel\development\customer\threadx\workspace\apps\ml/libonnx.a(ReduceSum.o)	#SHT_PROGBITS,SHF_ALLOC|SHF_MERGE|SHF_STRINGS,1
	0x430c7ab2		.L.str.1
.rodata.str1.1	0x430c7ac7	0xe	C:\Users\nikol\projects\quectel\development\customer\threadx\workspace\apps\ml/libonnx.a(MaxPool.o)	#SHT_PROGBITS,SHF_ALLOC|SHF_MERGE|SHF_STRINGS,1
	0x430c7ac7		.L.str.3
.rodata.str1.1	0x430c7ad5	0xa	C:\Users\nikol\projects\quectel\development\customer\threadx\workspace\apps\ml/libonnx.a(MaxPool.o)	#SHT_PROGBITS,SHF_ALLOC|SHF_MERGE|SHF_STRINGS,1
	0x430c7ad5		.L.str.5
.rodata.str1.1	0x430c7adf	0x6	C:\Users\nikol\projects\quectel\development\customer\threadx\workspace\apps\ml/libonnx.a(Conv.o)	#SHT_PROGBITS,SHF_ALLOC|SHF_MERGE|SHF_STRINGS,1
	0x430c7adf		.L.str.2
.rodata.str1.1	0x430c7ae5	0x6	C:\Users\nikol\projects\quectel\development\customer\threadx\workspace\apps\ml/libonnx.a(Shrink.o)	#SHT_PROGBITS,SHF_ALLOC|SHF_MERGE|SHF_STRINGS,1
	0x430c7ae5		.L.str.1
.rodata.str1.1	0x430c7aeb	0x3	C:\Users\nikol\projects\quectel\development\customer\threadx\workspace\apps\ml/libonnx.a(Cast.o)	#SHT_PROGBITS,SHF_ALLOC|SHF_MERGE|SHF_STRINGS,1
	0x430c7aeb		.L.str
.rodata.str1.1	0x430c7aee	0x10	C:\Users\nikol\projects\quectel\development\customer\threadx\workspace\apps\ml/libonnx.a(IsInf.o)	#SHT_PROGBITS,SHF_ALLOC|SHF_MERGE|SHF_STRINGS,1
	0x430c7aee		.L.str
.rodata.str1.1	0x430c7afe	0x10	C:\Users\nikol\projects\quectel\development\customer\threadx\workspace\apps\ml/libonnx.a(IsInf.o)	#SHT_PROGBITS,SHF_ALLOC|SHF_MERGE|SHF_STRINGS,1
	0x430c7afe		.L.str.1
.rodata.str1.1	0x430c7b0e	0x8	C:\Users\nikol\projects\quectel\development\customer\threadx\workspace\apps\ml/libonnx.a(BatchNormalization.o)	#SHT_PROGBITS,SHF_ALLOC|SHF_MERGE|SHF_STRINGS,1
	0x430c7b0e		.L.str
.rodata.str1.1	0x430c7b16	0x9	C:\Users\nikol\projects\quectel\development\customer\threadx\workspace\apps\ml/libonnx.a(BatchNormalization.o)	#SHT_PROGBITS,SHF_ALLOC|SHF_MERGE|SHF_STRINGS,1
	0x430c7b16		.L.str.1
.rodata.str1.1	0x430c7b1f	0x6	C:\Users\nikol\projects\quectel\development\customer\threadx\workspace\apps\ml/libonnx.a(Selu.o)	#SHT_PROGBITS,SHF_ALLOC|SHF_MERGE|SHF_STRINGS,1
	0x430c7b1f		.L.str.1
.rodata.str1.1	0x430c7b25	0x5	C:\Users\nikol\projects\quectel\development\customer\threadx\workspace\apps\ml/libonnx.a(Transpose.o)	#SHT_PROGBITS,SHF_ALLOC|SHF_MERGE|SHF_STRINGS,1
	0x430c7b25		.L.str
.rodata.str1.1	0x430c7b2a	0x5	C:\Users\nikol\projects\quectel\development\customer\threadx\workspace\apps\ml/libonnx.a(Mod.o)	#SHT_PROGBITS,SHF_ALLOC|SHF_MERGE|SHF_STRINGS,1
	0x430c7b2a		.L.str
.rodata.str1.1	0x430c7b2f	0xa	C:\Users\nikol\projects\quectel\development\customer\threadx\workspace\apps\ml/libonnx.a(BitShift.o)	#SHT_PROGBITS,SHF_ALLOC|SHF_MERGE|SHF_STRINGS,1
	0x430c7b2f		.L.str
.rodata.str1.1	0x430c7b39	0x5	C:\Users\nikol\projects\quectel\development\customer\threadx\workspace\apps\ml/libonnx.a(BitShift.o)	#SHT_PROGBITS,SHF_ALLOC|SHF_MERGE|SHF_STRINGS,1
	0x430c7b39		.L.str.1
PADDING_ALIGNMENT	0x430c7b3e	0x2	0x0
.rodata	0x430c7b40	0x88	C:\Users\nikol\projects\quectel\development\customer\threadx\workspace\apps\ml/libonnx.a(protobuf-c.o)	#SHT_PROGBITS,SHF_ALLOC,16
	0x430c7b40		protobuf_c_empty_string
.rodata.str1.1	0x430c7bc8	0x6	C:\Users\nikol\projects\quectel\development\customer\threadx\workspace\apps\ml/libonnx.a(protobuf-c.o)	#SHT_PROGBITS,SHF_ALLOC|SHF_MERGE|SHF_STRINGS,1
	0x430c7bc8		.L.str
.rodata.str1.1	0x430c7bce	0x47	C:\Users\nikol\projects\quectel\development\customer\threadx\workspace\apps\ml/libonnx.a(protobuf-c.o)	#SHT_PROGBITS,SHF_ALLOC|SHF_MERGE|SHF_STRINGS,1
	0x430c7bce		.L.str.1
.rodata.str1.1	0x430c7c15	0xd	C:\Users\nikol\projects\quectel\development\customer\threadx\workspace\apps\ml/libonnx.a(protobuf-c.o)	#SHT_PROGBITS,SHF_ALLOC|SHF_MERGE|SHF_STRINGS,1
	0x430c7c15		.L.str.2
.rodata.str1.1	0x430c7c22	0x23	C:\Users\nikol\projects\quectel\development\customer\threadx\workspace\apps\ml/libonnx.a(protobuf-c.o)	#SHT_PROGBITS,SHF_ALLOC|SHF_MERGE|SHF_STRINGS,1
	0x430c7c22		.L__func__.protobuf_c_message_get_packed_size
.rodata.str1.1	0x430c7c45	0x18	C:\Users\nikol\projects\quectel\development\customer\threadx\workspace\apps\ml/libonnx.a(protobuf-c.o)	#SHT_PROGBITS,SHF_ALLOC|SHF_MERGE|SHF_STRINGS,1
	0x430c7c45		.L__func__.protobuf_c_message_pack
.rodata.str1.1	0x430c7c5d	0x22	C:\Users\nikol\projects\quectel\development\customer\threadx\workspace\apps\ml/libonnx.a(protobuf-c.o)	#SHT_PROGBITS,SHF_ALLOC|SHF_MERGE|SHF_STRINGS,1
	0x430c7c5d		.L__func__.protobuf_c_message_pack_to_buffer
.rodata.str1.1	0x430c7c7f	0x36	C:\Users\nikol\projects\quectel\development\customer\threadx\workspace\apps\ml/libonnx.a(protobuf-c.o)	#SHT_PROGBITS,SHF_ALLOC|SHF_MERGE|SHF_STRINGS,1
	0x430c7c7f		.L.str.3
.rodata.str1.1	0x430c7cb5	0x1a	C:\Users\nikol\projects\quectel\development\customer\threadx\workspace\apps\ml/libonnx.a(protobuf-c.o)	#SHT_PROGBITS,SHF_ALLOC|SHF_MERGE|SHF_STRINGS,1
	0x430c7cb5		.L__func__.protobuf_c_message_unpack
.rodata.str1.1	0x430c7ccf	0x17	C:\Users\nikol\projects\quectel\development\customer\threadx\workspace\apps\ml/libonnx.a(protobuf-c.o)	#SHT_PROGBITS,SHF_ALLOC|SHF_MERGE|SHF_STRINGS,1
	0x430c7ccf		.L.str.4
.rodata.str1.1	0x430c7ce6	0x21	C:\Users\nikol\projects\quectel\development\customer\threadx\workspace\apps\ml/libonnx.a(protobuf-c.o)	#SHT_PROGBITS,SHF_ALLOC|SHF_MERGE|SHF_STRINGS,1
	0x430c7ce6		.L__func__.protobuf_c_message_free_unpacked
.rodata.str1.1	0x430c7d07	0x2e	C:\Users\nikol\projects\quectel\development\customer\threadx\workspace\apps\ml/libonnx.a(protobuf-c.o)	#SHT_PROGBITS,SHF_ALLOC|SHF_MERGE|SHF_STRINGS,1
	0x430c7d07		.L.str.5
.rodata.str1.1	0x430c7d35	0x23	C:\Users\nikol\projects\quectel\development\customer\threadx\workspace\apps\ml/libonnx.a(protobuf-c.o)	#SHT_PROGBITS,SHF_ALLOC|SHF_MERGE|SHF_STRINGS,1
	0x430c7d35		.L__func__.protobuf_c_service_invoke_internal
.rodata.str1.1	0x430c7d58	0x3c	C:\Users\nikol\projects\quectel\development\customer\threadx\workspace\apps\ml/libonnx.a(protobuf-c.o)	#SHT_PROGBITS,SHF_ALLOC|SHF_MERGE|SHF_STRINGS,1
	0x430c7d58		.L.str.6
.rodata.str1.1	0x430c7d94	0x22	C:\Users\nikol\projects\quectel\development\customer\threadx\workspace\apps\ml/libonnx.a(protobuf-c.o)	#SHT_PROGBITS,SHF_ALLOC|SHF_MERGE|SHF_STRINGS,1
	0x430c7d94		.L__func__.protobuf_c_service_generated_init
.rodata.str1.1	0x430c7db6	0x2	C:\Users\nikol\projects\quectel\development\customer\threadx\workspace\apps\ml/libonnx.a(protobuf-c.o)	#SHT_PROGBITS,SHF_ALLOC|SHF_MERGE|SHF_STRINGS,1
	0x430c7db6		.L.str.7
.rodata.str1.1	0x430c7db8	0x1f	C:\Users\nikol\projects\quectel\development\customer\threadx\workspace\apps\ml/libonnx.a(protobuf-c.o)	#SHT_PROGBITS,SHF_ALLOC|SHF_MERGE|SHF_STRINGS,1
	0x430c7db8		.L__func__.required_field_get_packed_size
.rodata.str1.1	0x430c7dd7	0x14	C:\Users\nikol\projects\quectel\development\customer\threadx\workspace\apps\ml/libonnx.a(protobuf-c.o)	#SHT_PROGBITS,SHF_ALLOC|SHF_MERGE|SHF_STRINGS,1
	0x430c7dd7		.L__func__.required_field_pack
.rodata.str1.1	0x430c7deb	0x14	C:\Users\nikol\projects\quectel\development\customer\threadx\workspace\apps\ml/libonnx.a(protobuf-c.o)	#SHT_PROGBITS,SHF_ALLOC|SHF_MERGE|SHF_STRINGS,1
	0x430c7deb		.L__func__.repeated_field_pack
.rodata.str1.1	0x430c7dff	0x2a	C:\Users\nikol\projects\quectel\development\customer\threadx\workspace\apps\ml/libonnx.a(protobuf-c.o)	#SHT_PROGBITS,SHF_ALLOC|SHF_MERGE|SHF_STRINGS,1
	0x430c7dff		.L.str.8
.rodata.str1.1	0x430c7e29	0x1e	C:\Users\nikol\projects\quectel\development\customer\threadx\workspace\apps\ml/libonnx.a(protobuf-c.o)	#SHT_PROGBITS,SHF_ALLOC|SHF_MERGE|SHF_STRINGS,1
	0x430c7e29		.L__func__.required_field_pack_to_buffer
.rodata.str1.1	0x430c7e47	0x13	C:\Users\nikol\projects\quectel\development\customer\threadx\workspace\apps\ml/libonnx.a(protobuf-c.o)	#SHT_PROGBITS,SHF_ALLOC|SHF_MERGE|SHF_STRINGS,1
	0x430c7e47		.L.str.9
.rodata.str1.1	0x430c7e5a	0x1e	C:\Users\nikol\projects\quectel\development\customer\threadx\workspace\apps\ml/libonnx.a(protobuf-c.o)	#SHT_PROGBITS,SHF_ALLOC|SHF_MERGE|SHF_STRINGS,1
	0x430c7e5a		.L__func__.repeated_field_pack_to_buffer
.rodata.str1.1	0x430c7e78	0x1a	C:\Users\nikol\projects\quectel\development\customer\threadx\workspace\apps\ml/libonnx.a(protobuf-c.o)	#SHT_PROGBITS,SHF_ALLOC|SHF_MERGE|SHF_STRINGS,1
	0x430c7e78		.L__func__.get_packed_payload_length
.rodata.str1.1	0x430c7e92	0x1b	C:\Users\nikol\projects\quectel\development\customer\threadx\workspace\apps\ml/libonnx.a(protobuf-c.o)	#SHT_PROGBITS,SHF_ALLOC|SHF_MERGE|SHF_STRINGS,1
	0x430c7e92		.L__func__.pack_buffer_packed_payload
.rodata.str1.1	0x430c7ead	0x1d	C:\Users\nikol\projects\quectel\development\customer\threadx\workspace\apps\ml/libonnx.a(protobuf-c.o)	#SHT_PROGBITS,SHF_ALLOC|SHF_MERGE|SHF_STRINGS,1
	0x430c7ead		.L__func__.sizeof_elt_in_repeated_array
.rodata.str1.1	0x430c7eca	0xd	C:\Users\nikol\projects\quectel\development\customer\threadx\workspace\apps\ml/libonnx.a(protobuf-c.o)	#SHT_PROGBITS,SHF_ALLOC|SHF_MERGE|SHF_STRINGS,1
	0x430c7eca		.L__func__.parse_member
.rodata.str1.1	0x430c7ed7	0x1d	C:\Users\nikol\projects\quectel\development\customer\threadx\workspace\apps\ml/libonnx.a(protobuf-c.o)	#SHT_PROGBITS,SHF_ALLOC|SHF_MERGE|SHF_STRINGS,1
	0x430c7ed7		.L__func__.parse_packed_repeated_member
.rodata.str1.1	0x430c7ef4	0x23	C:\Users\nikol\projects\quectel\development\customer\threadx\tools\LLVM\4.0.3\armv7m-none-eabi\libc\lib/libc.a(assert.o)	#SHT_PROGBITS,SHF_ALLOC|SHF_MERGE|SHF_STRINGS,1
PADDING_ALIGNMENT	0x430c7f17	0x1	0x0
.rodata.cst32	0x430c7f18	0x40	C:\Users\nikol\projects\quectel\development\customer\threadx\tools\LLVM\4.0.3\armv7m-none-eabi\libc\lib/libc.a(atan.o)	#SHT_PROGBITS,SHF_ALLOC|SHF_MERGE,8
	0x430c7f18		atanhi
	0x430c7f18		$d
	0x430c7f38		atanlo
.rodata.cst16	0x430c7f58	0x20	C:\Users\nikol\projects\quectel\development\customer\threadx\tools\LLVM\4.0.3\armv7m-none-eabi\libc\lib/libc.a(atanf.o)	#SHT_PROGBITS,SHF_ALLOC|SHF_MERGE,4
	0x430c7f58		atanhi
	0x430c7f58		$d
	0x430c7f68		atanlo
.rodata.cst16	0x430c7f78	0x10	C:\Users\nikol\projects\quectel\development\customer\threadx\tools\LLVM\4.0.3\armv7m-none-eabi\libc\lib/libc.a(exp.o)	#SHT_PROGBITS,SHF_ALLOC|SHF_MERGE,8
	0x430c7f78		half
	0x430c7f78		$d
.rodata.cst8	0x430c7f88	0x8	C:\Users\nikol\projects\quectel\development\customer\threadx\tools\LLVM\4.0.3\armv7m-none-eabi\libc\lib/libc.a(expf.o)	#SHT_PROGBITS,SHF_ALLOC|SHF_MERGE,4
	0x430c7f88		half
	0x430c7f88		$d
.rodata.cst16	0x430c7f90	0x30	C:\Users\nikol\projects\quectel\development\customer\threadx\tools\LLVM\4.0.3\armv7m-none-eabi\libc\lib/libc.a(pow.o)	#SHT_PROGBITS,SHF_ALLOC|SHF_MERGE,8
	0x430c7f90		bp
	0x430c7f90		$d
	0x430c7fa0		dp_l
	0x430c7fb0		dp_h
.rodata.cst8	0x430c7fc0	0x18	C:\Users\nikol\projects\quectel\development\customer\threadx\tools\LLVM\4.0.3\armv7m-none-eabi\libc\lib/libc.a(powf.o)	#SHT_PROGBITS,SHF_ALLOC|SHF_MERGE,4
	0x430c7fc0		bp
	0x430c7fc0		$d
	0x430c7fc8		dp_l
	0x430c7fd0		dp_h
.rodata.str1.1	0x430c7fd8	0x4	C:\Users\nikol\projects\quectel\development\customer\threadx\tools\LLVM\4.0.3\armv7m-none-eabi\libc\lib/libc.a(fopen.o)	#SHT_PROGBITS,SHF_ALLOC|SHF_MERGE|SHF_STRINGS,1
.rodata.str1.1	0x430c7fdc	0x7	C:\Users\nikol\projects\quectel\development\customer\threadx\tools\LLVM\4.0.3\armv7m-none-eabi\libc\lib/libc.a(vfprintf.o)	#SHT_PROGBITS,SHF_ALLOC|SHF_MERGE|SHF_STRINGS,1
.rodata.str1.1	0x430c7fe3	0xa	C:\Users\nikol\projects\quectel\development\customer\threadx\tools\LLVM\4.0.3\armv7m-none-eabi\libc\lib/libc.a(vfprintf.o)	#SHT_PROGBITS,SHF_ALLOC|SHF_MERGE|SHF_STRINGS,1
.rodata.states	0x430c7fed	0x1d0	C:\Users\nikol\projects\quectel\development\customer\threadx\tools\LLVM\4.0.3\armv7m-none-eabi\libc\lib/libc.a(vfprintf.o)	#SHT_PROGBITS,SHF_ALLOC,1
	0x430c7fed		states
.rodata.cst16	0x430c81bd	0x10	C:\Users\nikol\projects\quectel\development\customer\threadx\tools\LLVM\4.0.3\armv7m-none-eabi\libc\lib/libc.a(vfprintf.o)	#SHT_PROGBITS,SHF_ALLOC|SHF_MERGE,1
	0x430c81bd		xdigits
PADDING_ALIGNMENT	0x430c81cd	0x3	0x0
.rodata.str1.4	0x430c81d0	0x14	C:\Users\nikol\projects\quectel\development\customer\threadx\tools\LLVM\4.0.3\armv7m-none-eabi\libc\lib/libc.a(vfprintf.o)	#SHT_PROGBITS,SHF_ALLOC|SHF_MERGE|SHF_STRINGS,4
	0x430c81d0		$d
.rodata.stderr	0x430c81e4	0x4	C:\Users\nikol\projects\quectel\development\customer\threadx\tools\LLVM\4.0.3\armv7m-none-eabi\libc\lib/libc.a(stderr.o)	#SHT_PROGBITS,SHF_ALLOC,4
	0x430c81e4		$d
	0x430c81e4		stderr
.rodata..Lvsnprintf_full.f	0x430c81e8	0x90	C:\Users\nikol\projects\quectel\development\customer\threadx\tools\LLVM\4.0.3\armv7m-none-eabi\libc\lib/libc.a(vsnprintf.o)	#SHT_PROGBITS,SHF_ALLOC,8
	0x430c81e8		$d
.rodata.str1.1	0x430c8278	0x58	C:\Users\nikol\projects\quectel\development\customer\threadx\tools\LLVM\4.0.3\armv7m-none-eabi\libc\lib/libc.a(strerror.o)	#SHT_PROGBITS,SHF_ALLOC|SHF_MERGE|SHF_STRINGS,1
	0x430c8278		errid
.rodata.errmsg	0x430c82d0	0x70c	C:\Users\nikol\projects\quectel\development\customer\threadx\tools\LLVM\4.0.3\armv7m-none-eabi\libc\lib/libc.a(strerror.o)	#SHT_PROGBITS,SHF_ALLOC,1
	0x430c82d0		errmsg
.rodata.str1.1	0x430c89dc	0x9	C:\Users\nikol\projects\quectel\development\customer\threadx\tools\LLVM\4.0.3\armv7m-none-eabi\libc\lib/libc.a(floatscan.o)	#SHT_PROGBITS,SHF_ALLOC|SHF_MERGE|SHF_STRINGS,1
.rodata.str1.1	0x430c89e5	0x4	C:\Users\nikol\projects\quectel\development\customer\threadx\tools\LLVM\4.0.3\armv7m-none-eabi\libc\lib/libc.a(floatscan.o)	#SHT_PROGBITS,SHF_ALLOC|SHF_MERGE|SHF_STRINGS,1
PADDING_ALIGNMENT	0x430c89e9	0x3	0x0
.rodata.cst8	0x430c89ec	0x8	C:\Users\nikol\projects\quectel\development\customer\threadx\tools\LLVM\4.0.3\armv7m-none-eabi\libc\lib/libc.a(floatscan.o)	#SHT_PROGBITS,SHF_ALLOC|SHF_MERGE,4
	0x430c89ec		decfloat.th
	0x430c89ec		$d
.rodata.cst32	0x430c89f4	0x20	C:\Users\nikol\projects\quectel\development\customer\threadx\tools\LLVM\4.0.3\armv7m-none-eabi\libc\lib/libc.a(floatscan.o)	#SHT_PROGBITS,SHF_ALLOC|SHF_MERGE,4
	0x430c89f4		decfloat.p10s
	0x430c89f4		$d
.rodata.table	0x430c8a14	0x101	C:\Users\nikol\projects\quectel\development\customer\threadx\tools\LLVM\4.0.3\armv7m-none-eabi\libc\lib/libc.a(intscan.o)	#SHT_PROGBITS,SHF_ALLOC,1
	0x430c8a14		table
.rodata..L.str	0x430c8b15	0x9	C:\Users\nikol\projects\quectel\development\customer\threadx\tools\LLVM\4.0.3\armv7m-none-eabi\libc\lib/libc.a(intscan.o)	#SHT_PROGBITS,SHF_ALLOC,1
PADDING_ALIGNMENT	0x430c8b1e	0x2	0x0
.rodata.cst16	0x430c8b20	0x10	C:\Users\nikol\projects\quectel\development\customer\threadx\tools\LLVM\4.0.3\armv7m-none-eabi\libc\lib/libc.a(__rem_pio2_large.o)	#SHT_PROGBITS,SHF_ALLOC|SHF_MERGE,4
	0x430c8b20		init_jk
	0x430c8b20		$d
.rodata.ipio2	0x430c8b30	0x108	C:\Users\nikol\projects\quectel\development\customer\threadx\tools\LLVM\4.0.3\armv7m-none-eabi\libc\lib/libc.a(__rem_pio2_large.o)	#SHT_PROGBITS,SHF_ALLOC,4
	0x430c8b30		ipio2
	0x430c8b30		$d
.rodata.PIo2	0x430c8c38	0x40	C:\Users\nikol\projects\quectel\development\customer\threadx\tools\LLVM\4.0.3\armv7m-none-eabi\libc\lib/libc.a(__rem_pio2_large.o)	#SHT_PROGBITS,SHF_ALLOC,8
	0x430c8c38		PIo2
	0x430c8c38		$d
	Image$$ER_RO$$Limit(0x430c8c90) = .( 0x430c8c90 );
Image$$ER_RO$$Length(0xc8c90) = Image$$ER_RO$$Limit( 0x430c8c90 ) - Image$$ER_RO$$Base( 0x43000000 );

ER_RW	0x430c8c90	0x3bc # Offset: 0xc8cf0, LMA: 0x430c8c90
	Image$$ER_RW$$Base(0x430c8c90) = .( 0x430c8c90 );
KEEP (*(.data .data.* ))
.data	0x430c8c90	0x5c	out/src/main.o	#SHT_PROGBITS,SHF_ALLOC|SHF_WRITE,16
	0x430c8c90		__model_onnx_len
	0x430c8c94		__model_onnx
.data	0x430c8cec	0x294	C:\Users\nikol\projects\quectel\development\customer\threadx\workspace\apps\ml/libonnx.a(onnx.o)	#SHT_PROGBITS,SHF_ALLOC|SHF_WRITE,4
	0x430c8cec		resolver_default
.data	0x430c8f80	0xc	C:\Users\nikol\projects\quectel\development\customer\threadx\workspace\apps\ml/libonnx.a(protobuf-c.o)	#SHT_PROGBITS,SHF_ALLOC|SHF_WRITE,4
	0x430c8f80		protobuf_c__allocator
PADDING_ALIGNMENT	0x430c8f8c	0x4	0x0
.data.seed	0x430c8f90	0x8	C:\Users\nikol\projects\quectel\development\customer\threadx\tools\LLVM\4.0.3\armv7m-none-eabi\libc\lib/libc.a(rand.o)	#SHT_PROGBITS,SHF_ALLOC|SHF_WRITE,8
	0x430c8f90		seed
	0x430c8f90		$d
.data.dummy	0x430c8f98	0x4	C:\Users\nikol\projects\quectel\development\customer\threadx\tools\LLVM\4.0.3\armv7m-none-eabi\libc\lib/libc.a(fflush.o)	#SHT_PROGBITS,SHF_ALLOC|SHF_WRITE,4
	0x430c8f98		dummy
	0x430c8f98		$d
	0x430c8f98		__stdout_used
PADDING_ALIGNMENT	0x430c8f9c	0x4	0x0
.data.f	0x430c8fa0	0x90	C:\Users\nikol\projects\quectel\development\customer\threadx\tools\LLVM\4.0.3\armv7m-none-eabi\libc\lib/libc.a(stderr.o)	#SHT_PROGBITS,SHF_ALLOC|SHF_WRITE,8
	0x430c8fa0		f
	0x430c8fa0		$d
.data.__stderr_used	0x430c9030	0x4	C:\Users\nikol\projects\quectel\development\customer\threadx\tools\LLVM\4.0.3\armv7m-none-eabi\libc\lib/libc.a(stderr.o)	#SHT_PROGBITS,SHF_ALLOC|SHF_WRITE,4
	0x430c9030		$d
	0x430c9030		__stderr_used
.data.buf	0x430c9034	0x8	C:\Users\nikol\projects\quectel\development\customer\threadx\tools\LLVM\4.0.3\armv7m-none-eabi\libc\lib/libc.a(stderr.o)	#SHT_PROGBITS,SHF_ALLOC|SHF_WRITE,1
	0x430c9034		buf
	0x430c9034		$d
.data.ofl_head	0x430c903c	0x4	C:\Users\nikol\projects\quectel\development\customer\threadx\tools\LLVM\4.0.3\armv7m-none-eabi\libc\lib/libc.a(ofl.o)	#SHT_PROGBITS,SHF_ALLOC|SHF_WRITE,4
	0x430c903c		ofl_head
	0x430c903c		$d
.data.__progname	0x430c9040	0x4	C:\Users\nikol\projects\quectel\development\customer\threadx\tools\LLVM\4.0.3\armv7m-none-eabi\libc\lib/libc.a(libc.o)	#SHT_PROGBITS,SHF_ALLOC|SHF_WRITE,4
	0x430c9040		$d
	0x430c9040		__progname
	0x430c9040		program_invocation_short_name
.data.__progname_full	0x430c9044	0x4	C:\Users\nikol\projects\quectel\development\customer\threadx\tools\LLVM\4.0.3\armv7m-none-eabi\libc\lib/libc.a(libc.o)	#SHT_PROGBITS,SHF_ALLOC|SHF_WRITE,4
	0x430c9044		$d
	0x430c9044		__progname_full
	0x430c9044		program_invocation_name
.data.dummy_file	0x430c9048	0x4	C:\Users\nikol\projects\quectel\development\customer\threadx\tools\LLVM\4.0.3\armv7m-none-eabi\libc\lib/libc.a(__stdio_exit.o)	#SHT_PROGBITS,SHF_ALLOC|SHF_WRITE,4
	0x430c9048		dummy_file
	0x430c9048		$d
	0x430c9048		__stdin_used
	Image$$ER_RW$$Limit(0x430c904c) = .( 0x430c904c );
Image$$ER_RW$$Length(0x3bc) = Image$$ER_RW$$Limit( 0x430c904c ) - Image$$ER_RW$$Base( 0x430c8c90 );

ER_ZI	0x430c9050	0xa2b00 # Offset: 0xc90ac, LMA: 0x430c9050
	Image$$ER_ZI$$Base(0x430c9050) = .( 0x430c9050 );
*(.bss* .bss.* .common COMMON )
	0x430c9050	0x20000	out/common/src/retarget.o	#SHT_NOBITS,SHF_ALLOC|SHF_WRITE,4
	0x430c9050		pool_mem
	0x430e9050	0x80	out/common/src/retarget.o	#SHT_NOBITS,SHF_ALLOC|SHF_WRITE,4
	0x430e9050		stdin_buf
	0x430e90d0	0x200	out/common/src/retarget.o	#SHT_NOBITS,SHF_ALLOC|SHF_WRITE,4
	0x430e90d0		tracef_msg_mem
	0x430e92d0	0x1800	out/common/src/retarget.o	#SHT_NOBITS,SHF_ALLOC|SHF_WRITE,4
	0x430e92d0		tracef_thread_mem
	0x430eaad0	0x4	out/common/src/retarget.o	#SHT_NOBITS,SHF_ALLOC|SHF_WRITE,4
	0x430eaad0		in_tx_sem
	0x430eaad4	0x4	out/common/src/retarget.o	#SHT_NOBITS,SHF_ALLOC|SHF_WRITE,4
	0x430eaad4		out_tx_sem
	0x430eaad8	0x4	out/common/src/retarget.o	#SHT_NOBITS,SHF_ALLOC|SHF_WRITE,4
	0x430eaad8		pool
	0x430eaadc	0x4	out/common/src/retarget.o	#SHT_NOBITS,SHF_ALLOC|SHF_WRITE,4
	0x430eaadc		tracef_msg_queue
	0x430eaae0	0x4	out/common/src/retarget.o	#SHT_NOBITS,SHF_ALLOC|SHF_WRITE,4
	0x430eaae0		tracef_thread_byte_pool
	0x430eaae4	0x4	out/common/src/retarget.o	#SHT_NOBITS,SHF_ALLOC|SHF_WRITE,4
	0x430eaae4		tracef_thread_handle
	0x430eaae8	0x4	out/common/src/retarget.o	#SHT_NOBITS,SHF_ALLOC|SHF_WRITE,4
	0x430eaae8		tracef_thread_stack
	0x430eaaec	0x80000	out/common/src/malloc.o	#SHT_NOBITS,SHF_ALLOC|SHF_WRITE,4
	0x430eaaec		malloc_mem
	0x4316aaec	0x4	out/common/src/malloc.o	#SHT_NOBITS,SHF_ALLOC|SHF_WRITE,4
	0x4316aaec		byte_malloc_mem_pool
	0x4316aaf0	0x1000	../../../Quectel_BG96_QuecOpen_SDK_Package_V3.0.1-AUS/SDK/libs/llvm\timer_dam_lib.lib(qapi_timer_user.o)	#SHT_NOBITS,SHF_ALLOC|SHF_WRITE,4
	0x4316aaf0		timer_client_stack
	0x4316baf0	0x4	../../../Quectel_BG96_QuecOpen_SDK_Package_V3.0.1-AUS/SDK/libs/llvm\timer_dam_lib.lib(qapi_timer_user.o)	#SHT_NOBITS,SHF_ALLOC|SHF_WRITE,4
	0x4316baf0		timer_client_module_thread
	0x4316baf4	0x4	../../../Quectel_BG96_QuecOpen_SDK_Package_V3.0.1-AUS/SDK/libs/llvm\timer_dam_lib.lib(qapi_timer_user.o)	#SHT_NOBITS,SHF_ALLOC|SHF_WRITE,4
	0x4316baf4		timer_thread_state
	0x4316baf8	0x4	../../../Quectel_BG96_QuecOpen_SDK_Package_V3.0.1-AUS/SDK/libs/llvm\timer_dam_lib.lib(qapi_timer_user.o)	#SHT_NOBITS,SHF_ALLOC|SHF_WRITE,4
	0x4316baf8		timer_user_handle
	0x4316bafc	0x4	../../../Quectel_BG96_QuecOpen_SDK_Package_V3.0.1-AUS/SDK/libs/llvm\txm_lib.lib(txm_module_thread_shell_entry.o)	#SHT_NOBITS,SHF_ALLOC|SHF_WRITE,4
	0x4316bafc		_txm_module_entry_info
	0x4316bb00	0x4	../../../Quectel_BG96_QuecOpen_SDK_Package_V3.0.1-AUS/SDK/libs/llvm\txm_lib.lib(txm_module_thread_shell_entry.o)	#SHT_NOBITS,SHF_ALLOC|SHF_WRITE,4
	0x4316bb00		_txm_module_instance_ptr
	0x4316bb04	0x4	../../../Quectel_BG96_QuecOpen_SDK_Package_V3.0.1-AUS/SDK/libs/llvm\txm_lib.lib(txm_module_thread_shell_entry.o)	#SHT_NOBITS,SHF_ALLOC|SHF_WRITE,4
	0x4316bb04		_txm_module_kernel_call_dispatcher
	0x4316bb08	0x40	C:\Users\nikol\projects\quectel\development\customer\threadx\tools\LLVM\4.0.3\armv7m-none-eabi\libc\lib/libc.a(libc.o)	#SHT_NOBITS,SHF_ALLOC|SHF_WRITE,4
	0x4316bb08		__libc
.bss	0x4316bb48	0x4	out/common/src/retarget.o	#SHT_NOBITS,SHF_ALLOC|SHF_WRITE,4
	0x4316bb48		handle
.bss.qapi_timer_user_initialized	0x4316bb4c	0x4	../../../Quectel_BG96_QuecOpen_SDK_Package_V3.0.1-AUS/SDK/libs/llvm\timer_dam_lib.lib(qapi_timer_user.o)	#SHT_NOBITS,SHF_ALLOC|SHF_WRITE,4
	0x4316bb4c		qapi_timer_user_initialized
	Image$$ER_ZI$$Limit(0x4316bb50) = .( 0x4316bb50 );
Image$$ER_ZI$$ZI$$Length(0xa2b00) = Image$$ER_ZI$$Limit( 0x4316bb50 ) - Image$$ER_ZI$$Base( 0x430c9050 );

.debug	0x0	0x0 # Offset: 0x0

.line	0x0	0x0 # Offset: 0x0

.debug_srcinfo	0x0	0x0 # Offset: 0x0

.debug_sfnames	0x0	0x0 # Offset: 0x0

.debug_aranges	0x0	0x0 # Offset: 0x0

.debug_pubnames	0xc90ac	0x359 # Offset: 0xc90ac
*(.debug_pubnames )
.debug_pubnames	0xc90ac	0x18a	../../../Quectel_BG96_QuecOpen_SDK_Package_V3.0.1-AUS/SDK/libs/llvm\timer_dam_lib.lib(qapi_timer_user.o)	#SHT_PROGBITS,,1
.debug_pubnames	0xc9236	0xa2	../../../Quectel_BG96_QuecOpen_SDK_Package_V3.0.1-AUS/SDK/libs/llvm\txm_lib.lib(txm_module_thread_shell_entry.o)	#SHT_PROGBITS,,1
.debug_pubnames	0xc92d8	0x40	../../../Quectel_BG96_QuecOpen_SDK_Package_V3.0.1-AUS/SDK/libs/llvm\txm_lib.lib(txm_module_callback_request_thread_entry.o)	#SHT_PROGBITS,,1
.debug_pubnames	0xc9318	0x30	../../../Quectel_BG96_QuecOpen_SDK_Package_V3.0.1-AUS/SDK/libs/llvm\txm_lib.lib(txm_module_system_call11.o)	#SHT_PROGBITS,,1
.debug_pubnames	0xc9348	0x30	../../../Quectel_BG96_QuecOpen_SDK_Package_V3.0.1-AUS/SDK/libs/llvm\txm_lib.lib(txm_module_system_call12.o)	#SHT_PROGBITS,,1
.debug_pubnames	0xc9378	0x2f	../../../Quectel_BG96_QuecOpen_SDK_Package_V3.0.1-AUS/SDK/libs/llvm\txm_lib.lib(txm_module_system_call4.o)	#SHT_PROGBITS,,1
.debug_pubnames	0xc93a7	0x2f	../../../Quectel_BG96_QuecOpen_SDK_Package_V3.0.1-AUS/SDK/libs/llvm\txm_lib.lib(txm_module_system_call5.o)	#SHT_PROGBITS,,1
.debug_pubnames	0xc93d6	0x2f	../../../Quectel_BG96_QuecOpen_SDK_Package_V3.0.1-AUS/SDK/libs/llvm\txm_lib.lib(txm_module_system_call6.o)	#SHT_PROGBITS,,1

.debug_info	0xc9405	0x2cfe # Offset: 0xc9405
*(.debug_info .gnu.linkonce.wi.* )
.debug_info	0xc9405	0xb01	../../../Quectel_BG96_QuecOpen_SDK_Package_V3.0.1-AUS/SDK/libs/llvm\timer_dam_lib.lib(qapi_timer_user.o)	#SHT_PROGBITS,,1
.debug_info	0xc9f06	0xcd5	../../../Quectel_BG96_QuecOpen_SDK_Package_V3.0.1-AUS/SDK/libs/llvm\txm_lib.lib(txm_module_thread_shell_entry.o)	#SHT_PROGBITS,,1
.debug_info	0xcabdb	0x1019	../../../Quectel_BG96_QuecOpen_SDK_Package_V3.0.1-AUS/SDK/libs/llvm\txm_lib.lib(txm_module_callback_request_thread_entry.o)	#SHT_PROGBITS,,1
.debug_info	0xcbbf4	0x136	../../../Quectel_BG96_QuecOpen_SDK_Package_V3.0.1-AUS/SDK/libs/llvm\txm_lib.lib(txm_module_system_call11.o)	#SHT_PROGBITS,,1
.debug_info	0xcbd2a	0x145	../../../Quectel_BG96_QuecOpen_SDK_Package_V3.0.1-AUS/SDK/libs/llvm\txm_lib.lib(txm_module_system_call12.o)	#SHT_PROGBITS,,1
.debug_info	0xcbe6f	0xcd	../../../Quectel_BG96_QuecOpen_SDK_Package_V3.0.1-AUS/SDK/libs/llvm\txm_lib.lib(txm_module_system_call4.o)	#SHT_PROGBITS,,1
.debug_info	0xcbf3c	0xdc	../../../Quectel_BG96_QuecOpen_SDK_Package_V3.0.1-AUS/SDK/libs/llvm\txm_lib.lib(txm_module_system_call5.o)	#SHT_PROGBITS,,1
.debug_info	0xcc018	0xeb	../../../Quectel_BG96_QuecOpen_SDK_Package_V3.0.1-AUS/SDK/libs/llvm\txm_lib.lib(txm_module_system_call6.o)	#SHT_PROGBITS,,1

.debug_abbrev	0xcc103	0x628 # Offset: 0xcc103
*(.debug_abbrev )
.debug_abbrev	0xcc103	0x19a	../../../Quectel_BG96_QuecOpen_SDK_Package_V3.0.1-AUS/SDK/libs/llvm\timer_dam_lib.lib(qapi_timer_user.o)	#SHT_PROGBITS,,1
.debug_abbrev	0xcc29d	0xe2	../../../Quectel_BG96_QuecOpen_SDK_Package_V3.0.1-AUS/SDK/libs/llvm\txm_lib.lib(txm_module_thread_shell_entry.o)	#SHT_PROGBITS,,1
.debug_abbrev	0xcc37f	0xeb	../../../Quectel_BG96_QuecOpen_SDK_Package_V3.0.1-AUS/SDK/libs/llvm\txm_lib.lib(txm_module_callback_request_thread_entry.o)	#SHT_PROGBITS,,1
.debug_abbrev	0xcc46a	0x8d	../../../Quectel_BG96_QuecOpen_SDK_Package_V3.0.1-AUS/SDK/libs/llvm\txm_lib.lib(txm_module_system_call11.o)	#SHT_PROGBITS,,1
.debug_abbrev	0xcc4f7	0x8d	../../../Quectel_BG96_QuecOpen_SDK_Package_V3.0.1-AUS/SDK/libs/llvm\txm_lib.lib(txm_module_system_call12.o)	#SHT_PROGBITS,,1
.debug_abbrev	0xcc584	0x8d	../../../Quectel_BG96_QuecOpen_SDK_Package_V3.0.1-AUS/SDK/libs/llvm\txm_lib.lib(txm_module_system_call4.o)	#SHT_PROGBITS,,1
.debug_abbrev	0xcc611	0x8d	../../../Quectel_BG96_QuecOpen_SDK_Package_V3.0.1-AUS/SDK/libs/llvm\txm_lib.lib(txm_module_system_call5.o)	#SHT_PROGBITS,,1
.debug_abbrev	0xcc69e	0x8d	../../../Quectel_BG96_QuecOpen_SDK_Package_V3.0.1-AUS/SDK/libs/llvm\txm_lib.lib(txm_module_system_call6.o)	#SHT_PROGBITS,,1

.debug_line	0xcc72b	0x1042 # Offset: 0xcc72b
*(.debug_line )
.debug_line	0xcc72b	0x4d4	../../../Quectel_BG96_QuecOpen_SDK_Package_V3.0.1-AUS/SDK/libs/llvm\timer_dam_lib.lib(qapi_timer_user.o)	#SHT_PROGBITS,,1
.debug_line	0xccbff	0x1c2	../../../Quectel_BG96_QuecOpen_SDK_Package_V3.0.1-AUS/SDK/libs/llvm\txm_lib.lib(txm_module_thread_shell_entry.o)	#SHT_PROGBITS,,1
.debug_line	0xccdc1	0x27c	../../../Quectel_BG96_QuecOpen_SDK_Package_V3.0.1-AUS/SDK/libs/llvm\txm_lib.lib(txm_module_callback_request_thread_entry.o)	#SHT_PROGBITS,,1
.debug_line	0xcd03d	0x174	../../../Quectel_BG96_QuecOpen_SDK_Package_V3.0.1-AUS/SDK/libs/llvm\txm_lib.lib(txm_module_system_call11.o)	#SHT_PROGBITS,,1
.debug_line	0xcd1b1	0x175	../../../Quectel_BG96_QuecOpen_SDK_Package_V3.0.1-AUS/SDK/libs/llvm\txm_lib.lib(txm_module_system_call12.o)	#SHT_PROGBITS,,1
.debug_line	0xcd326	0x16c	../../../Quectel_BG96_QuecOpen_SDK_Package_V3.0.1-AUS/SDK/libs/llvm\txm_lib.lib(txm_module_system_call4.o)	#SHT_PROGBITS,,1
.debug_line	0xcd492	0x16d	../../../Quectel_BG96_QuecOpen_SDK_Package_V3.0.1-AUS/SDK/libs/llvm\txm_lib.lib(txm_module_system_call5.o)	#SHT_PROGBITS,,1
.debug_line	0xcd5ff	0x16e	../../../Quectel_BG96_QuecOpen_SDK_Package_V3.0.1-AUS/SDK/libs/llvm\txm_lib.lib(txm_module_system_call6.o)	#SHT_PROGBITS,,1

.debug_frame	0xcd76d	0x26c # Offset: 0xcd76d
*(.debug_frame )
.debug_frame	0xcd76d	0x134	../../../Quectel_BG96_QuecOpen_SDK_Package_V3.0.1-AUS/SDK/libs/llvm\timer_dam_lib.lib(qapi_timer_user.o)	#SHT_PROGBITS,,4
.debug_frame	0xcd8a1	0x2c	../../../Quectel_BG96_QuecOpen_SDK_Package_V3.0.1-AUS/SDK/libs/llvm\txm_lib.lib(txm_module_thread_shell_entry.o)	#SHT_PROGBITS,,4
.debug_frame	0xcd8cd	0x3c	../../../Quectel_BG96_QuecOpen_SDK_Package_V3.0.1-AUS/SDK/libs/llvm\txm_lib.lib(txm_module_callback_request_thread_entry.o)	#SHT_PROGBITS,,4
.debug_frame	0xcd909	0x2c	../../../Quectel_BG96_QuecOpen_SDK_Package_V3.0.1-AUS/SDK/libs/llvm\txm_lib.lib(txm_module_system_call11.o)	#SHT_PROGBITS,,4
.debug_frame	0xcd935	0x2c	../../../Quectel_BG96_QuecOpen_SDK_Package_V3.0.1-AUS/SDK/libs/llvm\txm_lib.lib(txm_module_system_call12.o)	#SHT_PROGBITS,,4
.debug_frame	0xcd961	0x28	../../../Quectel_BG96_QuecOpen_SDK_Package_V3.0.1-AUS/SDK/libs/llvm\txm_lib.lib(txm_module_system_call4.o)	#SHT_PROGBITS,,4
.debug_frame	0xcd989	0x28	../../../Quectel_BG96_QuecOpen_SDK_Package_V3.0.1-AUS/SDK/libs/llvm\txm_lib.lib(txm_module_system_call5.o)	#SHT_PROGBITS,,4
.debug_frame	0xcd9b1	0x28	../../../Quectel_BG96_QuecOpen_SDK_Package_V3.0.1-AUS/SDK/libs/llvm\txm_lib.lib(txm_module_system_call6.o)	#SHT_PROGBITS,,4

.debug_str	0xcd9d9	0x2c69 # Offset: 0xcd9d9
*(.debug_str )
.debug_str	0xcd9d9	0x3c	../../../Quectel_BG96_QuecOpen_SDK_Package_V3.0.1-AUS/SDK/libs/llvm\timer_dam_lib.lib(qapi_timer_user.o)	#SHT_PROGBITS,SHF_MERGE|SHF_STRINGS,1
	0x0		
.debug_str	0xcda15	0x8b	../../../Quectel_BG96_QuecOpen_SDK_Package_V3.0.1-AUS/SDK/libs/llvm\timer_dam_lib.lib(qapi_timer_user.o)	#SHT_PROGBITS,SHF_MERGE|SHF_STRINGS,1
	0x3c		
.debug_str	0xcdaa0	0x66	../../../Quectel_BG96_QuecOpen_SDK_Package_V3.0.1-AUS/SDK/libs/llvm\timer_dam_lib.lib(qapi_timer_user.o)	#SHT_PROGBITS,SHF_MERGE|SHF_STRINGS,1
	0xc7		
.debug_str	0xcdb06	0x1c	../../../Quectel_BG96_QuecOpen_SDK_Package_V3.0.1-AUS/SDK/libs/llvm\timer_dam_lib.lib(qapi_timer_user.o)	#SHT_PROGBITS,SHF_MERGE|SHF_STRINGS,1
	0x12d		
.debug_str	0xcdb22	0xd	../../../Quectel_BG96_QuecOpen_SDK_Package_V3.0.1-AUS/SDK/libs/llvm\timer_dam_lib.lib(qapi_timer_user.o)	#SHT_PROGBITS,SHF_MERGE|SHF_STRINGS,1
	0x149		
.debug_str	0xcdb2f	0x9	../../../Quectel_BG96_QuecOpen_SDK_Package_V3.0.1-AUS/SDK/libs/llvm\timer_dam_lib.lib(qapi_timer_user.o)	#SHT_PROGBITS,SHF_MERGE|SHF_STRINGS,1
	0x156		
.debug_str	0xcdb38	0xe	../../../Quectel_BG96_QuecOpen_SDK_Package_V3.0.1-AUS/SDK/libs/llvm\timer_dam_lib.lib(qapi_timer_user.o)	#SHT_PROGBITS,SHF_MERGE|SHF_STRINGS,1
	0x15f		
.debug_str	0xcdb46	0x13	../../../Quectel_BG96_QuecOpen_SDK_Package_V3.0.1-AUS/SDK/libs/llvm\timer_dam_lib.lib(qapi_timer_user.o)	#SHT_PROGBITS,SHF_MERGE|SHF_STRINGS,1
	0x16d		
.debug_str	0xcdb59	0x13	../../../Quectel_BG96_QuecOpen_SDK_Package_V3.0.1-AUS/SDK/libs/llvm\timer_dam_lib.lib(qapi_timer_user.o)	#SHT_PROGBITS,SHF_MERGE|SHF_STRINGS,1
	0x180		
.debug_str	0xcdb6c	0x14	../../../Quectel_BG96_QuecOpen_SDK_Package_V3.0.1-AUS/SDK/libs/llvm\timer_dam_lib.lib(qapi_timer_user.o)	#SHT_PROGBITS,SHF_MERGE|SHF_STRINGS,1
	0x193		
.debug_str	0xcdb80	0x15	../../../Quectel_BG96_QuecOpen_SDK_Package_V3.0.1-AUS/SDK/libs/llvm\timer_dam_lib.lib(qapi_timer_user.o)	#SHT_PROGBITS,SHF_MERGE|SHF_STRINGS,1
	0x1a7		
.debug_str	0xcdb95	0x18	../../../Quectel_BG96_QuecOpen_SDK_Package_V3.0.1-AUS/SDK/libs/llvm\timer_dam_lib.lib(qapi_timer_user.o)	#SHT_PROGBITS,SHF_MERGE|SHF_STRINGS,1
	0x1bc		
.debug_str	0xcdbad	0x15	../../../Quectel_BG96_QuecOpen_SDK_Package_V3.0.1-AUS/SDK/libs/llvm\timer_dam_lib.lib(qapi_timer_user.o)	#SHT_PROGBITS,SHF_MERGE|SHF_STRINGS,1
	0x1d4		
.debug_str	0xcdbc2	0x12	../../../Quectel_BG96_QuecOpen_SDK_Package_V3.0.1-AUS/SDK/libs/llvm\timer_dam_lib.lib(qapi_timer_user.o)	#SHT_PROGBITS,SHF_MERGE|SHF_STRINGS,1
	0x1e9		
.debug_str	0xcdbd4	0x1a	../../../Quectel_BG96_QuecOpen_SDK_Package_V3.0.1-AUS/SDK/libs/llvm\timer_dam_lib.lib(qapi_timer_user.o)	#SHT_PROGBITS,SHF_MERGE|SHF_STRINGS,1
	0x1fb		
.debug_str	0xcdbee	0x1f	../../../Quectel_BG96_QuecOpen_SDK_Package_V3.0.1-AUS/SDK/libs/llvm\timer_dam_lib.lib(qapi_timer_user.o)	#SHT_PROGBITS,SHF_MERGE|SHF_STRINGS,1
	0x215		
.debug_str	0xcdc0d	0x1b	../../../Quectel_BG96_QuecOpen_SDK_Package_V3.0.1-AUS/SDK/libs/llvm\timer_dam_lib.lib(qapi_timer_user.o)	#SHT_PROGBITS,SHF_MERGE|SHF_STRINGS,1
	0x234		
.debug_str	0xcdc28	0xd	../../../Quectel_BG96_QuecOpen_SDK_Package_V3.0.1-AUS/SDK/libs/llvm\timer_dam_lib.lib(qapi_timer_user.o)	#SHT_PROGBITS,SHF_MERGE|SHF_STRINGS,1
	0x24f		
.debug_str	0xcdc35	0x12	../../../Quectel_BG96_QuecOpen_SDK_Package_V3.0.1-AUS/SDK/libs/llvm\timer_dam_lib.lib(qapi_timer_user.o)	#SHT_PROGBITS,SHF_MERGE|SHF_STRINGS,1
	0x25c		
.debug_str	0xcdc47	0x6	../../../Quectel_BG96_QuecOpen_SDK_Package_V3.0.1-AUS/SDK/libs/llvm\timer_dam_lib.lib(qapi_timer_user.o)	#SHT_PROGBITS,SHF_MERGE|SHF_STRINGS,1
	0x26e		
.debug_str	0xcdc4d	0x14	../../../Quectel_BG96_QuecOpen_SDK_Package_V3.0.1-AUS/SDK/libs/llvm\timer_dam_lib.lib(qapi_timer_user.o)	#SHT_PROGBITS,SHF_MERGE|SHF_STRINGS,1
	0x274		
.debug_str	0xcdc61	0x14	../../../Quectel_BG96_QuecOpen_SDK_Package_V3.0.1-AUS/SDK/libs/llvm\timer_dam_lib.lib(qapi_timer_user.o)	#SHT_PROGBITS,SHF_MERGE|SHF_STRINGS,1
	0x288		
.debug_str	0xcdc75	0x16	../../../Quectel_BG96_QuecOpen_SDK_Package_V3.0.1-AUS/SDK/libs/llvm\timer_dam_lib.lib(qapi_timer_user.o)	#SHT_PROGBITS,SHF_MERGE|SHF_STRINGS,1
	0x29c		
.debug_str	0xcdc8b	0x14	../../../Quectel_BG96_QuecOpen_SDK_Package_V3.0.1-AUS/SDK/libs/llvm\timer_dam_lib.lib(qapi_timer_user.o)	#SHT_PROGBITS,SHF_MERGE|SHF_STRINGS,1
	0x2b2		
.debug_str	0xcdc9f	0x15	../../../Quectel_BG96_QuecOpen_SDK_Package_V3.0.1-AUS/SDK/libs/llvm\timer_dam_lib.lib(qapi_timer_user.o)	#SHT_PROGBITS,SHF_MERGE|SHF_STRINGS,1
	0x2c6		
.debug_str	0xcdcb4	0x15	../../../Quectel_BG96_QuecOpen_SDK_Package_V3.0.1-AUS/SDK/libs/llvm\timer_dam_lib.lib(qapi_timer_user.o)	#SHT_PROGBITS,SHF_MERGE|SHF_STRINGS,1
	0x2db		
.debug_str	0xcdcc9	0x19	../../../Quectel_BG96_QuecOpen_SDK_Package_V3.0.1-AUS/SDK/libs/llvm\timer_dam_lib.lib(qapi_timer_user.o)	#SHT_PROGBITS,SHF_MERGE|SHF_STRINGS,1
	0x2f0		
.debug_str	0xcdce2	0x15	../../../Quectel_BG96_QuecOpen_SDK_Package_V3.0.1-AUS/SDK/libs/llvm\timer_dam_lib.lib(qapi_timer_user.o)	#SHT_PROGBITS,SHF_MERGE|SHF_STRINGS,1
	0x309		
.debug_str	0xcdcf7	0x19	../../../Quectel_BG96_QuecOpen_SDK_Package_V3.0.1-AUS/SDK/libs/llvm\timer_dam_lib.lib(qapi_timer_user.o)	#SHT_PROGBITS,SHF_MERGE|SHF_STRINGS,1
	0x31e		
.debug_str	0xcdd10	0xf	../../../Quectel_BG96_QuecOpen_SDK_Package_V3.0.1-AUS/SDK/libs/llvm\timer_dam_lib.lib(qapi_timer_user.o)	#SHT_PROGBITS,SHF_MERGE|SHF_STRINGS,1
	0x337		
.debug_str	0xcdd1f	0x5	../../../Quectel_BG96_QuecOpen_SDK_Package_V3.0.1-AUS/SDK/libs/llvm\timer_dam_lib.lib(qapi_timer_user.o)	#SHT_PROGBITS,SHF_MERGE|SHF_STRINGS,1
	0x346		
.debug_str	0xcdd24	0x5	../../../Quectel_BG96_QuecOpen_SDK_Package_V3.0.1-AUS/SDK/libs/llvm\timer_dam_lib.lib(qapi_timer_user.o)	#SHT_PROGBITS,SHF_MERGE|SHF_STRINGS,1
	0x34b		
.debug_str	0xcdd29	0x13	../../../Quectel_BG96_QuecOpen_SDK_Package_V3.0.1-AUS/SDK/libs/llvm\timer_dam_lib.lib(qapi_timer_user.o)	#SHT_PROGBITS,SHF_MERGE|SHF_STRINGS,1
	0x350		
.debug_str	0xcdd3c	0x5	../../../Quectel_BG96_QuecOpen_SDK_Package_V3.0.1-AUS/SDK/libs/llvm\timer_dam_lib.lib(qapi_timer_user.o)	#SHT_PROGBITS,SHF_MERGE|SHF_STRINGS,1
	0x363		
.debug_str	0xcdd41	0x10	../../../Quectel_BG96_QuecOpen_SDK_Package_V3.0.1-AUS/SDK/libs/llvm\timer_dam_lib.lib(qapi_timer_user.o)	#SHT_PROGBITS,SHF_MERGE|SHF_STRINGS,1
	0x368		
.debug_str	0xcdd51	0x1a	../../../Quectel_BG96_QuecOpen_SDK_Package_V3.0.1-AUS/SDK/libs/llvm\timer_dam_lib.lib(qapi_timer_user.o)	#SHT_PROGBITS,SHF_MERGE|SHF_STRINGS,1
	0x378		
.debug_str	0xcdd6b	0x15	../../../Quectel_BG96_QuecOpen_SDK_Package_V3.0.1-AUS/SDK/libs/llvm\timer_dam_lib.lib(qapi_timer_user.o)	#SHT_PROGBITS,SHF_MERGE|SHF_STRINGS,1
	0x392		
.debug_str	0xcdd80	0x1c	../../../Quectel_BG96_QuecOpen_SDK_Package_V3.0.1-AUS/SDK/libs/llvm\timer_dam_lib.lib(qapi_timer_user.o)	#SHT_PROGBITS,SHF_MERGE|SHF_STRINGS,1
	0x3a7		
.debug_str	0xcdd9c	0x18	../../../Quectel_BG96_QuecOpen_SDK_Package_V3.0.1-AUS/SDK/libs/llvm\timer_dam_lib.lib(qapi_timer_user.o)	#SHT_PROGBITS,SHF_MERGE|SHF_STRINGS,1
	0x3c3		
.debug_str	0xcddb4	0x10	../../../Quectel_BG96_QuecOpen_SDK_Package_V3.0.1-AUS/SDK/libs/llvm\timer_dam_lib.lib(qapi_timer_user.o)	#SHT_PROGBITS,SHF_MERGE|SHF_STRINGS,1
	0x3db		
.debug_str	0xcddc4	0x1a	../../../Quectel_BG96_QuecOpen_SDK_Package_V3.0.1-AUS/SDK/libs/llvm\timer_dam_lib.lib(qapi_timer_user.o)	#SHT_PROGBITS,SHF_MERGE|SHF_STRINGS,1
	0x3eb		
.debug_str	0xcddde	0x10	../../../Quectel_BG96_QuecOpen_SDK_Package_V3.0.1-AUS/SDK/libs/llvm\timer_dam_lib.lib(qapi_timer_user.o)	#SHT_PROGBITS,SHF_MERGE|SHF_STRINGS,1
	0x405		
.debug_str	0xcddee	0x22	../../../Quectel_BG96_QuecOpen_SDK_Package_V3.0.1-AUS/SDK/libs/llvm\timer_dam_lib.lib(qapi_timer_user.o)	#SHT_PROGBITS,SHF_MERGE|SHF_STRINGS,1
	0x415		
.debug_str	0xcde10	0x26	../../../Quectel_BG96_QuecOpen_SDK_Package_V3.0.1-AUS/SDK/libs/llvm\timer_dam_lib.lib(qapi_timer_user.o)	#SHT_PROGBITS,SHF_MERGE|SHF_STRINGS,1
	0x437		
.debug_str	0xcde36	0x23	../../../Quectel_BG96_QuecOpen_SDK_Package_V3.0.1-AUS/SDK/libs/llvm\timer_dam_lib.lib(qapi_timer_user.o)	#SHT_PROGBITS,SHF_MERGE|SHF_STRINGS,1
	0x45d		
.debug_str	0xcde59	0x20	../../../Quectel_BG96_QuecOpen_SDK_Package_V3.0.1-AUS/SDK/libs/llvm\timer_dam_lib.lib(qapi_timer_user.o)	#SHT_PROGBITS,SHF_MERGE|SHF_STRINGS,1
	0x480		
.debug_str	0xcde79	0x1e	../../../Quectel_BG96_QuecOpen_SDK_Package_V3.0.1-AUS/SDK/libs/llvm\timer_dam_lib.lib(qapi_timer_user.o)	#SHT_PROGBITS,SHF_MERGE|SHF_STRINGS,1
	0x4a0		
.debug_str	0xcde97	0x22	../../../Quectel_BG96_QuecOpen_SDK_Package_V3.0.1-AUS/SDK/libs/llvm\timer_dam_lib.lib(qapi_timer_user.o)	#SHT_PROGBITS,SHF_MERGE|SHF_STRINGS,1
	0x4be		
.debug_str	0xcdeb9	0x1c	../../../Quectel_BG96_QuecOpen_SDK_Package_V3.0.1-AUS/SDK/libs/llvm\timer_dam_lib.lib(qapi_timer_user.o)	#SHT_PROGBITS,SHF_MERGE|SHF_STRINGS,1
	0x4e0		
.debug_str	0xcded5	0x19	../../../Quectel_BG96_QuecOpen_SDK_Package_V3.0.1-AUS/SDK/libs/llvm\timer_dam_lib.lib(qapi_timer_user.o)	#SHT_PROGBITS,SHF_MERGE|SHF_STRINGS,1
	0x4fc		
.debug_str	0xcdeee	0x12	../../../Quectel_BG96_QuecOpen_SDK_Package_V3.0.1-AUS/SDK/libs/llvm\timer_dam_lib.lib(qapi_timer_user.o)	#SHT_PROGBITS,SHF_MERGE|SHF_STRINGS,1
	0x515		
.debug_str	0xcdf00	0x1a	../../../Quectel_BG96_QuecOpen_SDK_Package_V3.0.1-AUS/SDK/libs/llvm\timer_dam_lib.lib(qapi_timer_user.o)	#SHT_PROGBITS,SHF_MERGE|SHF_STRINGS,1
	0x527		
.debug_str	0xcdf1a	0x20	../../../Quectel_BG96_QuecOpen_SDK_Package_V3.0.1-AUS/SDK/libs/llvm\timer_dam_lib.lib(qapi_timer_user.o)	#SHT_PROGBITS,SHF_MERGE|SHF_STRINGS,1
	0x541		
.debug_str	0xcdf3a	0x19	../../../Quectel_BG96_QuecOpen_SDK_Package_V3.0.1-AUS/SDK/libs/llvm\timer_dam_lib.lib(qapi_timer_user.o)	#SHT_PROGBITS,SHF_MERGE|SHF_STRINGS,1
	0x561		
.debug_str	0xcdf53	0x1d	../../../Quectel_BG96_QuecOpen_SDK_Package_V3.0.1-AUS/SDK/libs/llvm\timer_dam_lib.lib(qapi_timer_user.o)	#SHT_PROGBITS,SHF_MERGE|SHF_STRINGS,1
	0x57a		
.debug_str	0xcdf70	0x17	../../../Quectel_BG96_QuecOpen_SDK_Package_V3.0.1-AUS/SDK/libs/llvm\timer_dam_lib.lib(qapi_timer_user.o)	#SHT_PROGBITS,SHF_MERGE|SHF_STRINGS,1
	0x597		
.debug_str	0xcdf87	0x22	../../../Quectel_BG96_QuecOpen_SDK_Package_V3.0.1-AUS/SDK/libs/llvm\timer_dam_lib.lib(qapi_timer_user.o)	#SHT_PROGBITS,SHF_MERGE|SHF_STRINGS,1
	0x5ae		
.debug_str	0xcdfa9	0x19	../../../Quectel_BG96_QuecOpen_SDK_Package_V3.0.1-AUS/SDK/libs/llvm\timer_dam_lib.lib(qapi_timer_user.o)	#SHT_PROGBITS,SHF_MERGE|SHF_STRINGS,1
	0x5d0		
.debug_str	0xcdfc2	0x19	../../../Quectel_BG96_QuecOpen_SDK_Package_V3.0.1-AUS/SDK/libs/llvm\timer_dam_lib.lib(qapi_timer_user.o)	#SHT_PROGBITS,SHF_MERGE|SHF_STRINGS,1
	0x5e9		
.debug_str	0xcdfdb	0x17	../../../Quectel_BG96_QuecOpen_SDK_Package_V3.0.1-AUS/SDK/libs/llvm\timer_dam_lib.lib(qapi_timer_user.o)	#SHT_PROGBITS,SHF_MERGE|SHF_STRINGS,1
	0x602		
.debug_str	0xcdff2	0x1b	../../../Quectel_BG96_QuecOpen_SDK_Package_V3.0.1-AUS/SDK/libs/llvm\timer_dam_lib.lib(qapi_timer_user.o)	#SHT_PROGBITS,SHF_MERGE|SHF_STRINGS,1
	0x619		
.debug_str	0xce00d	0x15	../../../Quectel_BG96_QuecOpen_SDK_Package_V3.0.1-AUS/SDK/libs/llvm\timer_dam_lib.lib(qapi_timer_user.o)	#SHT_PROGBITS,SHF_MERGE|SHF_STRINGS,1
	0x634		
.debug_str	0xce022	0x1e	../../../Quectel_BG96_QuecOpen_SDK_Package_V3.0.1-AUS/SDK/libs/llvm\timer_dam_lib.lib(qapi_timer_user.o)	#SHT_PROGBITS,SHF_MERGE|SHF_STRINGS,1
	0x649		
.debug_str	0xce040	0x20	../../../Quectel_BG96_QuecOpen_SDK_Package_V3.0.1-AUS/SDK/libs/llvm\timer_dam_lib.lib(qapi_timer_user.o)	#SHT_PROGBITS,SHF_MERGE|SHF_STRINGS,1
	0x667		
.debug_str	0xce060	0x23	../../../Quectel_BG96_QuecOpen_SDK_Package_V3.0.1-AUS/SDK/libs/llvm\timer_dam_lib.lib(qapi_timer_user.o)	#SHT_PROGBITS,SHF_MERGE|SHF_STRINGS,1
	0x687		
.debug_str	0xce083	0x1b	../../../Quectel_BG96_QuecOpen_SDK_Package_V3.0.1-AUS/SDK/libs/llvm\timer_dam_lib.lib(qapi_timer_user.o)	#SHT_PROGBITS,SHF_MERGE|SHF_STRINGS,1
	0x6aa		
.debug_str	0xce09e	0x1d	../../../Quectel_BG96_QuecOpen_SDK_Package_V3.0.1-AUS/SDK/libs/llvm\timer_dam_lib.lib(qapi_timer_user.o)	#SHT_PROGBITS,SHF_MERGE|SHF_STRINGS,1
	0x6c5		
.debug_str	0xce0bb	0x18	../../../Quectel_BG96_QuecOpen_SDK_Package_V3.0.1-AUS/SDK/libs/llvm\timer_dam_lib.lib(qapi_timer_user.o)	#SHT_PROGBITS,SHF_MERGE|SHF_STRINGS,1
	0x6e2		
.debug_str	0xce0d3	0x21	../../../Quectel_BG96_QuecOpen_SDK_Package_V3.0.1-AUS/SDK/libs/llvm\timer_dam_lib.lib(qapi_timer_user.o)	#SHT_PROGBITS,SHF_MERGE|SHF_STRINGS,1
	0x6fa		
.debug_str	0xce0f4	0x1b	../../../Quectel_BG96_QuecOpen_SDK_Package_V3.0.1-AUS/SDK/libs/llvm\timer_dam_lib.lib(qapi_timer_user.o)	#SHT_PROGBITS,SHF_MERGE|SHF_STRINGS,1
	0x71b		
.debug_str	0xce10f	0x1c	../../../Quectel_BG96_QuecOpen_SDK_Package_V3.0.1-AUS/SDK/libs/llvm\timer_dam_lib.lib(qapi_timer_user.o)	#SHT_PROGBITS,SHF_MERGE|SHF_STRINGS,1
	0x736		
.debug_str	0xce12b	0x1b	../../../Quectel_BG96_QuecOpen_SDK_Package_V3.0.1-AUS/SDK/libs/llvm\timer_dam_lib.lib(qapi_timer_user.o)	#SHT_PROGBITS,SHF_MERGE|SHF_STRINGS,1
	0x752		
.debug_str	0xce146	0xc	../../../Quectel_BG96_QuecOpen_SDK_Package_V3.0.1-AUS/SDK/libs/llvm\timer_dam_lib.lib(qapi_timer_user.o)	#SHT_PROGBITS,SHF_MERGE|SHF_STRINGS,1
	0x76d		
.debug_str	0xce152	0xe	../../../Quectel_BG96_QuecOpen_SDK_Package_V3.0.1-AUS/SDK/libs/llvm\timer_dam_lib.lib(qapi_timer_user.o)	#SHT_PROGBITS,SHF_MERGE|SHF_STRINGS,1
	0x779		
.debug_str	0xce160	0x19	../../../Quectel_BG96_QuecOpen_SDK_Package_V3.0.1-AUS/SDK/libs/llvm\timer_dam_lib.lib(qapi_timer_user.o)	#SHT_PROGBITS,SHF_MERGE|SHF_STRINGS,1
	0x787		
.debug_str	0xce179	0xf	../../../Quectel_BG96_QuecOpen_SDK_Package_V3.0.1-AUS/SDK/libs/llvm\timer_dam_lib.lib(qapi_timer_user.o)	#SHT_PROGBITS,SHF_MERGE|SHF_STRINGS,1
	0x7a0		
.debug_str	0xce188	0x11	../../../Quectel_BG96_QuecOpen_SDK_Package_V3.0.1-AUS/SDK/libs/llvm\timer_dam_lib.lib(qapi_timer_user.o)	#SHT_PROGBITS,SHF_MERGE|SHF_STRINGS,1
	0x7af		
.debug_str	0xce199	0x1b	../../../Quectel_BG96_QuecOpen_SDK_Package_V3.0.1-AUS/SDK/libs/llvm\timer_dam_lib.lib(qapi_timer_user.o)	#SHT_PROGBITS,SHF_MERGE|SHF_STRINGS,1
	0x7c0		
.debug_str	0xce1b4	0x19	../../../Quectel_BG96_QuecOpen_SDK_Package_V3.0.1-AUS/SDK/libs/llvm\timer_dam_lib.lib(qapi_timer_user.o)	#SHT_PROGBITS,SHF_MERGE|SHF_STRINGS,1
	0x7db		
.debug_str	0xce1cd	0x19	../../../Quectel_BG96_QuecOpen_SDK_Package_V3.0.1-AUS/SDK/libs/llvm\timer_dam_lib.lib(qapi_timer_user.o)	#SHT_PROGBITS,SHF_MERGE|SHF_STRINGS,1
	0x7f4		
.debug_str	0xce1e6	0x16	../../../Quectel_BG96_QuecOpen_SDK_Package_V3.0.1-AUS/SDK/libs/llvm\timer_dam_lib.lib(qapi_timer_user.o)	#SHT_PROGBITS,SHF_MERGE|SHF_STRINGS,1
	0x80d		
.debug_str	0xce1fc	0x1a	../../../Quectel_BG96_QuecOpen_SDK_Package_V3.0.1-AUS/SDK/libs/llvm\timer_dam_lib.lib(qapi_timer_user.o)	#SHT_PROGBITS,SHF_MERGE|SHF_STRINGS,1
	0x823		
.debug_str	0xce216	0x22	../../../Quectel_BG96_QuecOpen_SDK_Package_V3.0.1-AUS/SDK/libs/llvm\timer_dam_lib.lib(qapi_timer_user.o)	#SHT_PROGBITS,SHF_MERGE|SHF_STRINGS,1
	0x83d		
.debug_str	0xce238	0x14	../../../Quectel_BG96_QuecOpen_SDK_Package_V3.0.1-AUS/SDK/libs/llvm\timer_dam_lib.lib(qapi_timer_user.o)	#SHT_PROGBITS,SHF_MERGE|SHF_STRINGS,1
	0x85f		
.debug_str	0xce24c	0x18	../../../Quectel_BG96_QuecOpen_SDK_Package_V3.0.1-AUS/SDK/libs/llvm\timer_dam_lib.lib(qapi_timer_user.o)	#SHT_PROGBITS,SHF_MERGE|SHF_STRINGS,1
	0x873		
.debug_str	0xce264	0x10	../../../Quectel_BG96_QuecOpen_SDK_Package_V3.0.1-AUS/SDK/libs/llvm\timer_dam_lib.lib(qapi_timer_user.o)	#SHT_PROGBITS,SHF_MERGE|SHF_STRINGS,1
	0x88b		
.debug_str	0xce274	0x1c	../../../Quectel_BG96_QuecOpen_SDK_Package_V3.0.1-AUS/SDK/libs/llvm\timer_dam_lib.lib(qapi_timer_user.o)	#SHT_PROGBITS,SHF_MERGE|SHF_STRINGS,1
	0x89b		
.debug_str	0xce290	0x4	../../../Quectel_BG96_QuecOpen_SDK_Package_V3.0.1-AUS/SDK/libs/llvm\timer_dam_lib.lib(qapi_timer_user.o)	#SHT_PROGBITS,SHF_MERGE|SHF_STRINGS,1
	0x8b7		
.debug_str	0xce294	0x9	../../../Quectel_BG96_QuecOpen_SDK_Package_V3.0.1-AUS/SDK/libs/llvm\timer_dam_lib.lib(qapi_timer_user.o)	#SHT_PROGBITS,SHF_MERGE|SHF_STRINGS,1
	0x8bb		
.debug_str	0xce29d	0x15	../../../Quectel_BG96_QuecOpen_SDK_Package_V3.0.1-AUS/SDK/libs/llvm\timer_dam_lib.lib(qapi_timer_user.o)	#SHT_PROGBITS,SHF_MERGE|SHF_STRINGS,1
	0x8c4		
.debug_str	0xce2b2	0x17	../../../Quectel_BG96_QuecOpen_SDK_Package_V3.0.1-AUS/SDK/libs/llvm\timer_dam_lib.lib(qapi_timer_user.o)	#SHT_PROGBITS,SHF_MERGE|SHF_STRINGS,1
	0x8d9		
.debug_str	0xce2c9	0x1a	../../../Quectel_BG96_QuecOpen_SDK_Package_V3.0.1-AUS/SDK/libs/llvm\timer_dam_lib.lib(qapi_timer_user.o)	#SHT_PROGBITS,SHF_MERGE|SHF_STRINGS,1
	0x8f0		
.debug_str	0xce2e3	0x15	../../../Quectel_BG96_QuecOpen_SDK_Package_V3.0.1-AUS/SDK/libs/llvm\timer_dam_lib.lib(qapi_timer_user.o)	#SHT_PROGBITS,SHF_MERGE|SHF_STRINGS,1
	0x90a		
.debug_str	0xce2f8	0x11	../../../Quectel_BG96_QuecOpen_SDK_Package_V3.0.1-AUS/SDK/libs/llvm\timer_dam_lib.lib(qapi_timer_user.o)	#SHT_PROGBITS,SHF_MERGE|SHF_STRINGS,1
	0x91f		
.debug_str	0xce309	0xa	../../../Quectel_BG96_QuecOpen_SDK_Package_V3.0.1-AUS/SDK/libs/llvm\timer_dam_lib.lib(qapi_timer_user.o)	#SHT_PROGBITS,SHF_MERGE|SHF_STRINGS,1
	0x930		
.debug_str	0xce313	0x13	../../../Quectel_BG96_QuecOpen_SDK_Package_V3.0.1-AUS/SDK/libs/llvm\timer_dam_lib.lib(qapi_timer_user.o)	#SHT_PROGBITS,SHF_MERGE|SHF_STRINGS,1
	0x93a		
.debug_str	0xce326	0xe	../../../Quectel_BG96_QuecOpen_SDK_Package_V3.0.1-AUS/SDK/libs/llvm\timer_dam_lib.lib(qapi_timer_user.o)	#SHT_PROGBITS,SHF_MERGE|SHF_STRINGS,1
	0x94d		
.debug_str	0xce334	0x6	../../../Quectel_BG96_QuecOpen_SDK_Package_V3.0.1-AUS/SDK/libs/llvm\timer_dam_lib.lib(qapi_timer_user.o)	#SHT_PROGBITS,SHF_MERGE|SHF_STRINGS,1
	0x95b		
.debug_str	0xce33a	0x12	../../../Quectel_BG96_QuecOpen_SDK_Package_V3.0.1-AUS/SDK/libs/llvm\timer_dam_lib.lib(qapi_timer_user.o)	#SHT_PROGBITS,SHF_MERGE|SHF_STRINGS,1
	0x961		
.debug_str	0xce34c	0x13	../../../Quectel_BG96_QuecOpen_SDK_Package_V3.0.1-AUS/SDK/libs/llvm\timer_dam_lib.lib(qapi_timer_user.o)	#SHT_PROGBITS,SHF_MERGE|SHF_STRINGS,1
	0x973		
.debug_str	0xce35f	0x1a	../../../Quectel_BG96_QuecOpen_SDK_Package_V3.0.1-AUS/SDK/libs/llvm\timer_dam_lib.lib(qapi_timer_user.o)	#SHT_PROGBITS,SHF_MERGE|SHF_STRINGS,1
	0x986		
.debug_str	0xce379	0x21	../../../Quectel_BG96_QuecOpen_SDK_Package_V3.0.1-AUS/SDK/libs/llvm\timer_dam_lib.lib(qapi_timer_user.o)	#SHT_PROGBITS,SHF_MERGE|SHF_STRINGS,1
	0x9a0		
.debug_str	0xce39a	0x19	../../../Quectel_BG96_QuecOpen_SDK_Package_V3.0.1-AUS/SDK/libs/llvm\timer_dam_lib.lib(qapi_timer_user.o)	#SHT_PROGBITS,SHF_MERGE|SHF_STRINGS,1
	0x9c1		
.debug_str	0xce3b3	0x1f	../../../Quectel_BG96_QuecOpen_SDK_Package_V3.0.1-AUS/SDK/libs/llvm\timer_dam_lib.lib(qapi_timer_user.o)	#SHT_PROGBITS,SHF_MERGE|SHF_STRINGS,1
	0x9da		
.debug_str	0xce3d2	0x15	../../../Quectel_BG96_QuecOpen_SDK_Package_V3.0.1-AUS/SDK/libs/llvm\timer_dam_lib.lib(qapi_timer_user.o)	#SHT_PROGBITS,SHF_MERGE|SHF_STRINGS,1
	0x9f9		
.debug_str	0xce3e7	0x15	../../../Quectel_BG96_QuecOpen_SDK_Package_V3.0.1-AUS/SDK/libs/llvm\timer_dam_lib.lib(qapi_timer_user.o)	#SHT_PROGBITS,SHF_MERGE|SHF_STRINGS,1
	0xa0e		
.debug_str	0xce3fc	0x15	../../../Quectel_BG96_QuecOpen_SDK_Package_V3.0.1-AUS/SDK/libs/llvm\timer_dam_lib.lib(qapi_timer_user.o)	#SHT_PROGBITS,SHF_MERGE|SHF_STRINGS,1
	0xa23		
.debug_str	0xce411	0x14	../../../Quectel_BG96_QuecOpen_SDK_Package_V3.0.1-AUS/SDK/libs/llvm\timer_dam_lib.lib(qapi_timer_user.o)	#SHT_PROGBITS,SHF_MERGE|SHF_STRINGS,1
	0xa38		
.debug_str	0xce425	0x14	../../../Quectel_BG96_QuecOpen_SDK_Package_V3.0.1-AUS/SDK/libs/llvm\timer_dam_lib.lib(qapi_timer_user.o)	#SHT_PROGBITS,SHF_MERGE|SHF_STRINGS,1
	0xa4c		
.debug_str	0xce439	0x15	../../../Quectel_BG96_QuecOpen_SDK_Package_V3.0.1-AUS/SDK/libs/llvm\timer_dam_lib.lib(qapi_timer_user.o)	#SHT_PROGBITS,SHF_MERGE|SHF_STRINGS,1
	0xa60		
.debug_str	0xce44e	0x14	../../../Quectel_BG96_QuecOpen_SDK_Package_V3.0.1-AUS/SDK/libs/llvm\timer_dam_lib.lib(qapi_timer_user.o)	#SHT_PROGBITS,SHF_MERGE|SHF_STRINGS,1
	0xa75		
.debug_str	0xce462	0x21	../../../Quectel_BG96_QuecOpen_SDK_Package_V3.0.1-AUS/SDK/libs/llvm\timer_dam_lib.lib(qapi_timer_user.o)	#SHT_PROGBITS,SHF_MERGE|SHF_STRINGS,1
	0xa89		
.debug_str	0xce483	0x25	../../../Quectel_BG96_QuecOpen_SDK_Package_V3.0.1-AUS/SDK/libs/llvm\timer_dam_lib.lib(qapi_timer_user.o)	#SHT_PROGBITS,SHF_MERGE|SHF_STRINGS,1
	0xaaa		
.debug_str	0xce4a8	0x26	../../../Quectel_BG96_QuecOpen_SDK_Package_V3.0.1-AUS/SDK/libs/llvm\timer_dam_lib.lib(qapi_timer_user.o)	#SHT_PROGBITS,SHF_MERGE|SHF_STRINGS,1
	0xacf		
.debug_str	0xce4ce	0x1a	../../../Quectel_BG96_QuecOpen_SDK_Package_V3.0.1-AUS/SDK/libs/llvm\timer_dam_lib.lib(qapi_timer_user.o)	#SHT_PROGBITS,SHF_MERGE|SHF_STRINGS,1
	0xaf5		
.debug_str	0xce4e8	0x10	../../../Quectel_BG96_QuecOpen_SDK_Package_V3.0.1-AUS/SDK/libs/llvm\timer_dam_lib.lib(qapi_timer_user.o)	#SHT_PROGBITS,SHF_MERGE|SHF_STRINGS,1
	0xb0f		
.debug_str	0xce4f8	0x10	../../../Quectel_BG96_QuecOpen_SDK_Package_V3.0.1-AUS/SDK/libs/llvm\timer_dam_lib.lib(qapi_timer_user.o)	#SHT_PROGBITS,SHF_MERGE|SHF_STRINGS,1
	0xb1f		
.debug_str	0xce508	0xf	../../../Quectel_BG96_QuecOpen_SDK_Package_V3.0.1-AUS/SDK/libs/llvm\timer_dam_lib.lib(qapi_timer_user.o)	#SHT_PROGBITS,SHF_MERGE|SHF_STRINGS,1
	0xb2f		
.debug_str	0xce517	0x11	../../../Quectel_BG96_QuecOpen_SDK_Package_V3.0.1-AUS/SDK/libs/llvm\timer_dam_lib.lib(qapi_timer_user.o)	#SHT_PROGBITS,SHF_MERGE|SHF_STRINGS,1
	0xb3e		
.debug_str	0xce528	0x4	../../../Quectel_BG96_QuecOpen_SDK_Package_V3.0.1-AUS/SDK/libs/llvm\timer_dam_lib.lib(qapi_timer_user.o)	#SHT_PROGBITS,SHF_MERGE|SHF_STRINGS,1
	0xb4f		
.debug_str	0xce52c	0x8	../../../Quectel_BG96_QuecOpen_SDK_Package_V3.0.1-AUS/SDK/libs/llvm\timer_dam_lib.lib(qapi_timer_user.o)	#SHT_PROGBITS,SHF_MERGE|SHF_STRINGS,1
	0xb53		
.debug_str	0xce534	0xe	../../../Quectel_BG96_QuecOpen_SDK_Package_V3.0.1-AUS/SDK/libs/llvm\timer_dam_lib.lib(qapi_timer_user.o)	#SHT_PROGBITS,SHF_MERGE|SHF_STRINGS,1
	0xb5b		
.debug_str	0xce542	0x10	../../../Quectel_BG96_QuecOpen_SDK_Package_V3.0.1-AUS/SDK/libs/llvm\timer_dam_lib.lib(qapi_timer_user.o)	#SHT_PROGBITS,SHF_MERGE|SHF_STRINGS,1
	0xb69		
.debug_str	0xce552	0x16	../../../Quectel_BG96_QuecOpen_SDK_Package_V3.0.1-AUS/SDK/libs/llvm\timer_dam_lib.lib(qapi_timer_user.o)	#SHT_PROGBITS,SHF_MERGE|SHF_STRINGS,1
	0xb79		
.debug_str	0xce568	0x18	../../../Quectel_BG96_QuecOpen_SDK_Package_V3.0.1-AUS/SDK/libs/llvm\timer_dam_lib.lib(qapi_timer_user.o)	#SHT_PROGBITS,SHF_MERGE|SHF_STRINGS,1
	0xb8f		
.debug_str	0xce580	0x15	../../../Quectel_BG96_QuecOpen_SDK_Package_V3.0.1-AUS/SDK/libs/llvm\timer_dam_lib.lib(qapi_timer_user.o)	#SHT_PROGBITS,SHF_MERGE|SHF_STRINGS,1
	0xba7		
.debug_str	0xce595	0xf	../../../Quectel_BG96_QuecOpen_SDK_Package_V3.0.1-AUS/SDK/libs/llvm\timer_dam_lib.lib(qapi_timer_user.o)	#SHT_PROGBITS,SHF_MERGE|SHF_STRINGS,1
	0xbbc		
.debug_str	0xce5a4	0xf	../../../Quectel_BG96_QuecOpen_SDK_Package_V3.0.1-AUS/SDK/libs/llvm\timer_dam_lib.lib(qapi_timer_user.o)	#SHT_PROGBITS,SHF_MERGE|SHF_STRINGS,1
	0xbcb		
.debug_str	0xce5b3	0x1a	../../../Quectel_BG96_QuecOpen_SDK_Package_V3.0.1-AUS/SDK/libs/llvm\timer_dam_lib.lib(qapi_timer_user.o)	#SHT_PROGBITS,SHF_MERGE|SHF_STRINGS,1
	0xbda		
.debug_str	0xce5cd	0x11	../../../Quectel_BG96_QuecOpen_SDK_Package_V3.0.1-AUS/SDK/libs/llvm\timer_dam_lib.lib(qapi_timer_user.o)	#SHT_PROGBITS,SHF_MERGE|SHF_STRINGS,1
	0xbf4		
.debug_str	0xce5de	0x11	../../../Quectel_BG96_QuecOpen_SDK_Package_V3.0.1-AUS/SDK/libs/llvm\timer_dam_lib.lib(qapi_timer_user.o)	#SHT_PROGBITS,SHF_MERGE|SHF_STRINGS,1
	0xc05		
.debug_str	0xce5ef	0x10	../../../Quectel_BG96_QuecOpen_SDK_Package_V3.0.1-AUS/SDK/libs/llvm\timer_dam_lib.lib(qapi_timer_user.o)	#SHT_PROGBITS,SHF_MERGE|SHF_STRINGS,1
	0xc16		
.debug_str	0xce5ff	0xe	../../../Quectel_BG96_QuecOpen_SDK_Package_V3.0.1-AUS/SDK/libs/llvm\timer_dam_lib.lib(qapi_timer_user.o)	#SHT_PROGBITS,SHF_MERGE|SHF_STRINGS,1
	0xc26		
.debug_str	0xce60d	0xe	../../../Quectel_BG96_QuecOpen_SDK_Package_V3.0.1-AUS/SDK/libs/llvm\timer_dam_lib.lib(qapi_timer_user.o)	#SHT_PROGBITS,SHF_MERGE|SHF_STRINGS,1
	0xc34		
.debug_str	0xce61b	0x9	../../../Quectel_BG96_QuecOpen_SDK_Package_V3.0.1-AUS/SDK/libs/llvm\timer_dam_lib.lib(qapi_timer_user.o)	#SHT_PROGBITS,SHF_MERGE|SHF_STRINGS,1
	0xc42		
.debug_str	0xce624	0x5	../../../Quectel_BG96_QuecOpen_SDK_Package_V3.0.1-AUS/SDK/libs/llvm\timer_dam_lib.lib(qapi_timer_user.o)	#SHT_PROGBITS,SHF_MERGE|SHF_STRINGS,1
	0xc4b		
.debug_str	0xce629	0x18	../../../Quectel_BG96_QuecOpen_SDK_Package_V3.0.1-AUS/SDK/libs/llvm\timer_dam_lib.lib(qapi_timer_user.o)	#SHT_PROGBITS,SHF_MERGE|SHF_STRINGS,1
	0xc50		
.debug_str	0xce641	0x4	../../../Quectel_BG96_QuecOpen_SDK_Package_V3.0.1-AUS/SDK/libs/llvm\timer_dam_lib.lib(qapi_timer_user.o)	#SHT_PROGBITS,SHF_MERGE|SHF_STRINGS,1
	0xc68		
.debug_str	0xce645	0xd	../../../Quectel_BG96_QuecOpen_SDK_Package_V3.0.1-AUS/SDK/libs/llvm\timer_dam_lib.lib(qapi_timer_user.o)	#SHT_PROGBITS,SHF_MERGE|SHF_STRINGS,1
	0xc6c		
.debug_str	0xce652	0x14	../../../Quectel_BG96_QuecOpen_SDK_Package_V3.0.1-AUS/SDK/libs/llvm\timer_dam_lib.lib(qapi_timer_user.o)	#SHT_PROGBITS,SHF_MERGE|SHF_STRINGS,1
	0xc79		
.debug_str	0xce666	0xb	../../../Quectel_BG96_QuecOpen_SDK_Package_V3.0.1-AUS/SDK/libs/llvm\timer_dam_lib.lib(qapi_timer_user.o)	#SHT_PROGBITS,SHF_MERGE|SHF_STRINGS,1
	0xc8d		
.debug_str	0xce671	0xb	../../../Quectel_BG96_QuecOpen_SDK_Package_V3.0.1-AUS/SDK/libs/llvm\timer_dam_lib.lib(qapi_timer_user.o)	#SHT_PROGBITS,SHF_MERGE|SHF_STRINGS,1
	0xc98		
.debug_str	0xce67c	0x8	../../../Quectel_BG96_QuecOpen_SDK_Package_V3.0.1-AUS/SDK/libs/llvm\timer_dam_lib.lib(qapi_timer_user.o)	#SHT_PROGBITS,SHF_MERGE|SHF_STRINGS,1
	0xca3		
.debug_str	0xce684	0x8	../../../Quectel_BG96_QuecOpen_SDK_Package_V3.0.1-AUS/SDK/libs/llvm\timer_dam_lib.lib(qapi_timer_user.o)	#SHT_PROGBITS,SHF_MERGE|SHF_STRINGS,1
	0xcab		
.debug_str	0xce68c	0x14	../../../Quectel_BG96_QuecOpen_SDK_Package_V3.0.1-AUS/SDK/libs/llvm\timer_dam_lib.lib(qapi_timer_user.o)	#SHT_PROGBITS,SHF_MERGE|SHF_STRINGS,1
	0xcb3		
.debug_str	0xce6a0	0xe	../../../Quectel_BG96_QuecOpen_SDK_Package_V3.0.1-AUS/SDK/libs/llvm\timer_dam_lib.lib(qapi_timer_user.o)	#SHT_PROGBITS,SHF_MERGE|SHF_STRINGS,1
	0xcc7		
.debug_str	0xce6ae	0xf	../../../Quectel_BG96_QuecOpen_SDK_Package_V3.0.1-AUS/SDK/libs/llvm\timer_dam_lib.lib(qapi_timer_user.o)	#SHT_PROGBITS,SHF_MERGE|SHF_STRINGS,1
	0xcd5		
.debug_str	0xce6bd	0x19	../../../Quectel_BG96_QuecOpen_SDK_Package_V3.0.1-AUS/SDK/libs/llvm\timer_dam_lib.lib(qapi_timer_user.o)	#SHT_PROGBITS,SHF_MERGE|SHF_STRINGS,1
	0xce4		
.debug_str	0xce6d6	0x5	../../../Quectel_BG96_QuecOpen_SDK_Package_V3.0.1-AUS/SDK/libs/llvm\timer_dam_lib.lib(qapi_timer_user.o)	#SHT_PROGBITS,SHF_MERGE|SHF_STRINGS,1
	0xcfd		
.debug_str	0xce6db	0x9	../../../Quectel_BG96_QuecOpen_SDK_Package_V3.0.1-AUS/SDK/libs/llvm\timer_dam_lib.lib(qapi_timer_user.o)	#SHT_PROGBITS,SHF_MERGE|SHF_STRINGS,1
	0xd02		
.debug_str	0xce6e4	0x7	../../../Quectel_BG96_QuecOpen_SDK_Package_V3.0.1-AUS/SDK/libs/llvm\timer_dam_lib.lib(qapi_timer_user.o)	#SHT_PROGBITS,SHF_MERGE|SHF_STRINGS,1
	0xd0b		
.debug_str	0xce6eb	0x5	../../../Quectel_BG96_QuecOpen_SDK_Package_V3.0.1-AUS/SDK/libs/llvm\timer_dam_lib.lib(qapi_timer_user.o)	#SHT_PROGBITS,SHF_MERGE|SHF_STRINGS,1
	0xd12		
.debug_str	0xce6f0	0x15	../../../Quectel_BG96_QuecOpen_SDK_Package_V3.0.1-AUS/SDK/libs/llvm\timer_dam_lib.lib(qapi_timer_user.o)	#SHT_PROGBITS,SHF_MERGE|SHF_STRINGS,1
	0xd17		
.debug_str	0xce705	0x16	../../../Quectel_BG96_QuecOpen_SDK_Package_V3.0.1-AUS/SDK/libs/llvm\timer_dam_lib.lib(qapi_timer_user.o)	#SHT_PROGBITS,SHF_MERGE|SHF_STRINGS,1
	0xd2c		
.debug_str	0xce71b	0x14	../../../Quectel_BG96_QuecOpen_SDK_Package_V3.0.1-AUS/SDK/libs/llvm\timer_dam_lib.lib(qapi_timer_user.o)	#SHT_PROGBITS,SHF_MERGE|SHF_STRINGS,1
	0xd42		
.debug_str	0xce72f	0xb	../../../Quectel_BG96_QuecOpen_SDK_Package_V3.0.1-AUS/SDK/libs/llvm\timer_dam_lib.lib(qapi_timer_user.o)	#SHT_PROGBITS,SHF_MERGE|SHF_STRINGS,1
	0xd56		
.debug_str	0xce73a	0x15	../../../Quectel_BG96_QuecOpen_SDK_Package_V3.0.1-AUS/SDK/libs/llvm\timer_dam_lib.lib(qapi_timer_user.o)	#SHT_PROGBITS,SHF_MERGE|SHF_STRINGS,1
	0xd61		
.debug_str	0xce74f	0x1b	../../../Quectel_BG96_QuecOpen_SDK_Package_V3.0.1-AUS/SDK/libs/llvm\timer_dam_lib.lib(qapi_timer_user.o)	#SHT_PROGBITS,SHF_MERGE|SHF_STRINGS,1
	0xd76		
.debug_str	0xce76a	0xf	../../../Quectel_BG96_QuecOpen_SDK_Package_V3.0.1-AUS/SDK/libs/llvm\timer_dam_lib.lib(qapi_timer_user.o)	#SHT_PROGBITS,SHF_MERGE|SHF_STRINGS,1
	0xd91		
.debug_str	0xce779	0x8	../../../Quectel_BG96_QuecOpen_SDK_Package_V3.0.1-AUS/SDK/libs/llvm\timer_dam_lib.lib(qapi_timer_user.o)	#SHT_PROGBITS,SHF_MERGE|SHF_STRINGS,1
	0xda0		
.debug_str	0xce781	0xe	../../../Quectel_BG96_QuecOpen_SDK_Package_V3.0.1-AUS/SDK/libs/llvm\timer_dam_lib.lib(qapi_timer_user.o)	#SHT_PROGBITS,SHF_MERGE|SHF_STRINGS,1
	0xda8		
.debug_str	0xce78f	0x14	../../../Quectel_BG96_QuecOpen_SDK_Package_V3.0.1-AUS/SDK/libs/llvm\timer_dam_lib.lib(qapi_timer_user.o)	#SHT_PROGBITS,SHF_MERGE|SHF_STRINGS,1
	0xdb6		
.debug_str	0xce7a3	0x8	../../../Quectel_BG96_QuecOpen_SDK_Package_V3.0.1-AUS/SDK/libs/llvm\timer_dam_lib.lib(qapi_timer_user.o)	#SHT_PROGBITS,SHF_MERGE|SHF_STRINGS,1
	0xdca		
.debug_str	0xce7ab	0xb	../../../Quectel_BG96_QuecOpen_SDK_Package_V3.0.1-AUS/SDK/libs/llvm\timer_dam_lib.lib(qapi_timer_user.o)	#SHT_PROGBITS,SHF_MERGE|SHF_STRINGS,1
	0xdd2		
.debug_str	0xce7b6	0xf	../../../Quectel_BG96_QuecOpen_SDK_Package_V3.0.1-AUS/SDK/libs/llvm\timer_dam_lib.lib(qapi_timer_user.o)	#SHT_PROGBITS,SHF_MERGE|SHF_STRINGS,1
	0xddd		
.debug_str	0xce7c5	0xb	../../../Quectel_BG96_QuecOpen_SDK_Package_V3.0.1-AUS/SDK/libs/llvm\timer_dam_lib.lib(qapi_timer_user.o)	#SHT_PROGBITS,SHF_MERGE|SHF_STRINGS,1
	0xdec		
.debug_str	0xce7d0	0xa	../../../Quectel_BG96_QuecOpen_SDK_Package_V3.0.1-AUS/SDK/libs/llvm\timer_dam_lib.lib(qapi_timer_user.o)	#SHT_PROGBITS,SHF_MERGE|SHF_STRINGS,1
	0xdf7		
.debug_str	0xce7da	0xc	../../../Quectel_BG96_QuecOpen_SDK_Package_V3.0.1-AUS/SDK/libs/llvm\timer_dam_lib.lib(qapi_timer_user.o)	#SHT_PROGBITS,SHF_MERGE|SHF_STRINGS,1
	0xe01		
.debug_str	0xce7e6	0x5	../../../Quectel_BG96_QuecOpen_SDK_Package_V3.0.1-AUS/SDK/libs/llvm\timer_dam_lib.lib(qapi_timer_user.o)	#SHT_PROGBITS,SHF_MERGE|SHF_STRINGS,1
	0xe0d		
.debug_str	0xce7eb	0xf	../../../Quectel_BG96_QuecOpen_SDK_Package_V3.0.1-AUS/SDK/libs/llvm\timer_dam_lib.lib(qapi_timer_user.o)	#SHT_PROGBITS,SHF_MERGE|SHF_STRINGS,1
	0xe12		
.debug_str	0xce7fa	0x9	../../../Quectel_BG96_QuecOpen_SDK_Package_V3.0.1-AUS/SDK/libs/llvm\timer_dam_lib.lib(qapi_timer_user.o)	#SHT_PROGBITS,SHF_MERGE|SHF_STRINGS,1
	0xe21		
.debug_str	0xce803	0x6	../../../Quectel_BG96_QuecOpen_SDK_Package_V3.0.1-AUS/SDK/libs/llvm\timer_dam_lib.lib(qapi_timer_user.o)	#SHT_PROGBITS,SHF_MERGE|SHF_STRINGS,1
	0xe2a		
.debug_str	0xce809	0x4	../../../Quectel_BG96_QuecOpen_SDK_Package_V3.0.1-AUS/SDK/libs/llvm\timer_dam_lib.lib(qapi_timer_user.o)	#SHT_PROGBITS,SHF_MERGE|SHF_STRINGS,1
	0xe30		
.debug_str	0xce80d	0x5	../../../Quectel_BG96_QuecOpen_SDK_Package_V3.0.1-AUS/SDK/libs/llvm\timer_dam_lib.lib(qapi_timer_user.o)	#SHT_PROGBITS,SHF_MERGE|SHF_STRINGS,1
	0xe34		
.debug_str	0xce812	0x7	../../../Quectel_BG96_QuecOpen_SDK_Package_V3.0.1-AUS/SDK/libs/llvm\timer_dam_lib.lib(qapi_timer_user.o)	#SHT_PROGBITS,SHF_MERGE|SHF_STRINGS,1
	0xe39		
.debug_str	0xce819	0x7	../../../Quectel_BG96_QuecOpen_SDK_Package_V3.0.1-AUS/SDK/libs/llvm\timer_dam_lib.lib(qapi_timer_user.o)	#SHT_PROGBITS,SHF_MERGE|SHF_STRINGS,1
	0xe40		
.debug_str	0xce820	0xc	../../../Quectel_BG96_QuecOpen_SDK_Package_V3.0.1-AUS/SDK/libs/llvm\timer_dam_lib.lib(qapi_timer_user.o)	#SHT_PROGBITS,SHF_MERGE|SHF_STRINGS,1
	0xe47		
.debug_str	0xce82c	0x16	../../../Quectel_BG96_QuecOpen_SDK_Package_V3.0.1-AUS/SDK/libs/llvm\timer_dam_lib.lib(qapi_timer_user.o)	#SHT_PROGBITS,SHF_MERGE|SHF_STRINGS,1
	0xe53		
.debug_str	0xce842	0x10	../../../Quectel_BG96_QuecOpen_SDK_Package_V3.0.1-AUS/SDK/libs/llvm\timer_dam_lib.lib(qapi_timer_user.o)	#SHT_PROGBITS,SHF_MERGE|SHF_STRINGS,1
	0xe69		
.debug_str	0xce852	0xa9	../../../Quectel_BG96_QuecOpen_SDK_Package_V3.0.1-AUS/SDK/libs/llvm\txm_lib.lib(txm_module_thread_shell_entry.o)	#SHT_PROGBITS,SHF_MERGE|SHF_STRINGS,1
	0xe79		
.debug_str	0xce8fb	0x17	../../../Quectel_BG96_QuecOpen_SDK_Package_V3.0.1-AUS/SDK/libs/llvm\txm_lib.lib(txm_module_thread_shell_entry.o)	#SHT_PROGBITS,SHF_MERGE|SHF_STRINGS,1
	0xf22		
.debug_str	0xce912	0x24	../../../Quectel_BG96_QuecOpen_SDK_Package_V3.0.1-AUS/SDK/libs/llvm\txm_lib.lib(txm_module_thread_shell_entry.o)	#SHT_PROGBITS,SHF_MERGE|SHF_STRINGS,1
	0xf39		
.debug_str	0xce936	0x24	../../../Quectel_BG96_QuecOpen_SDK_Package_V3.0.1-AUS/SDK/libs/llvm\txm_lib.lib(txm_module_thread_shell_entry.o)	#SHT_PROGBITS,SHF_MERGE|SHF_STRINGS,1
	0xf5d		
.debug_str	0xce95a	0x17	../../../Quectel_BG96_QuecOpen_SDK_Package_V3.0.1-AUS/SDK/libs/llvm\txm_lib.lib(txm_module_thread_shell_entry.o)	#SHT_PROGBITS,SHF_MERGE|SHF_STRINGS,1
	0xf81		
.debug_str	0xce971	0x19	../../../Quectel_BG96_QuecOpen_SDK_Package_V3.0.1-AUS/SDK/libs/llvm\txm_lib.lib(txm_module_thread_shell_entry.o)	#SHT_PROGBITS,SHF_MERGE|SHF_STRINGS,1
	0xf98		
.debug_str	0xce98a	0x1a	../../../Quectel_BG96_QuecOpen_SDK_Package_V3.0.1-AUS/SDK/libs/llvm\txm_lib.lib(txm_module_thread_shell_entry.o)	#SHT_PROGBITS,SHF_MERGE|SHF_STRINGS,1
	0xfb1		
.debug_str	0xce9a4	0x23	../../../Quectel_BG96_QuecOpen_SDK_Package_V3.0.1-AUS/SDK/libs/llvm\txm_lib.lib(txm_module_thread_shell_entry.o)	#SHT_PROGBITS,SHF_MERGE|SHF_STRINGS,1
	0xfcb		
.debug_str	0xce9c7	0x28	../../../Quectel_BG96_QuecOpen_SDK_Package_V3.0.1-AUS/SDK/libs/llvm\txm_lib.lib(txm_module_thread_shell_entry.o)	#SHT_PROGBITS,SHF_MERGE|SHF_STRINGS,1
	0xfee		
.debug_str	0xce9ef	0x29	../../../Quectel_BG96_QuecOpen_SDK_Package_V3.0.1-AUS/SDK/libs/llvm\txm_lib.lib(txm_module_thread_shell_entry.o)	#SHT_PROGBITS,SHF_MERGE|SHF_STRINGS,1
	0x1016		
.debug_str	0xcea18	0x1f	../../../Quectel_BG96_QuecOpen_SDK_Package_V3.0.1-AUS/SDK/libs/llvm\txm_lib.lib(txm_module_thread_shell_entry.o)	#SHT_PROGBITS,SHF_MERGE|SHF_STRINGS,1
	0x103f		
.debug_str	0xcea37	0x1d	../../../Quectel_BG96_QuecOpen_SDK_Package_V3.0.1-AUS/SDK/libs/llvm\txm_lib.lib(txm_module_thread_shell_entry.o)	#SHT_PROGBITS,SHF_MERGE|SHF_STRINGS,1
	0x105e		
.debug_str	0xcea54	0x1e	../../../Quectel_BG96_QuecOpen_SDK_Package_V3.0.1-AUS/SDK/libs/llvm\txm_lib.lib(txm_module_thread_shell_entry.o)	#SHT_PROGBITS,SHF_MERGE|SHF_STRINGS,1
	0x107b		
.debug_str	0xcea72	0x28	../../../Quectel_BG96_QuecOpen_SDK_Package_V3.0.1-AUS/SDK/libs/llvm\txm_lib.lib(txm_module_thread_shell_entry.o)	#SHT_PROGBITS,SHF_MERGE|SHF_STRINGS,1
	0x1099		
.debug_str	0xcea9a	0x29	../../../Quectel_BG96_QuecOpen_SDK_Package_V3.0.1-AUS/SDK/libs/llvm\txm_lib.lib(txm_module_thread_shell_entry.o)	#SHT_PROGBITS,SHF_MERGE|SHF_STRINGS,1
	0x10c1		
.debug_str	0xceac3	0x1f	../../../Quectel_BG96_QuecOpen_SDK_Package_V3.0.1-AUS/SDK/libs/llvm\txm_lib.lib(txm_module_thread_shell_entry.o)	#SHT_PROGBITS,SHF_MERGE|SHF_STRINGS,1
	0x10ea		
.debug_str	0xceae2	0x1d	../../../Quectel_BG96_QuecOpen_SDK_Package_V3.0.1-AUS/SDK/libs/llvm\txm_lib.lib(txm_module_thread_shell_entry.o)	#SHT_PROGBITS,SHF_MERGE|SHF_STRINGS,1
	0x1109		
.debug_str	0xceaff	0x2d	../../../Quectel_BG96_QuecOpen_SDK_Package_V3.0.1-AUS/SDK/libs/llvm\txm_lib.lib(txm_module_thread_shell_entry.o)	#SHT_PROGBITS,SHF_MERGE|SHF_STRINGS,1
	0x1126		
.debug_str	0xceb2c	0x1e	../../../Quectel_BG96_QuecOpen_SDK_Package_V3.0.1-AUS/SDK/libs/llvm\txm_lib.lib(txm_module_thread_shell_entry.o)	#SHT_PROGBITS,SHF_MERGE|SHF_STRINGS,1
	0x1153		
.debug_str	0xceb4a	0x24	../../../Quectel_BG96_QuecOpen_SDK_Package_V3.0.1-AUS/SDK/libs/llvm\txm_lib.lib(txm_module_thread_shell_entry.o)	#SHT_PROGBITS,SHF_MERGE|SHF_STRINGS,1
	0x1171		
.debug_str	0xceb6e	0x33	../../../Quectel_BG96_QuecOpen_SDK_Package_V3.0.1-AUS/SDK/libs/llvm\txm_lib.lib(txm_module_thread_shell_entry.o)	#SHT_PROGBITS,SHF_MERGE|SHF_STRINGS,1
	0x1195		
.debug_str	0xceba1	0x31	../../../Quectel_BG96_QuecOpen_SDK_Package_V3.0.1-AUS/SDK/libs/llvm\txm_lib.lib(txm_module_thread_shell_entry.o)	#SHT_PROGBITS,SHF_MERGE|SHF_STRINGS,1
	0x11c8		
.debug_str	0xcebd2	0x31	../../../Quectel_BG96_QuecOpen_SDK_Package_V3.0.1-AUS/SDK/libs/llvm\txm_lib.lib(txm_module_thread_shell_entry.o)	#SHT_PROGBITS,SHF_MERGE|SHF_STRINGS,1
	0x11f9		
.debug_str	0xcec03	0x2f	../../../Quectel_BG96_QuecOpen_SDK_Package_V3.0.1-AUS/SDK/libs/llvm\txm_lib.lib(txm_module_thread_shell_entry.o)	#SHT_PROGBITS,SHF_MERGE|SHF_STRINGS,1
	0x122a		
.debug_str	0xcec32	0x21	../../../Quectel_BG96_QuecOpen_SDK_Package_V3.0.1-AUS/SDK/libs/llvm\txm_lib.lib(txm_module_thread_shell_entry.o)	#SHT_PROGBITS,SHF_MERGE|SHF_STRINGS,1
	0x1259		
.debug_str	0xcec53	0x17	../../../Quectel_BG96_QuecOpen_SDK_Package_V3.0.1-AUS/SDK/libs/llvm\txm_lib.lib(txm_module_thread_shell_entry.o)	#SHT_PROGBITS,SHF_MERGE|SHF_STRINGS,1
	0x127a		
.debug_str	0xcec6a	0x22	../../../Quectel_BG96_QuecOpen_SDK_Package_V3.0.1-AUS/SDK/libs/llvm\txm_lib.lib(txm_module_thread_shell_entry.o)	#SHT_PROGBITS,SHF_MERGE|SHF_STRINGS,1
	0x1291		
.debug_str	0xcec8c	0x22	../../../Quectel_BG96_QuecOpen_SDK_Package_V3.0.1-AUS/SDK/libs/llvm\txm_lib.lib(txm_module_thread_shell_entry.o)	#SHT_PROGBITS,SHF_MERGE|SHF_STRINGS,1
	0x12b3		
.debug_str	0xcecae	0x22	../../../Quectel_BG96_QuecOpen_SDK_Package_V3.0.1-AUS/SDK/libs/llvm\txm_lib.lib(txm_module_thread_shell_entry.o)	#SHT_PROGBITS,SHF_MERGE|SHF_STRINGS,1
	0x12d5		
.debug_str	0xcecd0	0x2a	../../../Quectel_BG96_QuecOpen_SDK_Package_V3.0.1-AUS/SDK/libs/llvm\txm_lib.lib(txm_module_thread_shell_entry.o)	#SHT_PROGBITS,SHF_MERGE|SHF_STRINGS,1
	0x12f7		
.debug_str	0xcecfa	0x23	../../../Quectel_BG96_QuecOpen_SDK_Package_V3.0.1-AUS/SDK/libs/llvm\txm_lib.lib(txm_module_thread_shell_entry.o)	#SHT_PROGBITS,SHF_MERGE|SHF_STRINGS,1
	0x1321		
.debug_str	0xced1d	0x29	../../../Quectel_BG96_QuecOpen_SDK_Package_V3.0.1-AUS/SDK/libs/llvm\txm_lib.lib(txm_module_thread_shell_entry.o)	#SHT_PROGBITS,SHF_MERGE|SHF_STRINGS,1
	0x1344		
.debug_str	0xced46	0x23	../../../Quectel_BG96_QuecOpen_SDK_Package_V3.0.1-AUS/SDK/libs/llvm\txm_lib.lib(txm_module_thread_shell_entry.o)	#SHT_PROGBITS,SHF_MERGE|SHF_STRINGS,1
	0x136d		
.debug_str	0xced69	0x22	../../../Quectel_BG96_QuecOpen_SDK_Package_V3.0.1-AUS/SDK/libs/llvm\txm_lib.lib(txm_module_thread_shell_entry.o)	#SHT_PROGBITS,SHF_MERGE|SHF_STRINGS,1
	0x1390		
.debug_str	0xced8b	0x28	../../../Quectel_BG96_QuecOpen_SDK_Package_V3.0.1-AUS/SDK/libs/llvm\txm_lib.lib(txm_module_thread_shell_entry.o)	#SHT_PROGBITS,SHF_MERGE|SHF_STRINGS,1
	0x13b2		
.debug_str	0xcedb3	0x2a	../../../Quectel_BG96_QuecOpen_SDK_Package_V3.0.1-AUS/SDK/libs/llvm\txm_lib.lib(txm_module_thread_shell_entry.o)	#SHT_PROGBITS,SHF_MERGE|SHF_STRINGS,1
	0x13da		
.debug_str	0xceddd	0x26	../../../Quectel_BG96_QuecOpen_SDK_Package_V3.0.1-AUS/SDK/libs/llvm\txm_lib.lib(txm_module_thread_shell_entry.o)	#SHT_PROGBITS,SHF_MERGE|SHF_STRINGS,1
	0x1404		
.debug_str	0xcee03	0x26	../../../Quectel_BG96_QuecOpen_SDK_Package_V3.0.1-AUS/SDK/libs/llvm\txm_lib.lib(txm_module_thread_shell_entry.o)	#SHT_PROGBITS,SHF_MERGE|SHF_STRINGS,1
	0x142a		
.debug_str	0xcee29	0x28	../../../Quectel_BG96_QuecOpen_SDK_Package_V3.0.1-AUS/SDK/libs/llvm\txm_lib.lib(txm_module_thread_shell_entry.o)	#SHT_PROGBITS,SHF_MERGE|SHF_STRINGS,1
	0x1450		
.debug_str	0xcee51	0x1e	../../../Quectel_BG96_QuecOpen_SDK_Package_V3.0.1-AUS/SDK/libs/llvm\txm_lib.lib(txm_module_thread_shell_entry.o)	#SHT_PROGBITS,SHF_MERGE|SHF_STRINGS,1
	0x1478		
.debug_str	0xcee6f	0x1e	../../../Quectel_BG96_QuecOpen_SDK_Package_V3.0.1-AUS/SDK/libs/llvm\txm_lib.lib(txm_module_thread_shell_entry.o)	#SHT_PROGBITS,SHF_MERGE|SHF_STRINGS,1
	0x1496		
.debug_str	0xcee8d	0x1f	../../../Quectel_BG96_QuecOpen_SDK_Package_V3.0.1-AUS/SDK/libs/llvm\txm_lib.lib(txm_module_thread_shell_entry.o)	#SHT_PROGBITS,SHF_MERGE|SHF_STRINGS,1
	0x14b4		
.debug_str	0xceeac	0x1f	../../../Quectel_BG96_QuecOpen_SDK_Package_V3.0.1-AUS/SDK/libs/llvm\txm_lib.lib(txm_module_thread_shell_entry.o)	#SHT_PROGBITS,SHF_MERGE|SHF_STRINGS,1
	0x14d3		
.debug_str	0xceecb	0x1f	../../../Quectel_BG96_QuecOpen_SDK_Package_V3.0.1-AUS/SDK/libs/llvm\txm_lib.lib(txm_module_thread_shell_entry.o)	#SHT_PROGBITS,SHF_MERGE|SHF_STRINGS,1
	0x14f2		
.debug_str	0xceeea	0x1f	../../../Quectel_BG96_QuecOpen_SDK_Package_V3.0.1-AUS/SDK/libs/llvm\txm_lib.lib(txm_module_thread_shell_entry.o)	#SHT_PROGBITS,SHF_MERGE|SHF_STRINGS,1
	0x1511		
.debug_str	0xcef09	0x1f	../../../Quectel_BG96_QuecOpen_SDK_Package_V3.0.1-AUS/SDK/libs/llvm\txm_lib.lib(txm_module_thread_shell_entry.o)	#SHT_PROGBITS,SHF_MERGE|SHF_STRINGS,1
	0x1530		
.debug_str	0xcef28	0x1f	../../../Quectel_BG96_QuecOpen_SDK_Package_V3.0.1-AUS/SDK/libs/llvm\txm_lib.lib(txm_module_thread_shell_entry.o)	#SHT_PROGBITS,SHF_MERGE|SHF_STRINGS,1
	0x154f		
.debug_str	0xcef47	0x1f	../../../Quectel_BG96_QuecOpen_SDK_Package_V3.0.1-AUS/SDK/libs/llvm\txm_lib.lib(txm_module_thread_shell_entry.o)	#SHT_PROGBITS,SHF_MERGE|SHF_STRINGS,1
	0x156e		
.debug_str	0xcef66	0x1f	../../../Quectel_BG96_QuecOpen_SDK_Package_V3.0.1-AUS/SDK/libs/llvm\txm_lib.lib(txm_module_thread_shell_entry.o)	#SHT_PROGBITS,SHF_MERGE|SHF_STRINGS,1
	0x158d		
.debug_str	0xcef85	0x1f	../../../Quectel_BG96_QuecOpen_SDK_Package_V3.0.1-AUS/SDK/libs/llvm\txm_lib.lib(txm_module_thread_shell_entry.o)	#SHT_PROGBITS,SHF_MERGE|SHF_STRINGS,1
	0x15ac		
.debug_str	0xcefa4	0x1f	../../../Quectel_BG96_QuecOpen_SDK_Package_V3.0.1-AUS/SDK/libs/llvm\txm_lib.lib(txm_module_thread_shell_entry.o)	#SHT_PROGBITS,SHF_MERGE|SHF_STRINGS,1
	0x15cb		
.debug_str	0xcefc3	0x21	../../../Quectel_BG96_QuecOpen_SDK_Package_V3.0.1-AUS/SDK/libs/llvm\txm_lib.lib(txm_module_thread_shell_entry.o)	#SHT_PROGBITS,SHF_MERGE|SHF_STRINGS,1
	0x15ea		
.debug_str	0xcefe4	0x20	../../../Quectel_BG96_QuecOpen_SDK_Package_V3.0.1-AUS/SDK/libs/llvm\txm_lib.lib(txm_module_thread_shell_entry.o)	#SHT_PROGBITS,SHF_MERGE|SHF_STRINGS,1
	0x160b		
.debug_str	0xcf004	0x20	../../../Quectel_BG96_QuecOpen_SDK_Package_V3.0.1-AUS/SDK/libs/llvm\txm_lib.lib(txm_module_thread_shell_entry.o)	#SHT_PROGBITS,SHF_MERGE|SHF_STRINGS,1
	0x162b		
.debug_str	0xcf024	0x20	../../../Quectel_BG96_QuecOpen_SDK_Package_V3.0.1-AUS/SDK/libs/llvm\txm_lib.lib(txm_module_thread_shell_entry.o)	#SHT_PROGBITS,SHF_MERGE|SHF_STRINGS,1
	0x164b		
.debug_str	0xcf044	0x20	../../../Quectel_BG96_QuecOpen_SDK_Package_V3.0.1-AUS/SDK/libs/llvm\txm_lib.lib(txm_module_thread_shell_entry.o)	#SHT_PROGBITS,SHF_MERGE|SHF_STRINGS,1
	0x166b		
.debug_str	0xcf064	0x1d	../../../Quectel_BG96_QuecOpen_SDK_Package_V3.0.1-AUS/SDK/libs/llvm\txm_lib.lib(txm_module_thread_shell_entry.o)	#SHT_PROGBITS,SHF_MERGE|SHF_STRINGS,1
	0x168b		
.debug_str	0xcf081	0x1b	../../../Quectel_BG96_QuecOpen_SDK_Package_V3.0.1-AUS/SDK/libs/llvm\txm_lib.lib(txm_module_thread_shell_entry.o)	#SHT_PROGBITS,SHF_MERGE|SHF_STRINGS,1
	0x16a8		
.debug_str	0xcf09c	0x14	../../../Quectel_BG96_QuecOpen_SDK_Package_V3.0.1-AUS/SDK/libs/llvm\txm_lib.lib(txm_module_thread_shell_entry.o)	#SHT_PROGBITS,SHF_MERGE|SHF_STRINGS,1
	0x16c3		
.debug_str	0xcf0b0	0x29	../../../Quectel_BG96_QuecOpen_SDK_Package_V3.0.1-AUS/SDK/libs/llvm\txm_lib.lib(txm_module_thread_shell_entry.o)	#SHT_PROGBITS,SHF_MERGE|SHF_STRINGS,1
	0x16d7		
.debug_str	0xcf0d9	0x27	../../../Quectel_BG96_QuecOpen_SDK_Package_V3.0.1-AUS/SDK/libs/llvm\txm_lib.lib(txm_module_thread_shell_entry.o)	#SHT_PROGBITS,SHF_MERGE|SHF_STRINGS,1
	0x1700		
.debug_str	0xcf100	0x26	../../../Quectel_BG96_QuecOpen_SDK_Package_V3.0.1-AUS/SDK/libs/llvm\txm_lib.lib(txm_module_thread_shell_entry.o)	#SHT_PROGBITS,SHF_MERGE|SHF_STRINGS,1
	0x1727		
.debug_str	0xcf126	0x32	../../../Quectel_BG96_QuecOpen_SDK_Package_V3.0.1-AUS/SDK/libs/llvm\txm_lib.lib(txm_module_thread_shell_entry.o)	#SHT_PROGBITS,SHF_MERGE|SHF_STRINGS,1
	0x174d		
.debug_str	0xcf158	0x26	../../../Quectel_BG96_QuecOpen_SDK_Package_V3.0.1-AUS/SDK/libs/llvm\txm_lib.lib(txm_module_thread_shell_entry.o)	#SHT_PROGBITS,SHF_MERGE|SHF_STRINGS,1
	0x177f		
.debug_str	0xcf17e	0x2c	../../../Quectel_BG96_QuecOpen_SDK_Package_V3.0.1-AUS/SDK/libs/llvm\txm_lib.lib(txm_module_thread_shell_entry.o)	#SHT_PROGBITS,SHF_MERGE|SHF_STRINGS,1
	0x17a5		
.debug_str	0xcf1aa	0x2b	../../../Quectel_BG96_QuecOpen_SDK_Package_V3.0.1-AUS/SDK/libs/llvm\txm_lib.lib(txm_module_thread_shell_entry.o)	#SHT_PROGBITS,SHF_MERGE|SHF_STRINGS,1
	0x17d1		
.debug_str	0xcf1d5	0xc	../../../Quectel_BG96_QuecOpen_SDK_Package_V3.0.1-AUS/SDK/libs/llvm\txm_lib.lib(txm_module_thread_shell_entry.o)	#SHT_PROGBITS,SHF_MERGE|SHF_STRINGS,1
	0x17fc		
.debug_str	0xcf1e1	0xe	../../../Quectel_BG96_QuecOpen_SDK_Package_V3.0.1-AUS/SDK/libs/llvm\txm_lib.lib(txm_module_thread_shell_entry.o)	#SHT_PROGBITS,SHF_MERGE|SHF_STRINGS,1
	0x1808		
.debug_str	0xcf1ef	0x16	../../../Quectel_BG96_QuecOpen_SDK_Package_V3.0.1-AUS/SDK/libs/llvm\txm_lib.lib(txm_module_thread_shell_entry.o)	#SHT_PROGBITS,SHF_MERGE|SHF_STRINGS,1
	0x1816		
.debug_str	0xcf205	0x12	../../../Quectel_BG96_QuecOpen_SDK_Package_V3.0.1-AUS/SDK/libs/llvm\txm_lib.lib(txm_module_thread_shell_entry.o)	#SHT_PROGBITS,SHF_MERGE|SHF_STRINGS,1
	0x182c		
.debug_str	0xcf217	0x12	../../../Quectel_BG96_QuecOpen_SDK_Package_V3.0.1-AUS/SDK/libs/llvm\txm_lib.lib(txm_module_thread_shell_entry.o)	#SHT_PROGBITS,SHF_MERGE|SHF_STRINGS,1
	0x183e		
.debug_str	0xcf229	0x1b	../../../Quectel_BG96_QuecOpen_SDK_Package_V3.0.1-AUS/SDK/libs/llvm\txm_lib.lib(txm_module_thread_shell_entry.o)	#SHT_PROGBITS,SHF_MERGE|SHF_STRINGS,1
	0x1850		
.debug_str	0xcf244	0xf	../../../Quectel_BG96_QuecOpen_SDK_Package_V3.0.1-AUS/SDK/libs/llvm\txm_lib.lib(txm_module_thread_shell_entry.o)	#SHT_PROGBITS,SHF_MERGE|SHF_STRINGS,1
	0x186b		
.debug_str	0xcf253	0xd	../../../Quectel_BG96_QuecOpen_SDK_Package_V3.0.1-AUS/SDK/libs/llvm\txm_lib.lib(txm_module_thread_shell_entry.o)	#SHT_PROGBITS,SHF_MERGE|SHF_STRINGS,1
	0x187a		
.debug_str	0xcf260	0xe	../../../Quectel_BG96_QuecOpen_SDK_Package_V3.0.1-AUS/SDK/libs/llvm\txm_lib.lib(txm_module_thread_shell_entry.o)	#SHT_PROGBITS,SHF_MERGE|SHF_STRINGS,1
	0x1887		
.debug_str	0xcf26e	0xf	../../../Quectel_BG96_QuecOpen_SDK_Package_V3.0.1-AUS/SDK/libs/llvm\txm_lib.lib(txm_module_thread_shell_entry.o)	#SHT_PROGBITS,SHF_MERGE|SHF_STRINGS,1
	0x1895		
.debug_str	0xcf27d	0x19	../../../Quectel_BG96_QuecOpen_SDK_Package_V3.0.1-AUS/SDK/libs/llvm\txm_lib.lib(txm_module_thread_shell_entry.o)	#SHT_PROGBITS,SHF_MERGE|SHF_STRINGS,1
	0x18a4		
.debug_str	0xcf296	0x19	../../../Quectel_BG96_QuecOpen_SDK_Package_V3.0.1-AUS/SDK/libs/llvm\txm_lib.lib(txm_module_thread_shell_entry.o)	#SHT_PROGBITS,SHF_MERGE|SHF_STRINGS,1
	0x18bd		
.debug_str	0xcf2af	0x16	../../../Quectel_BG96_QuecOpen_SDK_Package_V3.0.1-AUS/SDK/libs/llvm\txm_lib.lib(txm_module_thread_shell_entry.o)	#SHT_PROGBITS,SHF_MERGE|SHF_STRINGS,1
	0x18d6		
.debug_str	0xcf2c5	0x1a	../../../Quectel_BG96_QuecOpen_SDK_Package_V3.0.1-AUS/SDK/libs/llvm\txm_lib.lib(txm_module_thread_shell_entry.o)	#SHT_PROGBITS,SHF_MERGE|SHF_STRINGS,1
	0x18ec		
.debug_str	0xcf2df	0x10	../../../Quectel_BG96_QuecOpen_SDK_Package_V3.0.1-AUS/SDK/libs/llvm\txm_lib.lib(txm_module_thread_shell_entry.o)	#SHT_PROGBITS,SHF_MERGE|SHF_STRINGS,1
	0x1906		
.debug_str	0xcf2ef	0x9	../../../Quectel_BG96_QuecOpen_SDK_Package_V3.0.1-AUS/SDK/libs/llvm\txm_lib.lib(txm_module_thread_shell_entry.o)	#SHT_PROGBITS,SHF_MERGE|SHF_STRINGS,1
	0x1916		
.debug_str	0xcf2f8	0x30	../../../Quectel_BG96_QuecOpen_SDK_Package_V3.0.1-AUS/SDK/libs/llvm\txm_lib.lib(txm_module_thread_shell_entry.o)	#SHT_PROGBITS,SHF_MERGE|SHF_STRINGS,1
	0x191f		
.debug_str	0xcf328	0x2a	../../../Quectel_BG96_QuecOpen_SDK_Package_V3.0.1-AUS/SDK/libs/llvm\txm_lib.lib(txm_module_thread_shell_entry.o)	#SHT_PROGBITS,SHF_MERGE|SHF_STRINGS,1
	0x194f		
.debug_str	0xcf352	0x28	../../../Quectel_BG96_QuecOpen_SDK_Package_V3.0.1-AUS/SDK/libs/llvm\txm_lib.lib(txm_module_thread_shell_entry.o)	#SHT_PROGBITS,SHF_MERGE|SHF_STRINGS,1
	0x1979		
.debug_str	0xcf37a	0x28	../../../Quectel_BG96_QuecOpen_SDK_Package_V3.0.1-AUS/SDK/libs/llvm\txm_lib.lib(txm_module_thread_shell_entry.o)	#SHT_PROGBITS,SHF_MERGE|SHF_STRINGS,1
	0x19a1		
.debug_str	0xcf3a2	0x26	../../../Quectel_BG96_QuecOpen_SDK_Package_V3.0.1-AUS/SDK/libs/llvm\txm_lib.lib(txm_module_thread_shell_entry.o)	#SHT_PROGBITS,SHF_MERGE|SHF_STRINGS,1
	0x19c9		
.debug_str	0xcf3c8	0x2a	../../../Quectel_BG96_QuecOpen_SDK_Package_V3.0.1-AUS/SDK/libs/llvm\txm_lib.lib(txm_module_thread_shell_entry.o)	#SHT_PROGBITS,SHF_MERGE|SHF_STRINGS,1
	0x19ef		
.debug_str	0xcf3f2	0x28	../../../Quectel_BG96_QuecOpen_SDK_Package_V3.0.1-AUS/SDK/libs/llvm\txm_lib.lib(txm_module_thread_shell_entry.o)	#SHT_PROGBITS,SHF_MERGE|SHF_STRINGS,1
	0x1a19		
.debug_str	0xcf41a	0x28	../../../Quectel_BG96_QuecOpen_SDK_Package_V3.0.1-AUS/SDK/libs/llvm\txm_lib.lib(txm_module_thread_shell_entry.o)	#SHT_PROGBITS,SHF_MERGE|SHF_STRINGS,1
	0x1a41		
.debug_str	0xcf442	0x25	../../../Quectel_BG96_QuecOpen_SDK_Package_V3.0.1-AUS/SDK/libs/llvm\txm_lib.lib(txm_module_thread_shell_entry.o)	#SHT_PROGBITS,SHF_MERGE|SHF_STRINGS,1
	0x1a69		
.debug_str	0xcf467	0x19	../../../Quectel_BG96_QuecOpen_SDK_Package_V3.0.1-AUS/SDK/libs/llvm\txm_lib.lib(txm_module_thread_shell_entry.o)	#SHT_PROGBITS,SHF_MERGE|SHF_STRINGS,1
	0x1a8e		
.debug_str	0xcf480	0x18	../../../Quectel_BG96_QuecOpen_SDK_Package_V3.0.1-AUS/SDK/libs/llvm\txm_lib.lib(txm_module_thread_shell_entry.o)	#SHT_PROGBITS,SHF_MERGE|SHF_STRINGS,1
	0x1aa7		
.debug_str	0xcf498	0x1e	../../../Quectel_BG96_QuecOpen_SDK_Package_V3.0.1-AUS/SDK/libs/llvm\txm_lib.lib(txm_module_thread_shell_entry.o)	#SHT_PROGBITS,SHF_MERGE|SHF_STRINGS,1
	0x1abf		
.debug_str	0xcf4b6	0x1e	../../../Quectel_BG96_QuecOpen_SDK_Package_V3.0.1-AUS/SDK/libs/llvm\txm_lib.lib(txm_module_thread_shell_entry.o)	#SHT_PROGBITS,SHF_MERGE|SHF_STRINGS,1
	0x1add		
.debug_str	0xcf4d4	0x15	../../../Quectel_BG96_QuecOpen_SDK_Package_V3.0.1-AUS/SDK/libs/llvm\txm_lib.lib(txm_module_thread_shell_entry.o)	#SHT_PROGBITS,SHF_MERGE|SHF_STRINGS,1
	0x1afb		
.debug_str	0xcf4e9	0x14	../../../Quectel_BG96_QuecOpen_SDK_Package_V3.0.1-AUS/SDK/libs/llvm\txm_lib.lib(txm_module_thread_shell_entry.o)	#SHT_PROGBITS,SHF_MERGE|SHF_STRINGS,1
	0x1b10		
.debug_str	0xcf4fd	0x25	../../../Quectel_BG96_QuecOpen_SDK_Package_V3.0.1-AUS/SDK/libs/llvm\txm_lib.lib(txm_module_thread_shell_entry.o)	#SHT_PROGBITS,SHF_MERGE|SHF_STRINGS,1
	0x1b24		
.debug_str	0xcf522	0x2c	../../../Quectel_BG96_QuecOpen_SDK_Package_V3.0.1-AUS/SDK/libs/llvm\txm_lib.lib(txm_module_thread_shell_entry.o)	#SHT_PROGBITS,SHF_MERGE|SHF_STRINGS,1
	0x1b49		
.debug_str	0xcf54e	0x21	../../../Quectel_BG96_QuecOpen_SDK_Package_V3.0.1-AUS/SDK/libs/llvm\txm_lib.lib(txm_module_thread_shell_entry.o)	#SHT_PROGBITS,SHF_MERGE|SHF_STRINGS,1
	0x1b75		
.debug_str	0xcf56f	0x25	../../../Quectel_BG96_QuecOpen_SDK_Package_V3.0.1-AUS/SDK/libs/llvm\txm_lib.lib(txm_module_thread_shell_entry.o)	#SHT_PROGBITS,SHF_MERGE|SHF_STRINGS,1
	0x1b96		
.debug_str	0xcf594	0x17	../../../Quectel_BG96_QuecOpen_SDK_Package_V3.0.1-AUS/SDK/libs/llvm\txm_lib.lib(txm_module_thread_shell_entry.o)	#SHT_PROGBITS,SHF_MERGE|SHF_STRINGS,1
	0x1bbb		
.debug_str	0xcf5ab	0x23	../../../Quectel_BG96_QuecOpen_SDK_Package_V3.0.1-AUS/SDK/libs/llvm\txm_lib.lib(txm_module_thread_shell_entry.o)	#SHT_PROGBITS,SHF_MERGE|SHF_STRINGS,1
	0x1bd2		
.debug_str	0xcf5ce	0x26	../../../Quectel_BG96_QuecOpen_SDK_Package_V3.0.1-AUS/SDK/libs/llvm\txm_lib.lib(txm_module_thread_shell_entry.o)	#SHT_PROGBITS,SHF_MERGE|SHF_STRINGS,1
	0x1bf5		
.debug_str	0xcf5f4	0x20	../../../Quectel_BG96_QuecOpen_SDK_Package_V3.0.1-AUS/SDK/libs/llvm\txm_lib.lib(txm_module_thread_shell_entry.o)	#SHT_PROGBITS,SHF_MERGE|SHF_STRINGS,1
	0x1c1b		
.debug_str	0xcf614	0x24	../../../Quectel_BG96_QuecOpen_SDK_Package_V3.0.1-AUS/SDK/libs/llvm\txm_lib.lib(txm_module_thread_shell_entry.o)	#SHT_PROGBITS,SHF_MERGE|SHF_STRINGS,1
	0x1c3b		
.debug_str	0xcf638	0x1b	../../../Quectel_BG96_QuecOpen_SDK_Package_V3.0.1-AUS/SDK/libs/llvm\txm_lib.lib(txm_module_thread_shell_entry.o)	#SHT_PROGBITS,SHF_MERGE|SHF_STRINGS,1
	0x1c5f		
.debug_str	0xcf653	0x14	../../../Quectel_BG96_QuecOpen_SDK_Package_V3.0.1-AUS/SDK/libs/llvm\txm_lib.lib(txm_module_thread_shell_entry.o)	#SHT_PROGBITS,SHF_MERGE|SHF_STRINGS,1
	0x1c7a		
.debug_str	0xcf667	0x2f	../../../Quectel_BG96_QuecOpen_SDK_Package_V3.0.1-AUS/SDK/libs/llvm\txm_lib.lib(txm_module_thread_shell_entry.o)	#SHT_PROGBITS,SHF_MERGE|SHF_STRINGS,1
	0x1c8e		
.debug_str	0xcf696	0x2f	../../../Quectel_BG96_QuecOpen_SDK_Package_V3.0.1-AUS/SDK/libs/llvm\txm_lib.lib(txm_module_thread_shell_entry.o)	#SHT_PROGBITS,SHF_MERGE|SHF_STRINGS,1
	0x1cbd		
.debug_str	0xcf6c5	0x23	../../../Quectel_BG96_QuecOpen_SDK_Package_V3.0.1-AUS/SDK/libs/llvm\txm_lib.lib(txm_module_thread_shell_entry.o)	#SHT_PROGBITS,SHF_MERGE|SHF_STRINGS,1
	0x1cec		
.debug_str	0xcf6e8	0x27	../../../Quectel_BG96_QuecOpen_SDK_Package_V3.0.1-AUS/SDK/libs/llvm\txm_lib.lib(txm_module_thread_shell_entry.o)	#SHT_PROGBITS,SHF_MERGE|SHF_STRINGS,1
	0x1d0f		
.debug_str	0xcf70f	0x29	../../../Quectel_BG96_QuecOpen_SDK_Package_V3.0.1-AUS/SDK/libs/llvm\txm_lib.lib(txm_module_thread_shell_entry.o)	#SHT_PROGBITS,SHF_MERGE|SHF_STRINGS,1
	0x1d36		
.debug_str	0xcf738	0x2a	../../../Quectel_BG96_QuecOpen_SDK_Package_V3.0.1-AUS/SDK/libs/llvm\txm_lib.lib(txm_module_thread_shell_entry.o)	#SHT_PROGBITS,SHF_MERGE|SHF_STRINGS,1
	0x1d5f		
.debug_str	0xcf762	0x35	../../../Quectel_BG96_QuecOpen_SDK_Package_V3.0.1-AUS/SDK/libs/llvm\txm_lib.lib(txm_module_thread_shell_entry.o)	#SHT_PROGBITS,SHF_MERGE|SHF_STRINGS,1
	0x1d89		
.debug_str	0xcf797	0x34	../../../Quectel_BG96_QuecOpen_SDK_Package_V3.0.1-AUS/SDK/libs/llvm\txm_lib.lib(txm_module_thread_shell_entry.o)	#SHT_PROGBITS,SHF_MERGE|SHF_STRINGS,1
	0x1dbe		
.debug_str	0xcf7cb	0x35	../../../Quectel_BG96_QuecOpen_SDK_Package_V3.0.1-AUS/SDK/libs/llvm\txm_lib.lib(txm_module_thread_shell_entry.o)	#SHT_PROGBITS,SHF_MERGE|SHF_STRINGS,1
	0x1df2		
.debug_str	0xcf800	0x34	../../../Quectel_BG96_QuecOpen_SDK_Package_V3.0.1-AUS/SDK/libs/llvm\txm_lib.lib(txm_module_thread_shell_entry.o)	#SHT_PROGBITS,SHF_MERGE|SHF_STRINGS,1
	0x1e27		
.debug_str	0xcf834	0x24	../../../Quectel_BG96_QuecOpen_SDK_Package_V3.0.1-AUS/SDK/libs/llvm\txm_lib.lib(txm_module_thread_shell_entry.o)	#SHT_PROGBITS,SHF_MERGE|SHF_STRINGS,1
	0x1e5b		
.debug_str	0xcf858	0x1d	../../../Quectel_BG96_QuecOpen_SDK_Package_V3.0.1-AUS/SDK/libs/llvm\txm_lib.lib(txm_module_thread_shell_entry.o)	#SHT_PROGBITS,SHF_MERGE|SHF_STRINGS,1
	0x1e7f		
.debug_str	0xcf875	0x19	../../../Quectel_BG96_QuecOpen_SDK_Package_V3.0.1-AUS/SDK/libs/llvm\txm_lib.lib(txm_module_thread_shell_entry.o)	#SHT_PROGBITS,SHF_MERGE|SHF_STRINGS,1
	0x1e9c		
.debug_str	0xcf88e	0x23	../../../Quectel_BG96_QuecOpen_SDK_Package_V3.0.1-AUS/SDK/libs/llvm\txm_lib.lib(txm_module_thread_shell_entry.o)	#SHT_PROGBITS,SHF_MERGE|SHF_STRINGS,1
	0x1eb5		
.debug_str	0xcf8b1	0xa	../../../Quectel_BG96_QuecOpen_SDK_Package_V3.0.1-AUS/SDK/libs/llvm\txm_lib.lib(txm_module_thread_shell_entry.o)	#SHT_PROGBITS,SHF_MERGE|SHF_STRINGS,1
	0x1ed8		
.debug_str	0xcf8bb	0x1f	../../../Quectel_BG96_QuecOpen_SDK_Package_V3.0.1-AUS/SDK/libs/llvm\txm_lib.lib(txm_module_thread_shell_entry.o)	#SHT_PROGBITS,SHF_MERGE|SHF_STRINGS,1
	0x1ee2		
.debug_str	0xcf8da	0xb	../../../Quectel_BG96_QuecOpen_SDK_Package_V3.0.1-AUS/SDK/libs/llvm\txm_lib.lib(txm_module_thread_shell_entry.o)	#SHT_PROGBITS,SHF_MERGE|SHF_STRINGS,1
	0x1f01		
.debug_str	0xcf8e5	0xc	../../../Quectel_BG96_QuecOpen_SDK_Package_V3.0.1-AUS/SDK/libs/llvm\txm_lib.lib(txm_module_thread_shell_entry.o)	#SHT_PROGBITS,SHF_MERGE|SHF_STRINGS,1
	0x1f0c		
.debug_str	0xcf8f1	0xb4	../../../Quectel_BG96_QuecOpen_SDK_Package_V3.0.1-AUS/SDK/libs/llvm\txm_lib.lib(txm_module_callback_request_thread_entry.o)	#SHT_PROGBITS,SHF_MERGE|SHF_STRINGS,1
	0x1f18		
.debug_str	0xcf9a5	0x18	../../../Quectel_BG96_QuecOpen_SDK_Package_V3.0.1-AUS/SDK/libs/llvm\txm_lib.lib(txm_module_callback_request_thread_entry.o)	#SHT_PROGBITS,SHF_MERGE|SHF_STRINGS,1
	0x1fcc		
.debug_str	0xcf9bd	0x1a	../../../Quectel_BG96_QuecOpen_SDK_Package_V3.0.1-AUS/SDK/libs/llvm\txm_lib.lib(txm_module_callback_request_thread_entry.o)	#SHT_PROGBITS,SHF_MERGE|SHF_STRINGS,1
	0x1fe4		
.debug_str	0xcf9d7	0x1d	../../../Quectel_BG96_QuecOpen_SDK_Package_V3.0.1-AUS/SDK/libs/llvm\txm_lib.lib(txm_module_callback_request_thread_entry.o)	#SHT_PROGBITS,SHF_MERGE|SHF_STRINGS,1
	0x1ffe		
.debug_str	0xcf9f4	0x22	../../../Quectel_BG96_QuecOpen_SDK_Package_V3.0.1-AUS/SDK/libs/llvm\txm_lib.lib(txm_module_callback_request_thread_entry.o)	#SHT_PROGBITS,SHF_MERGE|SHF_STRINGS,1
	0x201b		
.debug_str	0xcfa16	0x25	../../../Quectel_BG96_QuecOpen_SDK_Package_V3.0.1-AUS/SDK/libs/llvm\txm_lib.lib(txm_module_callback_request_thread_entry.o)	#SHT_PROGBITS,SHF_MERGE|SHF_STRINGS,1
	0x203d		
.debug_str	0xcfa3b	0x25	../../../Quectel_BG96_QuecOpen_SDK_Package_V3.0.1-AUS/SDK/libs/llvm\txm_lib.lib(txm_module_callback_request_thread_entry.o)	#SHT_PROGBITS,SHF_MERGE|SHF_STRINGS,1
	0x2062		
.debug_str	0xcfa60	0x22	../../../Quectel_BG96_QuecOpen_SDK_Package_V3.0.1-AUS/SDK/libs/llvm\txm_lib.lib(txm_module_callback_request_thread_entry.o)	#SHT_PROGBITS,SHF_MERGE|SHF_STRINGS,1
	0x2087		
.debug_str	0xcfa82	0x26	../../../Quectel_BG96_QuecOpen_SDK_Package_V3.0.1-AUS/SDK/libs/llvm\txm_lib.lib(txm_module_callback_request_thread_entry.o)	#SHT_PROGBITS,SHF_MERGE|SHF_STRINGS,1
	0x20a9		
.debug_str	0xcfaa8	0x23	../../../Quectel_BG96_QuecOpen_SDK_Package_V3.0.1-AUS/SDK/libs/llvm\txm_lib.lib(txm_module_callback_request_thread_entry.o)	#SHT_PROGBITS,SHF_MERGE|SHF_STRINGS,1
	0x20cf		
.debug_str	0xcfacb	0x1c	../../../Quectel_BG96_QuecOpen_SDK_Package_V3.0.1-AUS/SDK/libs/llvm\txm_lib.lib(txm_module_callback_request_thread_entry.o)	#SHT_PROGBITS,SHF_MERGE|SHF_STRINGS,1
	0x20f2		
.debug_str	0xcfae7	0x15	../../../Quectel_BG96_QuecOpen_SDK_Package_V3.0.1-AUS/SDK/libs/llvm\txm_lib.lib(txm_module_callback_request_thread_entry.o)	#SHT_PROGBITS,SHF_MERGE|SHF_STRINGS,1
	0x210e		
.debug_str	0xcfafc	0x10	../../../Quectel_BG96_QuecOpen_SDK_Package_V3.0.1-AUS/SDK/libs/llvm\txm_lib.lib(txm_module_callback_request_thread_entry.o)	#SHT_PROGBITS,SHF_MERGE|SHF_STRINGS,1
	0x2123		
.debug_str	0xcfb0c	0x12	../../../Quectel_BG96_QuecOpen_SDK_Package_V3.0.1-AUS/SDK/libs/llvm\txm_lib.lib(txm_module_callback_request_thread_entry.o)	#SHT_PROGBITS,SHF_MERGE|SHF_STRINGS,1
	0x2133		
.debug_str	0xcfb1e	0x13	../../../Quectel_BG96_QuecOpen_SDK_Package_V3.0.1-AUS/SDK/libs/llvm\txm_lib.lib(txm_module_callback_request_thread_entry.o)	#SHT_PROGBITS,SHF_MERGE|SHF_STRINGS,1
	0x2145		
.debug_str	0xcfb31	0x1d	../../../Quectel_BG96_QuecOpen_SDK_Package_V3.0.1-AUS/SDK/libs/llvm\txm_lib.lib(txm_module_callback_request_thread_entry.o)	#SHT_PROGBITS,SHF_MERGE|SHF_STRINGS,1
	0x2158		
.debug_str	0xcfb4e	0x1d	../../../Quectel_BG96_QuecOpen_SDK_Package_V3.0.1-AUS/SDK/libs/llvm\txm_lib.lib(txm_module_callback_request_thread_entry.o)	#SHT_PROGBITS,SHF_MERGE|SHF_STRINGS,1
	0x2175		
.debug_str	0xcfb6b	0x1a	../../../Quectel_BG96_QuecOpen_SDK_Package_V3.0.1-AUS/SDK/libs/llvm\txm_lib.lib(txm_module_callback_request_thread_entry.o)	#SHT_PROGBITS,SHF_MERGE|SHF_STRINGS,1
	0x2192		
.debug_str	0xcfb85	0x1e	../../../Quectel_BG96_QuecOpen_SDK_Package_V3.0.1-AUS/SDK/libs/llvm\txm_lib.lib(txm_module_callback_request_thread_entry.o)	#SHT_PROGBITS,SHF_MERGE|SHF_STRINGS,1
	0x21ac		
.debug_str	0xcfba3	0x14	../../../Quectel_BG96_QuecOpen_SDK_Package_V3.0.1-AUS/SDK/libs/llvm\txm_lib.lib(txm_module_callback_request_thread_entry.o)	#SHT_PROGBITS,SHF_MERGE|SHF_STRINGS,1
	0x21ca		
.debug_str	0xcfbb7	0xd	../../../Quectel_BG96_QuecOpen_SDK_Package_V3.0.1-AUS/SDK/libs/llvm\txm_lib.lib(txm_module_callback_request_thread_entry.o)	#SHT_PROGBITS,SHF_MERGE|SHF_STRINGS,1
	0x21de		
.debug_str	0xcfbc4	0x18	../../../Quectel_BG96_QuecOpen_SDK_Package_V3.0.1-AUS/SDK/libs/llvm\txm_lib.lib(txm_module_callback_request_thread_entry.o)	#SHT_PROGBITS,SHF_MERGE|SHF_STRINGS,1
	0x21eb		
.debug_str	0xcfbdc	0x2a	../../../Quectel_BG96_QuecOpen_SDK_Package_V3.0.1-AUS/SDK/libs/llvm\txm_lib.lib(txm_module_callback_request_thread_entry.o)	#SHT_PROGBITS,SHF_MERGE|SHF_STRINGS,1
	0x2203		
.debug_str	0xcfc06	0x3	../../../Quectel_BG96_QuecOpen_SDK_Package_V3.0.1-AUS/SDK/libs/llvm\txm_lib.lib(txm_module_callback_request_thread_entry.o)	#SHT_PROGBITS,SHF_MERGE|SHF_STRINGS,1
	0x222d		
.debug_str	0xcfc09	0x7	../../../Quectel_BG96_QuecOpen_SDK_Package_V3.0.1-AUS/SDK/libs/llvm\txm_lib.lib(txm_module_callback_request_thread_entry.o)	#SHT_PROGBITS,SHF_MERGE|SHF_STRINGS,1
	0x2230		
.debug_str	0xcfc10	0xf	../../../Quectel_BG96_QuecOpen_SDK_Package_V3.0.1-AUS/SDK/libs/llvm\txm_lib.lib(txm_module_callback_request_thread_entry.o)	#SHT_PROGBITS,SHF_MERGE|SHF_STRINGS,1
	0x2237		
.debug_str	0xcfc1f	0x19	../../../Quectel_BG96_QuecOpen_SDK_Package_V3.0.1-AUS/SDK/libs/llvm\txm_lib.lib(txm_module_callback_request_thread_entry.o)	#SHT_PROGBITS,SHF_MERGE|SHF_STRINGS,1
	0x2246		
.debug_str	0xcfc38	0x12	../../../Quectel_BG96_QuecOpen_SDK_Package_V3.0.1-AUS/SDK/libs/llvm\txm_lib.lib(txm_module_callback_request_thread_entry.o)	#SHT_PROGBITS,SHF_MERGE|SHF_STRINGS,1
	0x225f		
.debug_str	0xcfc4a	0xe	../../../Quectel_BG96_QuecOpen_SDK_Package_V3.0.1-AUS/SDK/libs/llvm\txm_lib.lib(txm_module_callback_request_thread_entry.o)	#SHT_PROGBITS,SHF_MERGE|SHF_STRINGS,1
	0x2271		
.debug_str	0xcfc58	0xf	../../../Quectel_BG96_QuecOpen_SDK_Package_V3.0.1-AUS/SDK/libs/llvm\txm_lib.lib(txm_module_callback_request_thread_entry.o)	#SHT_PROGBITS,SHF_MERGE|SHF_STRINGS,1
	0x227f		
.debug_str	0xcfc67	0x11	../../../Quectel_BG96_QuecOpen_SDK_Package_V3.0.1-AUS/SDK/libs/llvm\txm_lib.lib(txm_module_callback_request_thread_entry.o)	#SHT_PROGBITS,SHF_MERGE|SHF_STRINGS,1
	0x228e		
.debug_str	0xcfc78	0x24	../../../Quectel_BG96_QuecOpen_SDK_Package_V3.0.1-AUS/SDK/libs/llvm\txm_lib.lib(txm_module_callback_request_thread_entry.o)	#SHT_PROGBITS,SHF_MERGE|SHF_STRINGS,1
	0x229f		
.debug_str	0xcfc9c	0x1a	../../../Quectel_BG96_QuecOpen_SDK_Package_V3.0.1-AUS/SDK/libs/llvm\txm_lib.lib(txm_module_callback_request_thread_entry.o)	#SHT_PROGBITS,SHF_MERGE|SHF_STRINGS,1
	0x22c3		
.debug_str	0xcfcb6	0x22	../../../Quectel_BG96_QuecOpen_SDK_Package_V3.0.1-AUS/SDK/libs/llvm\txm_lib.lib(txm_module_callback_request_thread_entry.o)	#SHT_PROGBITS,SHF_MERGE|SHF_STRINGS,1
	0x22dd		
.debug_str	0xcfcd8	0x1e	../../../Quectel_BG96_QuecOpen_SDK_Package_V3.0.1-AUS/SDK/libs/llvm\txm_lib.lib(txm_module_callback_request_thread_entry.o)	#SHT_PROGBITS,SHF_MERGE|SHF_STRINGS,1
	0x22ff		
.debug_str	0xcfcf6	0x25	../../../Quectel_BG96_QuecOpen_SDK_Package_V3.0.1-AUS/SDK/libs/llvm\txm_lib.lib(txm_module_callback_request_thread_entry.o)	#SHT_PROGBITS,SHF_MERGE|SHF_STRINGS,1
	0x231d		
.debug_str	0xcfd1b	0x24	../../../Quectel_BG96_QuecOpen_SDK_Package_V3.0.1-AUS/SDK/libs/llvm\txm_lib.lib(txm_module_callback_request_thread_entry.o)	#SHT_PROGBITS,SHF_MERGE|SHF_STRINGS,1
	0x2342		
.debug_str	0xcfd3f	0x22	../../../Quectel_BG96_QuecOpen_SDK_Package_V3.0.1-AUS/SDK/libs/llvm\txm_lib.lib(txm_module_callback_request_thread_entry.o)	#SHT_PROGBITS,SHF_MERGE|SHF_STRINGS,1
	0x2366		
.debug_str	0xcfd61	0x29	../../../Quectel_BG96_QuecOpen_SDK_Package_V3.0.1-AUS/SDK/libs/llvm\txm_lib.lib(txm_module_callback_request_thread_entry.o)	#SHT_PROGBITS,SHF_MERGE|SHF_STRINGS,1
	0x2388		
.debug_str	0xcfd8a	0x19	../../../Quectel_BG96_QuecOpen_SDK_Package_V3.0.1-AUS/SDK/libs/llvm\txm_lib.lib(txm_module_callback_request_thread_entry.o)	#SHT_PROGBITS,SHF_MERGE|SHF_STRINGS,1
	0x23b1		
.debug_str	0xcfda3	0x1f	../../../Quectel_BG96_QuecOpen_SDK_Package_V3.0.1-AUS/SDK/libs/llvm\txm_lib.lib(txm_module_callback_request_thread_entry.o)	#SHT_PROGBITS,SHF_MERGE|SHF_STRINGS,1
	0x23ca		
.debug_str	0xcfdc2	0x17	../../../Quectel_BG96_QuecOpen_SDK_Package_V3.0.1-AUS/SDK/libs/llvm\txm_lib.lib(txm_module_callback_request_thread_entry.o)	#SHT_PROGBITS,SHF_MERGE|SHF_STRINGS,1
	0x23e9		
.debug_str	0xcfdd9	0x1c	../../../Quectel_BG96_QuecOpen_SDK_Package_V3.0.1-AUS/SDK/libs/llvm\txm_lib.lib(txm_module_callback_request_thread_entry.o)	#SHT_PROGBITS,SHF_MERGE|SHF_STRINGS,1
	0x2400		
.debug_str	0xcfdf5	0x1c	../../../Quectel_BG96_QuecOpen_SDK_Package_V3.0.1-AUS/SDK/libs/llvm\txm_lib.lib(txm_module_callback_request_thread_entry.o)	#SHT_PROGBITS,SHF_MERGE|SHF_STRINGS,1
	0x241c		
.debug_str	0xcfe11	0x19	../../../Quectel_BG96_QuecOpen_SDK_Package_V3.0.1-AUS/SDK/libs/llvm\txm_lib.lib(txm_module_callback_request_thread_entry.o)	#SHT_PROGBITS,SHF_MERGE|SHF_STRINGS,1
	0x2438		
.debug_str	0xcfe2a	0x1d	../../../Quectel_BG96_QuecOpen_SDK_Package_V3.0.1-AUS/SDK/libs/llvm\txm_lib.lib(txm_module_callback_request_thread_entry.o)	#SHT_PROGBITS,SHF_MERGE|SHF_STRINGS,1
	0x2451		
.debug_str	0xcfe47	0x21	../../../Quectel_BG96_QuecOpen_SDK_Package_V3.0.1-AUS/SDK/libs/llvm\txm_lib.lib(txm_module_callback_request_thread_entry.o)	#SHT_PROGBITS,SHF_MERGE|SHF_STRINGS,1
	0x246e		
.debug_str	0xcfe68	0x25	../../../Quectel_BG96_QuecOpen_SDK_Package_V3.0.1-AUS/SDK/libs/llvm\txm_lib.lib(txm_module_callback_request_thread_entry.o)	#SHT_PROGBITS,SHF_MERGE|SHF_STRINGS,1
	0x248f		
.debug_str	0xcfe8d	0x1c	../../../Quectel_BG96_QuecOpen_SDK_Package_V3.0.1-AUS/SDK/libs/llvm\txm_lib.lib(txm_module_callback_request_thread_entry.o)	#SHT_PROGBITS,SHF_MERGE|SHF_STRINGS,1
	0x24b4		
.debug_str	0xcfea9	0x1c	../../../Quectel_BG96_QuecOpen_SDK_Package_V3.0.1-AUS/SDK/libs/llvm\txm_lib.lib(txm_module_callback_request_thread_entry.o)	#SHT_PROGBITS,SHF_MERGE|SHF_STRINGS,1
	0x24d0		
.debug_str	0xcfec5	0x1c	../../../Quectel_BG96_QuecOpen_SDK_Package_V3.0.1-AUS/SDK/libs/llvm\txm_lib.lib(txm_module_callback_request_thread_entry.o)	#SHT_PROGBITS,SHF_MERGE|SHF_STRINGS,1
	0x24ec		
.debug_str	0xcfee1	0x1c	../../../Quectel_BG96_QuecOpen_SDK_Package_V3.0.1-AUS/SDK/libs/llvm\txm_lib.lib(txm_module_callback_request_thread_entry.o)	#SHT_PROGBITS,SHF_MERGE|SHF_STRINGS,1
	0x2508		
.debug_str	0xcfefd	0x1c	../../../Quectel_BG96_QuecOpen_SDK_Package_V3.0.1-AUS/SDK/libs/llvm\txm_lib.lib(txm_module_callback_request_thread_entry.o)	#SHT_PROGBITS,SHF_MERGE|SHF_STRINGS,1
	0x2524		
.debug_str	0xcff19	0x1c	../../../Quectel_BG96_QuecOpen_SDK_Package_V3.0.1-AUS/SDK/libs/llvm\txm_lib.lib(txm_module_callback_request_thread_entry.o)	#SHT_PROGBITS,SHF_MERGE|SHF_STRINGS,1
	0x2540		
.debug_str	0xcff35	0x1b	../../../Quectel_BG96_QuecOpen_SDK_Package_V3.0.1-AUS/SDK/libs/llvm\txm_lib.lib(txm_module_callback_request_thread_entry.o)	#SHT_PROGBITS,SHF_MERGE|SHF_STRINGS,1
	0x255c		
.debug_str	0xcff50	0x14	../../../Quectel_BG96_QuecOpen_SDK_Package_V3.0.1-AUS/SDK/libs/llvm\txm_lib.lib(txm_module_callback_request_thread_entry.o)	#SHT_PROGBITS,SHF_MERGE|SHF_STRINGS,1
	0x2577		
.debug_str	0xcff64	0x30	../../../Quectel_BG96_QuecOpen_SDK_Package_V3.0.1-AUS/SDK/libs/llvm\txm_lib.lib(txm_module_callback_request_thread_entry.o)	#SHT_PROGBITS,SHF_MERGE|SHF_STRINGS,1
	0x258b		
.debug_str	0xcff94	0x23	../../../Quectel_BG96_QuecOpen_SDK_Package_V3.0.1-AUS/SDK/libs/llvm\txm_lib.lib(txm_module_callback_request_thread_entry.o)	#SHT_PROGBITS,SHF_MERGE|SHF_STRINGS,1
	0x25bb		
.debug_str	0xcffb7	0x23	../../../Quectel_BG96_QuecOpen_SDK_Package_V3.0.1-AUS/SDK/libs/llvm\txm_lib.lib(txm_module_callback_request_thread_entry.o)	#SHT_PROGBITS,SHF_MERGE|SHF_STRINGS,1
	0x25de		
.debug_str	0xcffda	0x20	../../../Quectel_BG96_QuecOpen_SDK_Package_V3.0.1-AUS/SDK/libs/llvm\txm_lib.lib(txm_module_callback_request_thread_entry.o)	#SHT_PROGBITS,SHF_MERGE|SHF_STRINGS,1
	0x2601		
.debug_str	0xcfffa	0x29	../../../Quectel_BG96_QuecOpen_SDK_Package_V3.0.1-AUS/SDK/libs/llvm\txm_lib.lib(txm_module_callback_request_thread_entry.o)	#SHT_PROGBITS,SHF_MERGE|SHF_STRINGS,1
	0x2621		
.debug_str	0xd0023	0x25	../../../Quectel_BG96_QuecOpen_SDK_Package_V3.0.1-AUS/SDK/libs/llvm\txm_lib.lib(txm_module_callback_request_thread_entry.o)	#SHT_PROGBITS,SHF_MERGE|SHF_STRINGS,1
	0x264a		
.debug_str	0xd0048	0x25	../../../Quectel_BG96_QuecOpen_SDK_Package_V3.0.1-AUS/SDK/libs/llvm\txm_lib.lib(txm_module_callback_request_thread_entry.o)	#SHT_PROGBITS,SHF_MERGE|SHF_STRINGS,1
	0x266f		
.debug_str	0xd006d	0x28	../../../Quectel_BG96_QuecOpen_SDK_Package_V3.0.1-AUS/SDK/libs/llvm\txm_lib.lib(txm_module_callback_request_thread_entry.o)	#SHT_PROGBITS,SHF_MERGE|SHF_STRINGS,1
	0x2694		
.debug_str	0xd0095	0x2c	../../../Quectel_BG96_QuecOpen_SDK_Package_V3.0.1-AUS/SDK/libs/llvm\txm_lib.lib(txm_module_callback_request_thread_entry.o)	#SHT_PROGBITS,SHF_MERGE|SHF_STRINGS,1
	0x26bc		
.debug_str	0xd00c1	0x23	../../../Quectel_BG96_QuecOpen_SDK_Package_V3.0.1-AUS/SDK/libs/llvm\txm_lib.lib(txm_module_callback_request_thread_entry.o)	#SHT_PROGBITS,SHF_MERGE|SHF_STRINGS,1
	0x26e8		
.debug_str	0xd00e4	0x23	../../../Quectel_BG96_QuecOpen_SDK_Package_V3.0.1-AUS/SDK/libs/llvm\txm_lib.lib(txm_module_callback_request_thread_entry.o)	#SHT_PROGBITS,SHF_MERGE|SHF_STRINGS,1
	0x270b		
.debug_str	0xd0107	0x23	../../../Quectel_BG96_QuecOpen_SDK_Package_V3.0.1-AUS/SDK/libs/llvm\txm_lib.lib(txm_module_callback_request_thread_entry.o)	#SHT_PROGBITS,SHF_MERGE|SHF_STRINGS,1
	0x272e		
.debug_str	0xd012a	0x23	../../../Quectel_BG96_QuecOpen_SDK_Package_V3.0.1-AUS/SDK/libs/llvm\txm_lib.lib(txm_module_callback_request_thread_entry.o)	#SHT_PROGBITS,SHF_MERGE|SHF_STRINGS,1
	0x2751		
.debug_str	0xd014d	0x23	../../../Quectel_BG96_QuecOpen_SDK_Package_V3.0.1-AUS/SDK/libs/llvm\txm_lib.lib(txm_module_callback_request_thread_entry.o)	#SHT_PROGBITS,SHF_MERGE|SHF_STRINGS,1
	0x2774		
.debug_str	0xd0170	0x23	../../../Quectel_BG96_QuecOpen_SDK_Package_V3.0.1-AUS/SDK/libs/llvm\txm_lib.lib(txm_module_callback_request_thread_entry.o)	#SHT_PROGBITS,SHF_MERGE|SHF_STRINGS,1
	0x2797		
.debug_str	0xd0193	0x22	../../../Quectel_BG96_QuecOpen_SDK_Package_V3.0.1-AUS/SDK/libs/llvm\txm_lib.lib(txm_module_callback_request_thread_entry.o)	#SHT_PROGBITS,SHF_MERGE|SHF_STRINGS,1
	0x27ba		
.debug_str	0xd01b5	0x1b	../../../Quectel_BG96_QuecOpen_SDK_Package_V3.0.1-AUS/SDK/libs/llvm\txm_lib.lib(txm_module_callback_request_thread_entry.o)	#SHT_PROGBITS,SHF_MERGE|SHF_STRINGS,1
	0x27dc		
.debug_str	0xd01d0	0x12	../../../Quectel_BG96_QuecOpen_SDK_Package_V3.0.1-AUS/SDK/libs/llvm\txm_lib.lib(txm_module_callback_request_thread_entry.o)	#SHT_PROGBITS,SHF_MERGE|SHF_STRINGS,1
	0x27f7		
.debug_str	0xd01e2	0x15	../../../Quectel_BG96_QuecOpen_SDK_Package_V3.0.1-AUS/SDK/libs/llvm\txm_lib.lib(txm_module_callback_request_thread_entry.o)	#SHT_PROGBITS,SHF_MERGE|SHF_STRINGS,1
	0x2809		
.debug_str	0xd01f7	0x12	../../../Quectel_BG96_QuecOpen_SDK_Package_V3.0.1-AUS/SDK/libs/llvm\txm_lib.lib(txm_module_callback_request_thread_entry.o)	#SHT_PROGBITS,SHF_MERGE|SHF_STRINGS,1
	0x281e		
.debug_str	0xd0209	0xa4	../../../Quectel_BG96_QuecOpen_SDK_Package_V3.0.1-AUS/SDK/libs/llvm\txm_lib.lib(txm_module_system_call11.o)	#SHT_PROGBITS,SHF_MERGE|SHF_STRINGS,1
	0x2830		
.debug_str	0xd02ad	0x1a	../../../Quectel_BG96_QuecOpen_SDK_Package_V3.0.1-AUS/SDK/libs/llvm\txm_lib.lib(txm_module_system_call11.o)	#SHT_PROGBITS,SHF_MERGE|SHF_STRINGS,1
	0x28d4		
.debug_str	0xd02c7	0x11	../../../Quectel_BG96_QuecOpen_SDK_Package_V3.0.1-AUS/SDK/libs/llvm\txm_lib.lib(txm_module_system_call11.o)	#SHT_PROGBITS,SHF_MERGE|SHF_STRINGS,1
	0x28ee		
.debug_str	0xd02d8	0x8	../../../Quectel_BG96_QuecOpen_SDK_Package_V3.0.1-AUS/SDK/libs/llvm\txm_lib.lib(txm_module_system_call11.o)	#SHT_PROGBITS,SHF_MERGE|SHF_STRINGS,1
	0x28ff		
.debug_str	0xd02e0	0x8	../../../Quectel_BG96_QuecOpen_SDK_Package_V3.0.1-AUS/SDK/libs/llvm\txm_lib.lib(txm_module_system_call11.o)	#SHT_PROGBITS,SHF_MERGE|SHF_STRINGS,1
	0x2907		
.debug_str	0xd02e8	0x8	../../../Quectel_BG96_QuecOpen_SDK_Package_V3.0.1-AUS/SDK/libs/llvm\txm_lib.lib(txm_module_system_call11.o)	#SHT_PROGBITS,SHF_MERGE|SHF_STRINGS,1
	0x290f		
.debug_str	0xd02f0	0x8	../../../Quectel_BG96_QuecOpen_SDK_Package_V3.0.1-AUS/SDK/libs/llvm\txm_lib.lib(txm_module_system_call11.o)	#SHT_PROGBITS,SHF_MERGE|SHF_STRINGS,1
	0x2917		
.debug_str	0xd02f8	0x8	../../../Quectel_BG96_QuecOpen_SDK_Package_V3.0.1-AUS/SDK/libs/llvm\txm_lib.lib(txm_module_system_call11.o)	#SHT_PROGBITS,SHF_MERGE|SHF_STRINGS,1
	0x291f		
.debug_str	0xd0300	0x8	../../../Quectel_BG96_QuecOpen_SDK_Package_V3.0.1-AUS/SDK/libs/llvm\txm_lib.lib(txm_module_system_call11.o)	#SHT_PROGBITS,SHF_MERGE|SHF_STRINGS,1
	0x2927		
.debug_str	0xd0308	0x8	../../../Quectel_BG96_QuecOpen_SDK_Package_V3.0.1-AUS/SDK/libs/llvm\txm_lib.lib(txm_module_system_call11.o)	#SHT_PROGBITS,SHF_MERGE|SHF_STRINGS,1
	0x292f		
.debug_str	0xd0310	0x8	../../../Quectel_BG96_QuecOpen_SDK_Package_V3.0.1-AUS/SDK/libs/llvm\txm_lib.lib(txm_module_system_call11.o)	#SHT_PROGBITS,SHF_MERGE|SHF_STRINGS,1
	0x2937		
.debug_str	0xd0318	0x8	../../../Quectel_BG96_QuecOpen_SDK_Package_V3.0.1-AUS/SDK/libs/llvm\txm_lib.lib(txm_module_system_call11.o)	#SHT_PROGBITS,SHF_MERGE|SHF_STRINGS,1
	0x293f		
.debug_str	0xd0320	0x8	../../../Quectel_BG96_QuecOpen_SDK_Package_V3.0.1-AUS/SDK/libs/llvm\txm_lib.lib(txm_module_system_call11.o)	#SHT_PROGBITS,SHF_MERGE|SHF_STRINGS,1
	0x2947		
.debug_str	0xd0328	0x9	../../../Quectel_BG96_QuecOpen_SDK_Package_V3.0.1-AUS/SDK/libs/llvm\txm_lib.lib(txm_module_system_call11.o)	#SHT_PROGBITS,SHF_MERGE|SHF_STRINGS,1
	0x294f		
.debug_str	0xd0331	0x9	../../../Quectel_BG96_QuecOpen_SDK_Package_V3.0.1-AUS/SDK/libs/llvm\txm_lib.lib(txm_module_system_call11.o)	#SHT_PROGBITS,SHF_MERGE|SHF_STRINGS,1
	0x2958		
.debug_str	0xd033a	0xd	../../../Quectel_BG96_QuecOpen_SDK_Package_V3.0.1-AUS/SDK/libs/llvm\txm_lib.lib(txm_module_system_call11.o)	#SHT_PROGBITS,SHF_MERGE|SHF_STRINGS,1
	0x2961		
.debug_str	0xd0347	0xa4	../../../Quectel_BG96_QuecOpen_SDK_Package_V3.0.1-AUS/SDK/libs/llvm\txm_lib.lib(txm_module_system_call12.o)	#SHT_PROGBITS,SHF_MERGE|SHF_STRINGS,1
	0x296e		
.debug_str	0xd03eb	0x1a	../../../Quectel_BG96_QuecOpen_SDK_Package_V3.0.1-AUS/SDK/libs/llvm\txm_lib.lib(txm_module_system_call12.o)	#SHT_PROGBITS,SHF_MERGE|SHF_STRINGS,1
	0x2a12		
.debug_str	0xd0405	0x9	../../../Quectel_BG96_QuecOpen_SDK_Package_V3.0.1-AUS/SDK/libs/llvm\txm_lib.lib(txm_module_system_call12.o)	#SHT_PROGBITS,SHF_MERGE|SHF_STRINGS,1
	0x2a2c		
.debug_str	0xd040e	0xa3	../../../Quectel_BG96_QuecOpen_SDK_Package_V3.0.1-AUS/SDK/libs/llvm\txm_lib.lib(txm_module_system_call4.o)	#SHT_PROGBITS,SHF_MERGE|SHF_STRINGS,1
	0x2a35		
.debug_str	0xd04b1	0x19	../../../Quectel_BG96_QuecOpen_SDK_Package_V3.0.1-AUS/SDK/libs/llvm\txm_lib.lib(txm_module_system_call4.o)	#SHT_PROGBITS,SHF_MERGE|SHF_STRINGS,1
	0x2ad8		
.debug_str	0xd04ca	0xa3	../../../Quectel_BG96_QuecOpen_SDK_Package_V3.0.1-AUS/SDK/libs/llvm\txm_lib.lib(txm_module_system_call5.o)	#SHT_PROGBITS,SHF_MERGE|SHF_STRINGS,1
	0x2af1		
.debug_str	0xd056d	0x19	../../../Quectel_BG96_QuecOpen_SDK_Package_V3.0.1-AUS/SDK/libs/llvm\txm_lib.lib(txm_module_system_call5.o)	#SHT_PROGBITS,SHF_MERGE|SHF_STRINGS,1
	0x2b94		
.debug_str	0xd0586	0xa3	../../../Quectel_BG96_QuecOpen_SDK_Package_V3.0.1-AUS/SDK/libs/llvm\txm_lib.lib(txm_module_system_call6.o)	#SHT_PROGBITS,SHF_MERGE|SHF_STRINGS,1
	0x2bad		
.debug_str	0xd0629	0x19	../../../Quectel_BG96_QuecOpen_SDK_Package_V3.0.1-AUS/SDK/libs/llvm\txm_lib.lib(txm_module_system_call6.o)	#SHT_PROGBITS,SHF_MERGE|SHF_STRINGS,1
	0x2c50		

.debug_loc	0xd0642	0x76d # Offset: 0xd0642
*(.debug_loc )
.debug_loc	0xd0642	0x30c	../../../Quectel_BG96_QuecOpen_SDK_Package_V3.0.1-AUS/SDK/libs/llvm\timer_dam_lib.lib(qapi_timer_user.o)	#SHT_PROGBITS,,1
.debug_loc	0xd094e	0x3c	../../../Quectel_BG96_QuecOpen_SDK_Package_V3.0.1-AUS/SDK/libs/llvm\txm_lib.lib(txm_module_thread_shell_entry.o)	#SHT_PROGBITS,,1
.debug_loc	0xd098a	0x75	../../../Quectel_BG96_QuecOpen_SDK_Package_V3.0.1-AUS/SDK/libs/llvm\txm_lib.lib(txm_module_callback_request_thread_entry.o)	#SHT_PROGBITS,,1
.debug_loc	0xd09ff	0x103	../../../Quectel_BG96_QuecOpen_SDK_Package_V3.0.1-AUS/SDK/libs/llvm\txm_lib.lib(txm_module_system_call11.o)	#SHT_PROGBITS,,1
.debug_loc	0xd0b02	0x118	../../../Quectel_BG96_QuecOpen_SDK_Package_V3.0.1-AUS/SDK/libs/llvm\txm_lib.lib(txm_module_system_call12.o)	#SHT_PROGBITS,,1
.debug_loc	0xd0c1a	0x73	../../../Quectel_BG96_QuecOpen_SDK_Package_V3.0.1-AUS/SDK/libs/llvm\txm_lib.lib(txm_module_system_call4.o)	#SHT_PROGBITS,,1
.debug_loc	0xd0c8d	0x87	../../../Quectel_BG96_QuecOpen_SDK_Package_V3.0.1-AUS/SDK/libs/llvm\txm_lib.lib(txm_module_system_call5.o)	#SHT_PROGBITS,,1
.debug_loc	0xd0d14	0x9b	../../../Quectel_BG96_QuecOpen_SDK_Package_V3.0.1-AUS/SDK/libs/llvm\txm_lib.lib(txm_module_system_call6.o)	#SHT_PROGBITS,,1

.debug_macinfo	0xd0daf	0x8 # Offset: 0xd0daf
*(.debug_macinfo )
.debug_macinfo	0xd0daf	0x1	../../../Quectel_BG96_QuecOpen_SDK_Package_V3.0.1-AUS/SDK/libs/llvm\timer_dam_lib.lib(qapi_timer_user.o)	#SHT_PROGBITS,,1
.debug_macinfo	0xd0db0	0x1	../../../Quectel_BG96_QuecOpen_SDK_Package_V3.0.1-AUS/SDK/libs/llvm\txm_lib.lib(txm_module_thread_shell_entry.o)	#SHT_PROGBITS,,1
.debug_macinfo	0xd0db1	0x1	../../../Quectel_BG96_QuecOpen_SDK_Package_V3.0.1-AUS/SDK/libs/llvm\txm_lib.lib(txm_module_callback_request_thread_entry.o)	#SHT_PROGBITS,,1
.debug_macinfo	0xd0db2	0x1	../../../Quectel_BG96_QuecOpen_SDK_Package_V3.0.1-AUS/SDK/libs/llvm\txm_lib.lib(txm_module_system_call11.o)	#SHT_PROGBITS,,1
.debug_macinfo	0xd0db3	0x1	../../../Quectel_BG96_QuecOpen_SDK_Package_V3.0.1-AUS/SDK/libs/llvm\txm_lib.lib(txm_module_system_call12.o)	#SHT_PROGBITS,,1
.debug_macinfo	0xd0db4	0x1	../../../Quectel_BG96_QuecOpen_SDK_Package_V3.0.1-AUS/SDK/libs/llvm\txm_lib.lib(txm_module_system_call4.o)	#SHT_PROGBITS,,1
.debug_macinfo	0xd0db5	0x1	../../../Quectel_BG96_QuecOpen_SDK_Package_V3.0.1-AUS/SDK/libs/llvm\txm_lib.lib(txm_module_system_call5.o)	#SHT_PROGBITS,,1
.debug_macinfo	0xd0db6	0x1	../../../Quectel_BG96_QuecOpen_SDK_Package_V3.0.1-AUS/SDK/libs/llvm\txm_lib.lib(txm_module_system_call6.o)	#SHT_PROGBITS,,1

.debug_weaknames	0xd0db7	0x0 # Offset: 0xd0db7

.debug_funcnames	0xd0db7	0x0 # Offset: 0xd0db7

.debug_typenames	0xd0db7	0x0 # Offset: 0xd0db7

.debug_varnames	0xd0db7	0x0 # Offset: 0xd0db7

.debug_pubtypes	0xd0db7	0x82a # Offset: 0xd0db7
*(.debug_pubtypes )
.debug_pubtypes	0xd0db7	0x2bb	../../../Quectel_BG96_QuecOpen_SDK_Package_V3.0.1-AUS/SDK/libs/llvm\timer_dam_lib.lib(qapi_timer_user.o)	#SHT_PROGBITS,,1
.debug_pubtypes	0xd1072	0x1e2	../../../Quectel_BG96_QuecOpen_SDK_Package_V3.0.1-AUS/SDK/libs/llvm\txm_lib.lib(txm_module_thread_shell_entry.o)	#SHT_PROGBITS,,1
.debug_pubtypes	0xd1254	0x293	../../../Quectel_BG96_QuecOpen_SDK_Package_V3.0.1-AUS/SDK/libs/llvm\txm_lib.lib(txm_module_callback_request_thread_entry.o)	#SHT_PROGBITS,,1
.debug_pubtypes	0xd14e7	0x32	../../../Quectel_BG96_QuecOpen_SDK_Package_V3.0.1-AUS/SDK/libs/llvm\txm_lib.lib(txm_module_system_call11.o)	#SHT_PROGBITS,,1
.debug_pubtypes	0xd1519	0x32	../../../Quectel_BG96_QuecOpen_SDK_Package_V3.0.1-AUS/SDK/libs/llvm\txm_lib.lib(txm_module_system_call12.o)	#SHT_PROGBITS,,1
.debug_pubtypes	0xd154b	0x32	../../../Quectel_BG96_QuecOpen_SDK_Package_V3.0.1-AUS/SDK/libs/llvm\txm_lib.lib(txm_module_system_call4.o)	#SHT_PROGBITS,,1
.debug_pubtypes	0xd157d	0x32	../../../Quectel_BG96_QuecOpen_SDK_Package_V3.0.1-AUS/SDK/libs/llvm\txm_lib.lib(txm_module_system_call5.o)	#SHT_PROGBITS,,1
.debug_pubtypes	0xd15af	0x32	../../../Quectel_BG96_QuecOpen_SDK_Package_V3.0.1-AUS/SDK/libs/llvm\txm_lib.lib(txm_module_system_call6.o)	#SHT_PROGBITS,,1

.debug_ranges	0xd15e1	0x58 # Offset: 0xd15e1
*(.debug_ranges )
.debug_ranges	0xd15e1	0x58	../../../Quectel_BG96_QuecOpen_SDK_Package_V3.0.1-AUS/SDK/libs/llvm\timer_dam_lib.lib(qapi_timer_user.o)	#SHT_PROGBITS,,1

.gnu.attributes	0x0	0x0 # Offset: 0xd1639, LMA: 0x0

.note.gnu.arm.ident	0x0	0x0 # Offset: 0xd1639, LMA: 0x0

.ARM.attributes	0xd1639	0x10 # Offset: 0xd1639

.comment	0xd1649	0x65 # Offset: 0xd1649
.comment	0xd1649	0x1	C:\Users\nikol\projects\quectel\development\customer\threadx\tools\LLVM\4.0.3\armv7m-none-eabi\libc\lib/libc.a(__errno_location.o)	#SHT_PROGBITS,SHF_MERGE|SHF_STRINGS,1
.comment	0xd1686	0x28	Linker Version	#SHT_PROGBITS,SHF_MERGE|SHF_STRINGS,1

.note.GNU-stack	0xd16ae	0x0 # Offset: 0xd16ae

/DISCARD/	0x75	0x0 # Offset: 0xd16ae, LMA: 0x0

.shstrtab	0xd16ae	0xcc # Offset: 0xd16ae

.symtab	0xd177c	0x133a0 # Offset: 0xd177c

.strtab	0xe4b1c	0xe874 # Offset: 0xe4b1c
